ARM GAS  C:\Users\LAIR\AppData\Local\Temp\cce7zI8c.s 			page 1


   1              		.syntax unified
   2              		.cpu cortex-m3
   3              		.fpu softvfp
   4              		.eabi_attribute 20, 1
   5              		.eabi_attribute 21, 1
   6              		.eabi_attribute 23, 3
   7              		.eabi_attribute 24, 1
   8              		.eabi_attribute 25, 1
   9              		.eabi_attribute 26, 1
  10              		.eabi_attribute 30, 1
  11              		.eabi_attribute 34, 1
  12              		.eabi_attribute 18, 4
  13              		.thumb
  14              		.file	"cyfitter_cfg.c"
  15              		.text
  16              	.Ltext0:
  17              		.cfi_sections	.debug_frame
  18              		.section	.text.CyClockStartupError,"ax",%progbits
  19              		.align	2
  20              		.thumb
  21              		.thumb_func
  22              		.type	CyClockStartupError, %function
  23              	CyClockStartupError:
  24              	.LFB3:
  25              		.file 1 ".\\Generated_Source\\PSoC5\\cyfitter_cfg.c"
   1:.\Generated_Source\PSoC5/cyfitter_cfg.c **** /*******************************************************************************
   2:.\Generated_Source\PSoC5/cyfitter_cfg.c **** * File Name: cyfitter_cfg.c
   3:.\Generated_Source\PSoC5/cyfitter_cfg.c **** * 
   4:.\Generated_Source\PSoC5/cyfitter_cfg.c **** * PSoC Creator  3.3 CP3
   5:.\Generated_Source\PSoC5/cyfitter_cfg.c **** *
   6:.\Generated_Source\PSoC5/cyfitter_cfg.c **** * Description:
   7:.\Generated_Source\PSoC5/cyfitter_cfg.c **** * This file contains device initialization code.
   8:.\Generated_Source\PSoC5/cyfitter_cfg.c **** * Except for the user defined sections in CyClockStartupError(), this file should not be modified.
   9:.\Generated_Source\PSoC5/cyfitter_cfg.c **** * This file is automatically generated by PSoC Creator.
  10:.\Generated_Source\PSoC5/cyfitter_cfg.c **** *
  11:.\Generated_Source\PSoC5/cyfitter_cfg.c **** ********************************************************************************
  12:.\Generated_Source\PSoC5/cyfitter_cfg.c **** * Copyright (c) 2007-2016 Cypress Semiconductor.  All rights reserved.
  13:.\Generated_Source\PSoC5/cyfitter_cfg.c **** * You may use this file only in accordance with the license, terms, conditions, 
  14:.\Generated_Source\PSoC5/cyfitter_cfg.c **** * disclaimers, and limitations in the end user license agreement accompanying 
  15:.\Generated_Source\PSoC5/cyfitter_cfg.c **** * the software package with which this file was provided.
  16:.\Generated_Source\PSoC5/cyfitter_cfg.c **** ********************************************************************************/
  17:.\Generated_Source\PSoC5/cyfitter_cfg.c **** 
  18:.\Generated_Source\PSoC5/cyfitter_cfg.c **** #include <string.h>
  19:.\Generated_Source\PSoC5/cyfitter_cfg.c **** #include "cytypes.h"
  20:.\Generated_Source\PSoC5/cyfitter_cfg.c **** #include "cydevice_trm.h"
  21:.\Generated_Source\PSoC5/cyfitter_cfg.c **** #include "cyfitter.h"
  22:.\Generated_Source\PSoC5/cyfitter_cfg.c **** #include "CyLib.h"
  23:.\Generated_Source\PSoC5/cyfitter_cfg.c **** #include "cyfitter_cfg.h"
  24:.\Generated_Source\PSoC5/cyfitter_cfg.c **** 
  25:.\Generated_Source\PSoC5/cyfitter_cfg.c **** #define CY_NEED_CYCLOCKSTARTUPERROR 1
  26:.\Generated_Source\PSoC5/cyfitter_cfg.c **** 
  27:.\Generated_Source\PSoC5/cyfitter_cfg.c **** 
  28:.\Generated_Source\PSoC5/cyfitter_cfg.c **** #if defined(__GNUC__) || defined(__ARMCC_VERSION)
  29:.\Generated_Source\PSoC5/cyfitter_cfg.c ****     #define CYPACKED 
  30:.\Generated_Source\PSoC5/cyfitter_cfg.c ****     #define CYPACKED_ATTR __attribute__ ((packed))
  31:.\Generated_Source\PSoC5/cyfitter_cfg.c ****     #define CYALIGNED __attribute__ ((aligned))
  32:.\Generated_Source\PSoC5/cyfitter_cfg.c ****     #define CY_CFG_UNUSED __attribute__ ((unused))
ARM GAS  C:\Users\LAIR\AppData\Local\Temp\cce7zI8c.s 			page 2


  33:.\Generated_Source\PSoC5/cyfitter_cfg.c ****     #ifndef CY_CFG_SECTION
  34:.\Generated_Source\PSoC5/cyfitter_cfg.c ****         #define CY_CFG_SECTION __attribute__ ((section(".psocinit")))
  35:.\Generated_Source\PSoC5/cyfitter_cfg.c ****     #endif
  36:.\Generated_Source\PSoC5/cyfitter_cfg.c ****     
  37:.\Generated_Source\PSoC5/cyfitter_cfg.c ****     #if defined(__ARMCC_VERSION)
  38:.\Generated_Source\PSoC5/cyfitter_cfg.c ****         #define CY_CFG_MEMORY_BARRIER() __memory_changed()
  39:.\Generated_Source\PSoC5/cyfitter_cfg.c ****     #else
  40:.\Generated_Source\PSoC5/cyfitter_cfg.c ****         #define CY_CFG_MEMORY_BARRIER() __sync_synchronize()
  41:.\Generated_Source\PSoC5/cyfitter_cfg.c ****     #endif
  42:.\Generated_Source\PSoC5/cyfitter_cfg.c ****     
  43:.\Generated_Source\PSoC5/cyfitter_cfg.c **** #elif defined(__ICCARM__)
  44:.\Generated_Source\PSoC5/cyfitter_cfg.c ****     #include <intrinsics.h>
  45:.\Generated_Source\PSoC5/cyfitter_cfg.c **** 
  46:.\Generated_Source\PSoC5/cyfitter_cfg.c ****     #define CYPACKED __packed
  47:.\Generated_Source\PSoC5/cyfitter_cfg.c ****     #define CYPACKED_ATTR 
  48:.\Generated_Source\PSoC5/cyfitter_cfg.c ****     #define CYALIGNED _Pragma("data_alignment=4")
  49:.\Generated_Source\PSoC5/cyfitter_cfg.c ****     #define CY_CFG_UNUSED _Pragma("diag_suppress=Pe177")
  50:.\Generated_Source\PSoC5/cyfitter_cfg.c ****     #define CY_CFG_SECTION _Pragma("location=\".psocinit\"")
  51:.\Generated_Source\PSoC5/cyfitter_cfg.c ****     
  52:.\Generated_Source\PSoC5/cyfitter_cfg.c ****     #define CY_CFG_MEMORY_BARRIER() __DMB()
  53:.\Generated_Source\PSoC5/cyfitter_cfg.c ****     
  54:.\Generated_Source\PSoC5/cyfitter_cfg.c **** #else
  55:.\Generated_Source\PSoC5/cyfitter_cfg.c ****     #error Unsupported toolchain
  56:.\Generated_Source\PSoC5/cyfitter_cfg.c **** #endif
  57:.\Generated_Source\PSoC5/cyfitter_cfg.c **** 
  58:.\Generated_Source\PSoC5/cyfitter_cfg.c **** 
  59:.\Generated_Source\PSoC5/cyfitter_cfg.c **** CY_CFG_UNUSED
  60:.\Generated_Source\PSoC5/cyfitter_cfg.c **** static void CYMEMZERO(void *s, size_t n);
  61:.\Generated_Source\PSoC5/cyfitter_cfg.c **** CY_CFG_UNUSED
  62:.\Generated_Source\PSoC5/cyfitter_cfg.c **** static void CYMEMZERO(void *s, size_t n)
  63:.\Generated_Source\PSoC5/cyfitter_cfg.c **** {
  64:.\Generated_Source\PSoC5/cyfitter_cfg.c **** 	(void)memset(s, 0, n);
  65:.\Generated_Source\PSoC5/cyfitter_cfg.c **** }
  66:.\Generated_Source\PSoC5/cyfitter_cfg.c **** CY_CFG_UNUSED
  67:.\Generated_Source\PSoC5/cyfitter_cfg.c **** static void CYCONFIGCPY(void *dest, const void *src, size_t n);
  68:.\Generated_Source\PSoC5/cyfitter_cfg.c **** CY_CFG_UNUSED
  69:.\Generated_Source\PSoC5/cyfitter_cfg.c **** static void CYCONFIGCPY(void *dest, const void *src, size_t n)
  70:.\Generated_Source\PSoC5/cyfitter_cfg.c **** {
  71:.\Generated_Source\PSoC5/cyfitter_cfg.c **** 	(void)memcpy(dest, src, n);
  72:.\Generated_Source\PSoC5/cyfitter_cfg.c **** }
  73:.\Generated_Source\PSoC5/cyfitter_cfg.c **** CY_CFG_UNUSED
  74:.\Generated_Source\PSoC5/cyfitter_cfg.c **** static void CYCONFIGCPYCODE(void *dest, const void *src, size_t n);
  75:.\Generated_Source\PSoC5/cyfitter_cfg.c **** CY_CFG_UNUSED
  76:.\Generated_Source\PSoC5/cyfitter_cfg.c **** static void CYCONFIGCPYCODE(void *dest, const void *src, size_t n)
  77:.\Generated_Source\PSoC5/cyfitter_cfg.c **** {
  78:.\Generated_Source\PSoC5/cyfitter_cfg.c **** 	(void)memcpy(dest, src, n);
  79:.\Generated_Source\PSoC5/cyfitter_cfg.c **** }
  80:.\Generated_Source\PSoC5/cyfitter_cfg.c **** 
  81:.\Generated_Source\PSoC5/cyfitter_cfg.c **** 
  82:.\Generated_Source\PSoC5/cyfitter_cfg.c **** 
  83:.\Generated_Source\PSoC5/cyfitter_cfg.c **** /* Clock startup error codes                                                   */
  84:.\Generated_Source\PSoC5/cyfitter_cfg.c **** #define CYCLOCKSTART_NO_ERROR    0u
  85:.\Generated_Source\PSoC5/cyfitter_cfg.c **** #define CYCLOCKSTART_XTAL_ERROR  1u
  86:.\Generated_Source\PSoC5/cyfitter_cfg.c **** #define CYCLOCKSTART_32KHZ_ERROR 2u
  87:.\Generated_Source\PSoC5/cyfitter_cfg.c **** #define CYCLOCKSTART_PLL_ERROR   3u
  88:.\Generated_Source\PSoC5/cyfitter_cfg.c **** 
  89:.\Generated_Source\PSoC5/cyfitter_cfg.c **** #ifdef CY_NEED_CYCLOCKSTARTUPERROR
ARM GAS  C:\Users\LAIR\AppData\Local\Temp\cce7zI8c.s 			page 3


  90:.\Generated_Source\PSoC5/cyfitter_cfg.c **** /*******************************************************************************
  91:.\Generated_Source\PSoC5/cyfitter_cfg.c **** * Function Name: CyClockStartupError
  92:.\Generated_Source\PSoC5/cyfitter_cfg.c **** ********************************************************************************
  93:.\Generated_Source\PSoC5/cyfitter_cfg.c **** * Summary:
  94:.\Generated_Source\PSoC5/cyfitter_cfg.c **** *  If an error is encountered during clock configuration (crystal startup error,
  95:.\Generated_Source\PSoC5/cyfitter_cfg.c **** *  PLL lock error, etc.), the system will end up here.  Unless reimplemented by
  96:.\Generated_Source\PSoC5/cyfitter_cfg.c **** *  the customer, this function will stop in an infinite loop.
  97:.\Generated_Source\PSoC5/cyfitter_cfg.c **** *
  98:.\Generated_Source\PSoC5/cyfitter_cfg.c **** * Parameters:
  99:.\Generated_Source\PSoC5/cyfitter_cfg.c **** *   void
 100:.\Generated_Source\PSoC5/cyfitter_cfg.c **** *
 101:.\Generated_Source\PSoC5/cyfitter_cfg.c **** * Return:
 102:.\Generated_Source\PSoC5/cyfitter_cfg.c **** *   void
 103:.\Generated_Source\PSoC5/cyfitter_cfg.c **** *
 104:.\Generated_Source\PSoC5/cyfitter_cfg.c **** *******************************************************************************/
 105:.\Generated_Source\PSoC5/cyfitter_cfg.c **** CY_CFG_UNUSED
 106:.\Generated_Source\PSoC5/cyfitter_cfg.c **** static void CyClockStartupError(uint8 errorCode);
 107:.\Generated_Source\PSoC5/cyfitter_cfg.c **** CY_CFG_UNUSED
 108:.\Generated_Source\PSoC5/cyfitter_cfg.c **** static void CyClockStartupError(uint8 errorCode)
 109:.\Generated_Source\PSoC5/cyfitter_cfg.c **** {
  26              		.loc 1 109 0
  27              		.cfi_startproc
  28              		@ Volatile: function does not return.
  29              		@ args = 0, pretend = 0, frame = 0
  30              		@ frame_needed = 0, uses_anonymous_args = 0
  31              		@ link register save eliminated.
  32              	.LVL0:
  33              	.L2:
 110:.\Generated_Source\PSoC5/cyfitter_cfg.c ****     /* To remove the compiler warning if errorCode not used.                */
 111:.\Generated_Source\PSoC5/cyfitter_cfg.c ****     errorCode = errorCode;
 112:.\Generated_Source\PSoC5/cyfitter_cfg.c **** 
 113:.\Generated_Source\PSoC5/cyfitter_cfg.c ****     /* `#START CyClockStartupError` */
 114:.\Generated_Source\PSoC5/cyfitter_cfg.c **** 
 115:.\Generated_Source\PSoC5/cyfitter_cfg.c ****     /* If we have a clock startup error (bad MHz crystal, PLL lock, etc.),  */
 116:.\Generated_Source\PSoC5/cyfitter_cfg.c ****     /* we will end up here to allow the customer to implement something to  */
 117:.\Generated_Source\PSoC5/cyfitter_cfg.c ****     /* deal with the clock condition.                                       */
 118:.\Generated_Source\PSoC5/cyfitter_cfg.c **** 
 119:.\Generated_Source\PSoC5/cyfitter_cfg.c ****     /* `#END` */
 120:.\Generated_Source\PSoC5/cyfitter_cfg.c **** 
 121:.\Generated_Source\PSoC5/cyfitter_cfg.c ****     /* If nothing else, stop here since the clocks have not started         */
 122:.\Generated_Source\PSoC5/cyfitter_cfg.c ****     /* correctly.                                                           */
 123:.\Generated_Source\PSoC5/cyfitter_cfg.c ****     while(1) {}
  34              		.loc 1 123 0 discriminator 1
  35 0000 FEE7     		b	.L2
  36              		.cfi_endproc
  37              	.LFE3:
  38              		.size	CyClockStartupError, .-CyClockStartupError
  39 0002 00BF     		.section	.text.cfg_write_bytes32,"ax",%progbits
  40              		.align	2
  41              		.thumb
  42              		.thumb_func
  43              		.type	cfg_write_bytes32, %function
  44              	cfg_write_bytes32:
  45              	.LFB4:
 124:.\Generated_Source\PSoC5/cyfitter_cfg.c **** }
 125:.\Generated_Source\PSoC5/cyfitter_cfg.c **** #endif
 126:.\Generated_Source\PSoC5/cyfitter_cfg.c **** 
ARM GAS  C:\Users\LAIR\AppData\Local\Temp\cce7zI8c.s 			page 4


 127:.\Generated_Source\PSoC5/cyfitter_cfg.c **** #define CY_CFG_BASE_ADDR_COUNT 36u
 128:.\Generated_Source\PSoC5/cyfitter_cfg.c **** CYPACKED typedef struct
 129:.\Generated_Source\PSoC5/cyfitter_cfg.c **** {
 130:.\Generated_Source\PSoC5/cyfitter_cfg.c **** 	uint8 offset;
 131:.\Generated_Source\PSoC5/cyfitter_cfg.c **** 	uint8 value;
 132:.\Generated_Source\PSoC5/cyfitter_cfg.c **** } CYPACKED_ATTR cy_cfg_addrvalue_t;
 133:.\Generated_Source\PSoC5/cyfitter_cfg.c **** 
 134:.\Generated_Source\PSoC5/cyfitter_cfg.c **** #define cy_cfg_addr_table ((const uint32 CYFAR *)0x48000000u)
 135:.\Generated_Source\PSoC5/cyfitter_cfg.c **** #define cy_cfg_data_table ((const cy_cfg_addrvalue_t CYFAR *)0x48000090u)
 136:.\Generated_Source\PSoC5/cyfitter_cfg.c **** 
 137:.\Generated_Source\PSoC5/cyfitter_cfg.c **** /* IOPINS0_0 Address: CYREG_PRT0_DM0 Size (bytes): 8 */
 138:.\Generated_Source\PSoC5/cyfitter_cfg.c **** #define BS_IOPINS0_0_VAL ((const uint8 CYFAR *)0x480008E8u)
 139:.\Generated_Source\PSoC5/cyfitter_cfg.c **** 
 140:.\Generated_Source\PSoC5/cyfitter_cfg.c **** /* IOPINS0_7 Address: CYREG_PRT12_DR Size (bytes): 10 */
 141:.\Generated_Source\PSoC5/cyfitter_cfg.c **** #define BS_IOPINS0_7_VAL ((const uint8 CYFAR *)0x480008F0u)
 142:.\Generated_Source\PSoC5/cyfitter_cfg.c **** 
 143:.\Generated_Source\PSoC5/cyfitter_cfg.c **** /* IOPINS0_8 Address: CYREG_PRT15_DR Size (bytes): 10 */
 144:.\Generated_Source\PSoC5/cyfitter_cfg.c **** #define BS_IOPINS0_8_VAL ((const uint8 CYFAR *)0x480008FCu)
 145:.\Generated_Source\PSoC5/cyfitter_cfg.c **** 
 146:.\Generated_Source\PSoC5/cyfitter_cfg.c **** /* IOPINS0_2 Address: CYREG_PRT2_DR Size (bytes): 10 */
 147:.\Generated_Source\PSoC5/cyfitter_cfg.c **** #define BS_IOPINS0_2_VAL ((const uint8 CYFAR *)0x48000908u)
 148:.\Generated_Source\PSoC5/cyfitter_cfg.c **** 
 149:.\Generated_Source\PSoC5/cyfitter_cfg.c **** /* IOPINS0_3 Address: CYREG_PRT3_DM0 Size (bytes): 8 */
 150:.\Generated_Source\PSoC5/cyfitter_cfg.c **** #define BS_IOPINS0_3_VAL ((const uint8 CYFAR *)0x48000914u)
 151:.\Generated_Source\PSoC5/cyfitter_cfg.c **** 
 152:.\Generated_Source\PSoC5/cyfitter_cfg.c **** 
 153:.\Generated_Source\PSoC5/cyfitter_cfg.c **** /*******************************************************************************
 154:.\Generated_Source\PSoC5/cyfitter_cfg.c **** * Function Name: cfg_write_bytes32
 155:.\Generated_Source\PSoC5/cyfitter_cfg.c **** ********************************************************************************
 156:.\Generated_Source\PSoC5/cyfitter_cfg.c **** * Summary:
 157:.\Generated_Source\PSoC5/cyfitter_cfg.c **** *  This function is used for setting up the chip configuration areas that
 158:.\Generated_Source\PSoC5/cyfitter_cfg.c **** *  contain relatively sparse data.
 159:.\Generated_Source\PSoC5/cyfitter_cfg.c **** *
 160:.\Generated_Source\PSoC5/cyfitter_cfg.c **** * Parameters:
 161:.\Generated_Source\PSoC5/cyfitter_cfg.c **** *   void
 162:.\Generated_Source\PSoC5/cyfitter_cfg.c **** *
 163:.\Generated_Source\PSoC5/cyfitter_cfg.c **** * Return:
 164:.\Generated_Source\PSoC5/cyfitter_cfg.c **** *   void
 165:.\Generated_Source\PSoC5/cyfitter_cfg.c **** *
 166:.\Generated_Source\PSoC5/cyfitter_cfg.c **** *******************************************************************************/
 167:.\Generated_Source\PSoC5/cyfitter_cfg.c **** static void cfg_write_bytes32(const uint32 addr_table[], const cy_cfg_addrvalue_t data_table[]);
 168:.\Generated_Source\PSoC5/cyfitter_cfg.c **** static void cfg_write_bytes32(const uint32 addr_table[], const cy_cfg_addrvalue_t data_table[])
 169:.\Generated_Source\PSoC5/cyfitter_cfg.c **** {
  46              		.loc 1 169 0
  47              		.cfi_startproc
  48              		@ args = 0, pretend = 0, frame = 0
  49              		@ frame_needed = 0, uses_anonymous_args = 0
  50              		@ link register save eliminated.
  51              	.LVL1:
  52 0000 F0B4     		push	{r4, r5, r6, r7}
  53              		.cfi_def_cfa_offset 16
  54              		.cfi_offset 4, -16
  55              		.cfi_offset 5, -12
  56              		.cfi_offset 6, -8
  57              		.cfi_offset 7, -4
  58              	.LVL2:
 170:.\Generated_Source\PSoC5/cyfitter_cfg.c **** 	/* For 32-bit little-endian architectures */
ARM GAS  C:\Users\LAIR\AppData\Local\Temp\cce7zI8c.s 			page 5


 171:.\Generated_Source\PSoC5/cyfitter_cfg.c **** 	uint32 i, j = 0u;
  59              		.loc 1 171 0
  60 0002 0022     		movs	r2, #0
 172:.\Generated_Source\PSoC5/cyfitter_cfg.c **** 	for (i = 0u; i < CY_CFG_BASE_ADDR_COUNT; i++)
  61              		.loc 1 172 0
  62 0004 1746     		mov	r7, r2
  63 0006 11E0     		b	.L4
  64              	.LVL3:
  65              	.L7:
  66              	.LBB2:
 173:.\Generated_Source\PSoC5/cyfitter_cfg.c **** 	{
 174:.\Generated_Source\PSoC5/cyfitter_cfg.c **** 		uint32 baseAddr = addr_table[i];
  67              		.loc 1 174 0
  68 0008 50F82760 		ldr	r6, [r0, r7, lsl #2]
  69              	.LVL4:
 175:.\Generated_Source\PSoC5/cyfitter_cfg.c **** 		uint8 count = (uint8)baseAddr;
  70              		.loc 1 175 0
  71 000c F3B2     		uxtb	r3, r6
  72              	.LVL5:
 176:.\Generated_Source\PSoC5/cyfitter_cfg.c **** 		baseAddr &= 0xFFFFFF00u;
  73              		.loc 1 176 0
  74 000e 26F0FF06 		bic	r6, r6, #255
  75              	.LVL6:
 177:.\Generated_Source\PSoC5/cyfitter_cfg.c **** 		while (count != 0u)
  76              		.loc 1 177 0
  77 0012 08E0     		b	.L5
  78              	.L6:
 178:.\Generated_Source\PSoC5/cyfitter_cfg.c **** 		{
 179:.\Generated_Source\PSoC5/cyfitter_cfg.c **** 			CY_SET_XTND_REG8((void CYFAR *)(baseAddr + data_table[j].offset), data_table[j].value);
  79              		.loc 1 179 0
  80 0014 01EB4205 		add	r5, r1, r2, lsl #1
  81 0018 11F81240 		ldrb	r4, [r1, r2, lsl #1]	@ zero_extendqisi2
  82 001c 6D78     		ldrb	r5, [r5, #1]	@ zero_extendqisi2
  83 001e A555     		strb	r5, [r4, r6]
 180:.\Generated_Source\PSoC5/cyfitter_cfg.c **** 			j++;
  84              		.loc 1 180 0
  85 0020 0132     		adds	r2, r2, #1
  86              	.LVL7:
 181:.\Generated_Source\PSoC5/cyfitter_cfg.c **** 			count--;
  87              		.loc 1 181 0
  88 0022 013B     		subs	r3, r3, #1
  89              	.LVL8:
  90 0024 DBB2     		uxtb	r3, r3
  91              	.LVL9:
  92              	.L5:
 177:.\Generated_Source\PSoC5/cyfitter_cfg.c **** 		{
  93              		.loc 1 177 0
  94 0026 002B     		cmp	r3, #0
  95 0028 F4D1     		bne	.L6
  96              	.LBE2:
 172:.\Generated_Source\PSoC5/cyfitter_cfg.c **** 	{
  97              		.loc 1 172 0 discriminator 2
  98 002a 0137     		adds	r7, r7, #1
  99              	.LVL10:
 100              	.L4:
 172:.\Generated_Source\PSoC5/cyfitter_cfg.c **** 	{
 101              		.loc 1 172 0 is_stmt 0 discriminator 1
ARM GAS  C:\Users\LAIR\AppData\Local\Temp\cce7zI8c.s 			page 6


 102 002c 232F     		cmp	r7, #35
 103 002e EBD9     		bls	.L7
 182:.\Generated_Source\PSoC5/cyfitter_cfg.c **** 		}
 183:.\Generated_Source\PSoC5/cyfitter_cfg.c **** 	}
 184:.\Generated_Source\PSoC5/cyfitter_cfg.c **** }
 104              		.loc 1 184 0 is_stmt 1
 105 0030 F0BC     		pop	{r4, r5, r6, r7}
 106              		.cfi_restore 7
 107              		.cfi_restore 6
 108              		.cfi_restore 5
 109              		.cfi_restore 4
 110              		.cfi_def_cfa_offset 0
 111              	.LVL11:
 112 0032 7047     		bx	lr
 113              		.cfi_endproc
 114              	.LFE4:
 115              		.size	cfg_write_bytes32, .-cfg_write_bytes32
 116              		.section	.text.CYMEMZERO,"ax",%progbits
 117              		.align	2
 118              		.thumb
 119              		.thumb_func
 120              		.type	CYMEMZERO, %function
 121              	CYMEMZERO:
 122              	.LFB0:
  63:.\Generated_Source\PSoC5/cyfitter_cfg.c **** 	(void)memset(s, 0, n);
 123              		.loc 1 63 0
 124              		.cfi_startproc
 125              		@ args = 0, pretend = 0, frame = 0
 126              		@ frame_needed = 0, uses_anonymous_args = 0
 127              	.LVL12:
 128 0000 08B5     		push	{r3, lr}
 129              		.cfi_def_cfa_offset 8
 130              		.cfi_offset 3, -8
 131              		.cfi_offset 14, -4
 132 0002 0A46     		mov	r2, r1
  64:.\Generated_Source\PSoC5/cyfitter_cfg.c **** }
 133              		.loc 1 64 0
 134 0004 0021     		movs	r1, #0
 135              	.LVL13:
 136 0006 FFF7FEFF 		bl	memset
 137              	.LVL14:
 138 000a 08BD     		pop	{r3, pc}
 139              		.cfi_endproc
 140              	.LFE0:
 141              		.size	CYMEMZERO, .-CYMEMZERO
 142              		.section	.text.ClockSetup,"ax",%progbits
 143              		.align	2
 144              		.thumb
 145              		.thumb_func
 146              		.type	ClockSetup, %function
 147              	ClockSetup:
 148              	.LFB5:
 185:.\Generated_Source\PSoC5/cyfitter_cfg.c **** 
 186:.\Generated_Source\PSoC5/cyfitter_cfg.c **** /*******************************************************************************
 187:.\Generated_Source\PSoC5/cyfitter_cfg.c **** * Function Name: ClockSetup
 188:.\Generated_Source\PSoC5/cyfitter_cfg.c **** ********************************************************************************
 189:.\Generated_Source\PSoC5/cyfitter_cfg.c **** *
ARM GAS  C:\Users\LAIR\AppData\Local\Temp\cce7zI8c.s 			page 7


 190:.\Generated_Source\PSoC5/cyfitter_cfg.c **** * Summary:
 191:.\Generated_Source\PSoC5/cyfitter_cfg.c **** *  Performs the initialization of all of the clocks in the device based on the
 192:.\Generated_Source\PSoC5/cyfitter_cfg.c **** *  settings in the Clock tab of the DWR.  This includes enabling the requested
 193:.\Generated_Source\PSoC5/cyfitter_cfg.c **** *  clocks and setting the necessary dividers to produce the desired frequency. 
 194:.\Generated_Source\PSoC5/cyfitter_cfg.c **** *
 195:.\Generated_Source\PSoC5/cyfitter_cfg.c **** * Parameters:
 196:.\Generated_Source\PSoC5/cyfitter_cfg.c **** *  void
 197:.\Generated_Source\PSoC5/cyfitter_cfg.c **** *
 198:.\Generated_Source\PSoC5/cyfitter_cfg.c **** * Return:
 199:.\Generated_Source\PSoC5/cyfitter_cfg.c **** *  void
 200:.\Generated_Source\PSoC5/cyfitter_cfg.c **** *
 201:.\Generated_Source\PSoC5/cyfitter_cfg.c **** *******************************************************************************/
 202:.\Generated_Source\PSoC5/cyfitter_cfg.c **** static void ClockSetup(void);
 203:.\Generated_Source\PSoC5/cyfitter_cfg.c **** static void ClockSetup(void)
 204:.\Generated_Source\PSoC5/cyfitter_cfg.c **** {
 149              		.loc 1 204 0
 150              		.cfi_startproc
 151              		@ args = 0, pretend = 0, frame = 0
 152              		@ frame_needed = 0, uses_anonymous_args = 0
 153 0000 38B5     		push	{r3, r4, r5, lr}
 154              		.cfi_def_cfa_offset 16
 155              		.cfi_offset 3, -16
 156              		.cfi_offset 4, -12
 157              		.cfi_offset 5, -8
 158              		.cfi_offset 14, -4
 205:.\Generated_Source\PSoC5/cyfitter_cfg.c **** 	uint32 timeout;
 206:.\Generated_Source\PSoC5/cyfitter_cfg.c **** 	uint8 pllLock;
 207:.\Generated_Source\PSoC5/cyfitter_cfg.c **** 
 208:.\Generated_Source\PSoC5/cyfitter_cfg.c **** 
 209:.\Generated_Source\PSoC5/cyfitter_cfg.c **** 	/* Configure Digital Clocks based on settings from Clock DWR */
 210:.\Generated_Source\PSoC5/cyfitter_cfg.c **** 	CY_SET_XTND_REG16((void CYFAR *)(CYREG_CLKDIST_DCFG0_CFG0), 0x0031u);
 159              		.loc 1 210 0
 160 0002 3122     		movs	r2, #49
 161 0004 2B4B     		ldr	r3, .L17
 162 0006 1A80     		strh	r2, [r3]	@ movhi
 211:.\Generated_Source\PSoC5/cyfitter_cfg.c **** 	CY_SET_XTND_REG8((void CYFAR *)(CYREG_CLKDIST_DCFG0_CFG0 + 0x2u), 0x18u);
 163              		.loc 1 211 0
 164 0008 1823     		movs	r3, #24
 165 000a 2B49     		ldr	r1, .L17+4
 166 000c 0B70     		strb	r3, [r1]
 212:.\Generated_Source\PSoC5/cyfitter_cfg.c **** 	CY_SET_XTND_REG16((void CYFAR *)(CYREG_CLKDIST_DCFG1_CFG0), 0x0031u);
 167              		.loc 1 212 0
 168 000e 0231     		adds	r1, r1, #2
 169 0010 0A80     		strh	r2, [r1]	@ movhi
 213:.\Generated_Source\PSoC5/cyfitter_cfg.c **** 	CY_SET_XTND_REG8((void CYFAR *)(CYREG_CLKDIST_DCFG1_CFG0 + 0x2u), 0x18u);
 170              		.loc 1 213 0
 171 0012 2A4A     		ldr	r2, .L17+8
 172 0014 1370     		strb	r3, [r2]
 214:.\Generated_Source\PSoC5/cyfitter_cfg.c **** 	CY_SET_XTND_REG16((void CYFAR *)(CYREG_CLKDIST_DCFG2_CFG0), 0x0055u);
 173              		.loc 1 214 0
 174 0016 5521     		movs	r1, #85
 175 0018 0232     		adds	r2, r2, #2
 176 001a 1180     		strh	r1, [r2]	@ movhi
 215:.\Generated_Source\PSoC5/cyfitter_cfg.c **** 	CY_SET_XTND_REG8((void CYFAR *)(CYREG_CLKDIST_DCFG2_CFG0 + 0x2u), 0x18u);
 177              		.loc 1 215 0
 178 001c 0232     		adds	r2, r2, #2
 179 001e 1370     		strb	r3, [r2]
ARM GAS  C:\Users\LAIR\AppData\Local\Temp\cce7zI8c.s 			page 8


 216:.\Generated_Source\PSoC5/cyfitter_cfg.c **** 	CY_SET_XTND_REG16((void CYFAR *)(CYREG_CLKDIST_DCFG3_CFG0), 0x013Du);
 180              		.loc 1 216 0
 181 0020 40F23D11 		movw	r1, #317
 182 0024 0232     		adds	r2, r2, #2
 183 0026 1180     		strh	r1, [r2]	@ movhi
 217:.\Generated_Source\PSoC5/cyfitter_cfg.c **** 	CY_SET_XTND_REG8((void CYFAR *)(CYREG_CLKDIST_DCFG3_CFG0 + 0x2u), 0x18u);
 184              		.loc 1 217 0
 185 0028 0232     		adds	r2, r2, #2
 186 002a 1370     		strb	r3, [r2]
 218:.\Generated_Source\PSoC5/cyfitter_cfg.c **** 
 219:.\Generated_Source\PSoC5/cyfitter_cfg.c **** 	/* Configure ILO based on settings from Clock DWR */
 220:.\Generated_Source\PSoC5/cyfitter_cfg.c **** 	CY_SET_XTND_REG8((void CYFAR *)(CYREG_SLOWCLK_ILO_CR0), 0x06u);
 187              		.loc 1 220 0
 188 002c 0622     		movs	r2, #6
 189 002e 244B     		ldr	r3, .L17+12
 190 0030 1A70     		strb	r2, [r3]
 221:.\Generated_Source\PSoC5/cyfitter_cfg.c **** 
 222:.\Generated_Source\PSoC5/cyfitter_cfg.c **** 	/* Configure IMO based on settings from Clock DWR */
 223:.\Generated_Source\PSoC5/cyfitter_cfg.c **** 	CY_SET_XTND_REG8((void CYFAR *)(CYREG_FASTCLK_IMO_CR), 0x52u);
 191              		.loc 1 223 0
 192 0032 5222     		movs	r2, #82
 193 0034 A3F58073 		sub	r3, r3, #256
 194 0038 1A70     		strb	r2, [r3]
 224:.\Generated_Source\PSoC5/cyfitter_cfg.c **** 	CY_SET_XTND_REG8((void CYFAR *)(CYREG_IMO_TR1), (CY_GET_XTND_REG8((void CYFAR *)CYREG_FLSHID_CUST_
 195              		.loc 1 224 0
 196 003a 224B     		ldr	r3, .L17+16
 197 003c 1B78     		ldrb	r3, [r3]	@ zero_extendqisi2
 198 003e DBB2     		uxtb	r3, r3
 199 0040 214A     		ldr	r2, .L17+20
 200 0042 1370     		strb	r3, [r2]
 225:.\Generated_Source\PSoC5/cyfitter_cfg.c **** 
 226:.\Generated_Source\PSoC5/cyfitter_cfg.c **** 	/* Configure PLL based on settings from Clock DWR */
 227:.\Generated_Source\PSoC5/cyfitter_cfg.c **** 	CY_SET_XTND_REG16((void CYFAR *)(CYREG_FASTCLK_PLL_P), 0x0F35u);
 201              		.loc 1 227 0
 202 0044 40F63572 		movw	r2, #3893
 203 0048 204B     		ldr	r3, .L17+24
 204 004a 1A80     		strh	r2, [r3]	@ movhi
 228:.\Generated_Source\PSoC5/cyfitter_cfg.c **** 	CY_SET_XTND_REG16((void CYFAR *)(CYREG_FASTCLK_PLL_CFG0), 0x2251u);
 205              		.loc 1 228 0
 206 004c 42F25122 		movw	r2, #8785
 207 0050 023B     		subs	r3, r3, #2
 208 0052 1A80     		strh	r2, [r3]	@ movhi
 209              	.LVL15:
 229:.\Generated_Source\PSoC5/cyfitter_cfg.c **** 	/* Wait up to 250us for the PLL to lock */
 230:.\Generated_Source\PSoC5/cyfitter_cfg.c **** 	pllLock = 0u;
 210              		.loc 1 230 0
 211 0054 0024     		movs	r4, #0
 231:.\Generated_Source\PSoC5/cyfitter_cfg.c **** 	for (timeout = 250u / 10u; (timeout > 0u) && (pllLock != 0x03u); timeout--)
 212              		.loc 1 231 0
 213 0056 1925     		movs	r5, #25
 214 0058 0CE0     		b	.L12
 215              	.LVL16:
 216              	.L14:
 232:.\Generated_Source\PSoC5/cyfitter_cfg.c **** 	{ 
 233:.\Generated_Source\PSoC5/cyfitter_cfg.c **** 		pllLock = 0x03u & ((uint8)((uint8)pllLock << 1) | ((CY_GET_XTND_REG8((void CYFAR *)CYREG_FASTCLK_
 217              		.loc 1 233 0 discriminator 4
 218 005a 1D4B     		ldr	r3, .L17+28
ARM GAS  C:\Users\LAIR\AppData\Local\Temp\cce7zI8c.s 			page 9


 219 005c 1B78     		ldrb	r3, [r3]	@ zero_extendqisi2
 220 005e 03F00103 		and	r3, r3, #1
 221 0062 43EA4404 		orr	r4, r3, r4, lsl #1
 222              	.LVL17:
 223 0066 04F00304 		and	r4, r4, #3
 224              	.LVL18:
 234:.\Generated_Source\PSoC5/cyfitter_cfg.c **** 		CyDelayCycles(10u * 48u); /* Delay 10us based on 48MHz clock */
 225              		.loc 1 234 0 discriminator 4
 226 006a 4FF4F070 		mov	r0, #480
 227 006e FFF7FEFF 		bl	CyDelayCycles
 228              	.LVL19:
 231:.\Generated_Source\PSoC5/cyfitter_cfg.c **** 	for (timeout = 250u / 10u; (timeout > 0u) && (pllLock != 0x03u); timeout--)
 229              		.loc 1 231 0 discriminator 4
 230 0072 013D     		subs	r5, r5, #1
 231              	.LVL20:
 232              	.L12:
 231:.\Generated_Source\PSoC5/cyfitter_cfg.c **** 	for (timeout = 250u / 10u; (timeout > 0u) && (pllLock != 0x03u); timeout--)
 233              		.loc 1 231 0 is_stmt 0 discriminator 1
 234 0074 0DB1     		cbz	r5, .L13
 231:.\Generated_Source\PSoC5/cyfitter_cfg.c **** 	for (timeout = 250u / 10u; (timeout > 0u) && (pllLock != 0x03u); timeout--)
 235              		.loc 1 231 0 discriminator 3
 236 0076 032C     		cmp	r4, #3
 237 0078 EFD1     		bne	.L14
 238              	.L13:
 235:.\Generated_Source\PSoC5/cyfitter_cfg.c **** 	}
 236:.\Generated_Source\PSoC5/cyfitter_cfg.c **** 	/* If we ran out of time the PLL didn't lock so go to the error function */
 237:.\Generated_Source\PSoC5/cyfitter_cfg.c **** 	if (timeout == 0u)
 239              		.loc 1 237 0 is_stmt 1
 240 007a 15B9     		cbnz	r5, .L15
 238:.\Generated_Source\PSoC5/cyfitter_cfg.c **** 	{
 239:.\Generated_Source\PSoC5/cyfitter_cfg.c **** 		CyClockStartupError(CYCLOCKSTART_PLL_ERROR);
 241              		.loc 1 239 0
 242 007c 0320     		movs	r0, #3
 243 007e FFF7FEFF 		bl	CyClockStartupError
 244              	.LVL21:
 245              	.L15:
 240:.\Generated_Source\PSoC5/cyfitter_cfg.c **** 	}
 241:.\Generated_Source\PSoC5/cyfitter_cfg.c **** 
 242:.\Generated_Source\PSoC5/cyfitter_cfg.c **** 	/* Configure Bus/Master Clock based on settings from Clock DWR */
 243:.\Generated_Source\PSoC5/cyfitter_cfg.c **** 	CY_SET_XTND_REG16((void CYFAR *)(CYREG_CLKDIST_MSTR0), 0x0100u);
 246              		.loc 1 243 0
 247 0082 144B     		ldr	r3, .L17+32
 248 0084 4FF48072 		mov	r2, #256
 249 0088 1A80     		strh	r2, [r3]	@ movhi
 244:.\Generated_Source\PSoC5/cyfitter_cfg.c **** 	CY_SET_XTND_REG8((void CYFAR *)(CYREG_CLKDIST_MSTR0), 0x07u);
 250              		.loc 1 244 0
 251 008a 0722     		movs	r2, #7
 252 008c 1A70     		strb	r2, [r3]
 245:.\Generated_Source\PSoC5/cyfitter_cfg.c **** 	CY_SET_XTND_REG8((void CYFAR *)(CYREG_CLKDIST_BCFG0), 0x02u);
 253              		.loc 1 245 0
 254 008e 0222     		movs	r2, #2
 255 0090 1149     		ldr	r1, .L17+36
 256 0092 0A70     		strb	r2, [r1]
 246:.\Generated_Source\PSoC5/cyfitter_cfg.c **** 	CY_SET_XTND_REG8((void CYFAR *)(CYREG_CLKDIST_BCFG2), 0x08u);
 257              		.loc 1 246 0
 258 0094 0820     		movs	r0, #8
 259 0096 0231     		adds	r1, r1, #2
ARM GAS  C:\Users\LAIR\AppData\Local\Temp\cce7zI8c.s 			page 10


 260 0098 0870     		strb	r0, [r1]
 247:.\Generated_Source\PSoC5/cyfitter_cfg.c **** 	CY_SET_XTND_REG8((void CYFAR *)(CYREG_CLKDIST_MSTR0), 0x00u);
 261              		.loc 1 247 0
 262 009a 0021     		movs	r1, #0
 263 009c 1970     		strb	r1, [r3]
 248:.\Generated_Source\PSoC5/cyfitter_cfg.c **** 
 249:.\Generated_Source\PSoC5/cyfitter_cfg.c **** 	/* Configure USB Clock based on settings from Clock DWR */
 250:.\Generated_Source\PSoC5/cyfitter_cfg.c **** 	CY_SET_XTND_REG8((void CYFAR *)(CYREG_CLKDIST_UCFG), 0x00u);
 264              		.loc 1 250 0
 265 009e 0533     		adds	r3, r3, #5
 266 00a0 1970     		strb	r1, [r3]
 251:.\Generated_Source\PSoC5/cyfitter_cfg.c **** 	CY_SET_XTND_REG8((void CYFAR *)(CYREG_CLKDIST_LD), 0x02u);
 267              		.loc 1 251 0
 268 00a2 083B     		subs	r3, r3, #8
 269 00a4 1A70     		strb	r2, [r3]
 252:.\Generated_Source\PSoC5/cyfitter_cfg.c **** 
 253:.\Generated_Source\PSoC5/cyfitter_cfg.c **** 	CY_SET_XTND_REG8((void CYFAR *)(CYREG_PM_ACT_CFG2), ((CY_GET_XTND_REG8((void CYFAR *)CYREG_PM_ACT_
 270              		.loc 1 253 0
 271 00a6 0D4A     		ldr	r2, .L17+40
 272 00a8 1378     		ldrb	r3, [r2]	@ zero_extendqisi2
 273 00aa 43F00F03 		orr	r3, r3, #15
 274 00ae 1370     		strb	r3, [r2]
 275 00b0 38BD     		pop	{r3, r4, r5, pc}
 276              	.LVL22:
 277              	.L18:
 278 00b2 00BF     		.align	2
 279              	.L17:
 280 00b4 80400040 		.word	1073758336
 281 00b8 82400040 		.word	1073758338
 282 00bc 86400040 		.word	1073758342
 283 00c0 00430040 		.word	1073758976
 284 00c4 0F010049 		.word	1224737039
 285 00c8 A1460040 		.word	1073759905
 286 00cc 22420040 		.word	1073758754
 287 00d0 25420040 		.word	1073758757
 288 00d4 04400040 		.word	1073758212
 289 00d8 06400040 		.word	1073758214
 290 00dc A2430040 		.word	1073759138
 291              		.cfi_endproc
 292              	.LFE5:
 293              		.size	ClockSetup, .-ClockSetup
 294              		.section	.text.AnalogSetDefault,"ax",%progbits
 295              		.align	2
 296              		.thumb
 297              		.thumb_func
 298              		.type	AnalogSetDefault, %function
 299              	AnalogSetDefault:
 300              	.LFB6:
 254:.\Generated_Source\PSoC5/cyfitter_cfg.c **** }
 255:.\Generated_Source\PSoC5/cyfitter_cfg.c **** 
 256:.\Generated_Source\PSoC5/cyfitter_cfg.c **** 
 257:.\Generated_Source\PSoC5/cyfitter_cfg.c **** /* Analog API Functions */
 258:.\Generated_Source\PSoC5/cyfitter_cfg.c **** 
 259:.\Generated_Source\PSoC5/cyfitter_cfg.c **** 
 260:.\Generated_Source\PSoC5/cyfitter_cfg.c **** /*******************************************************************************
 261:.\Generated_Source\PSoC5/cyfitter_cfg.c **** * Function Name: AnalogSetDefault
 262:.\Generated_Source\PSoC5/cyfitter_cfg.c **** ********************************************************************************
ARM GAS  C:\Users\LAIR\AppData\Local\Temp\cce7zI8c.s 			page 11


 263:.\Generated_Source\PSoC5/cyfitter_cfg.c **** *
 264:.\Generated_Source\PSoC5/cyfitter_cfg.c **** * Summary:
 265:.\Generated_Source\PSoC5/cyfitter_cfg.c **** *  Sets up the analog portions of the chip to default values based on chip
 266:.\Generated_Source\PSoC5/cyfitter_cfg.c **** *  configuration options from the project.
 267:.\Generated_Source\PSoC5/cyfitter_cfg.c **** *
 268:.\Generated_Source\PSoC5/cyfitter_cfg.c **** * Parameters:
 269:.\Generated_Source\PSoC5/cyfitter_cfg.c **** *  void
 270:.\Generated_Source\PSoC5/cyfitter_cfg.c **** *
 271:.\Generated_Source\PSoC5/cyfitter_cfg.c **** * Return:
 272:.\Generated_Source\PSoC5/cyfitter_cfg.c **** *  void
 273:.\Generated_Source\PSoC5/cyfitter_cfg.c **** *
 274:.\Generated_Source\PSoC5/cyfitter_cfg.c **** *******************************************************************************/
 275:.\Generated_Source\PSoC5/cyfitter_cfg.c **** static void AnalogSetDefault(void);
 276:.\Generated_Source\PSoC5/cyfitter_cfg.c **** static void AnalogSetDefault(void)
 277:.\Generated_Source\PSoC5/cyfitter_cfg.c **** {
 301              		.loc 1 277 0
 302              		.cfi_startproc
 303              		@ args = 0, pretend = 0, frame = 0
 304              		@ frame_needed = 0, uses_anonymous_args = 0
 305 0000 F8B5     		push	{r3, r4, r5, r6, r7, lr}
 306              		.cfi_def_cfa_offset 24
 307              		.cfi_offset 3, -24
 308              		.cfi_offset 4, -20
 309              		.cfi_offset 5, -16
 310              		.cfi_offset 6, -12
 311              		.cfi_offset 7, -8
 312              		.cfi_offset 14, -4
 278:.\Generated_Source\PSoC5/cyfitter_cfg.c **** 	uint8 bg_xover_inl_trim = CY_GET_XTND_REG8((void CYFAR *)(CYREG_FLSHID_MFG_CFG_BG_XOVER_INL_TRIM +
 313              		.loc 1 278 0
 314 0002 224B     		ldr	r3, .L21
 315 0004 1B78     		ldrb	r3, [r3]	@ zero_extendqisi2
 316 0006 DBB2     		uxtb	r3, r3
 317              	.LVL23:
 279:.\Generated_Source\PSoC5/cyfitter_cfg.c **** 	uint8 cr4 = CY_GET_XTND_REG8((void CYFAR *)(CYREG_RESET_CR4));
 318              		.loc 1 279 0
 319 0008 214E     		ldr	r6, .L21+4
 320 000a 3478     		ldrb	r4, [r6]	@ zero_extendqisi2
 321 000c E4B2     		uxtb	r4, r4
 322              	.LVL24:
 280:.\Generated_Source\PSoC5/cyfitter_cfg.c **** 	uint8 cr5 = CY_GET_XTND_REG8((void CYFAR *)(CYREG_RESET_CR5));
 323              		.loc 1 280 0
 324 000e 214F     		ldr	r7, .L21+8
 325 0010 3D78     		ldrb	r5, [r7]	@ zero_extendqisi2
 326 0012 EDB2     		uxtb	r5, r5
 327              	.LVL25:
 281:.\Generated_Source\PSoC5/cyfitter_cfg.c **** 	CY_SET_XTND_REG8((void CYFAR *)(CYREG_BG_DFT0), (bg_xover_inl_trim & 0x07u));
 328              		.loc 1 281 0
 329 0014 03F00701 		and	r1, r3, #7
 330 0018 1F4A     		ldr	r2, .L21+12
 331 001a 1170     		strb	r1, [r2]
 282:.\Generated_Source\PSoC5/cyfitter_cfg.c **** 	CY_SET_XTND_REG8((void CYFAR *)(CYREG_BG_DFT1), ((bg_xover_inl_trim >> 4) & 0x0Fu));
 332              		.loc 1 282 0
 333 001c 1B09     		lsrs	r3, r3, #4
 334              	.LVL26:
 335 001e 0132     		adds	r2, r2, #1
 336 0020 1370     		strb	r3, [r2]
 283:.\Generated_Source\PSoC5/cyfitter_cfg.c **** 	/* Disable PRES while setting up SAR voltage reference */
ARM GAS  C:\Users\LAIR\AppData\Local\Temp\cce7zI8c.s 			page 12


 284:.\Generated_Source\PSoC5/cyfitter_cfg.c **** 	CY_SET_XTND_REG8((void CYFAR *)(CYREG_RESET_CR4), (cr4 | 0x03u));
 337              		.loc 1 284 0
 338 0022 44F00303 		orr	r3, r4, #3
 339 0026 3370     		strb	r3, [r6]
 285:.\Generated_Source\PSoC5/cyfitter_cfg.c **** 	CY_SET_XTND_REG8((void CYFAR *)(CYREG_RESET_CR5), (cr5 | 0x03u));
 340              		.loc 1 285 0
 341 0028 45F00303 		orr	r3, r5, #3
 342 002c 3B70     		strb	r3, [r7]
 286:.\Generated_Source\PSoC5/cyfitter_cfg.c **** 	CY_SET_XTND_REG8((void CYFAR *)CYREG_PRT0_AG, 0x12u);
 343              		.loc 1 286 0
 344 002e 1222     		movs	r2, #18
 345 0030 1A4B     		ldr	r3, .L21+16
 346 0032 1A70     		strb	r2, [r3]
 287:.\Generated_Source\PSoC5/cyfitter_cfg.c **** 	CY_SET_XTND_REG8((void CYFAR *)CYREG_PRT3_AG, 0x20u);
 347              		.loc 1 287 0
 348 0034 2023     		movs	r3, #32
 349 0036 1A4A     		ldr	r2, .L21+20
 350 0038 1370     		strb	r3, [r2]
 288:.\Generated_Source\PSoC5/cyfitter_cfg.c **** 	CY_SET_XTND_REG8((void CYFAR *)CYREG_SAR0_CSR1, 0x60u);
 351              		.loc 1 288 0
 352 003a 6022     		movs	r2, #96
 353 003c 1949     		ldr	r1, .L21+24
 354 003e 0A70     		strb	r2, [r1]
 289:.\Generated_Source\PSoC5/cyfitter_cfg.c **** 	CY_SET_XTND_REG8((void CYFAR *)CYREG_SAR1_CSR1, 0x60u);
 355              		.loc 1 289 0
 356 0040 0831     		adds	r1, r1, #8
 357 0042 0A70     		strb	r2, [r1]
 290:.\Generated_Source\PSoC5/cyfitter_cfg.c **** 	CY_SET_XTND_REG8((void CYFAR *)CYREG_DAC0_SW0, 0x02u);
 358              		.loc 1 290 0
 359 0044 0222     		movs	r2, #2
 360 0046 01F27711 		addw	r1, r1, #375
 361 004a 0A70     		strb	r2, [r1]
 291:.\Generated_Source\PSoC5/cyfitter_cfg.c **** 	CY_SET_XTND_REG8((void CYFAR *)CYREG_DAC1_SW0, 0x02u);
 362              		.loc 1 291 0
 363 004c 0831     		adds	r1, r1, #8
 364 004e 0A70     		strb	r2, [r1]
 292:.\Generated_Source\PSoC5/cyfitter_cfg.c **** 	CY_SET_XTND_REG8((void CYFAR *)CYREG_DAC2_SW0, 0x20u);
 365              		.loc 1 292 0
 366 0050 0831     		adds	r1, r1, #8
 367 0052 0B70     		strb	r3, [r1]
 293:.\Generated_Source\PSoC5/cyfitter_cfg.c **** 	CY_SET_XTND_REG8((void CYFAR *)CYREG_DSM0_SW4, 0x0Au);
 368              		.loc 1 293 0
 369 0054 0A20     		movs	r0, #10
 370 0056 7431     		adds	r1, r1, #116
 371 0058 0870     		strb	r0, [r1]
 294:.\Generated_Source\PSoC5/cyfitter_cfg.c **** 	CY_SET_XTND_REG8((void CYFAR *)CYREG_SAR0_SW0, 0x10u);
 372              		.loc 1 294 0
 373 005a 4FF0100E 		mov	lr, #16
 374 005e 1C31     		adds	r1, r1, #28
 375 0060 81F800E0 		strb	lr, [r1]
 295:.\Generated_Source\PSoC5/cyfitter_cfg.c **** 	CY_SET_XTND_REG8((void CYFAR *)CYREG_SAR0_SW3, 0x20u);
 376              		.loc 1 295 0
 377 0064 0331     		adds	r1, r1, #3
 378 0066 0B70     		strb	r3, [r1]
 296:.\Generated_Source\PSoC5/cyfitter_cfg.c **** 	CY_SET_XTND_REG8((void CYFAR *)CYREG_SAR1_SW0, 0x20u);
 379              		.loc 1 296 0
 380 0068 0531     		adds	r1, r1, #5
ARM GAS  C:\Users\LAIR\AppData\Local\Temp\cce7zI8c.s 			page 13


 381 006a 0B70     		strb	r3, [r1]
 297:.\Generated_Source\PSoC5/cyfitter_cfg.c **** 	CY_SET_XTND_REG8((void CYFAR *)CYREG_SAR1_SW3, 0x20u);
 382              		.loc 1 297 0
 383 006c 0331     		adds	r1, r1, #3
 384 006e 0B70     		strb	r3, [r1]
 298:.\Generated_Source\PSoC5/cyfitter_cfg.c **** 	CY_SET_XTND_REG8((void CYFAR *)CYREG_BUS_SW0, 0x02u);
 385              		.loc 1 298 0
 386 0070 0D4B     		ldr	r3, .L21+28
 387 0072 1A70     		strb	r2, [r3]
 299:.\Generated_Source\PSoC5/cyfitter_cfg.c **** 	CY_SET_XTND_REG8((void CYFAR *)CYREG_BUS_SW3, 0x04u);
 388              		.loc 1 299 0
 389 0074 0422     		movs	r2, #4
 390 0076 0333     		adds	r3, r3, #3
 391 0078 1A70     		strb	r2, [r3]
 300:.\Generated_Source\PSoC5/cyfitter_cfg.c **** 	CyDelayUs(10u); /* Allow vref to settle before re-enabling PRES */
 392              		.loc 1 300 0
 393 007a FFF7FEFF 		bl	CyDelayUs
 394              	.LVL27:
 301:.\Generated_Source\PSoC5/cyfitter_cfg.c **** 	CY_SET_XTND_REG8((void CYFAR *)(CYREG_RESET_CR5), (cr5));
 395              		.loc 1 301 0
 396 007e 3D70     		strb	r5, [r7]
 302:.\Generated_Source\PSoC5/cyfitter_cfg.c **** 	CY_SET_XTND_REG8((void CYFAR *)(CYREG_RESET_CR4), (cr4));
 397              		.loc 1 302 0
 398 0080 3470     		strb	r4, [r6]
 303:.\Generated_Source\PSoC5/cyfitter_cfg.c **** 	CY_SET_XTND_REG8((void CYFAR *)CYREG_PUMP_CR0, 0x44u);
 399              		.loc 1 303 0
 400 0082 4422     		movs	r2, #68
 401 0084 094B     		ldr	r3, .L21+32
 402 0086 1A70     		strb	r2, [r3]
 403 0088 F8BD     		pop	{r3, r4, r5, r6, r7, pc}
 404              	.LVL28:
 405              	.L22:
 406 008a 00BF     		.align	2
 407              	.L21:
 408 008c CF010049 		.word	1224737231
 409 0090 F8460040 		.word	1073759992
 410 0094 F9460040 		.word	1073759993
 411 0098 6E580040 		.word	1073764462
 412 009c 0D510040 		.word	1073762573
 413 00a0 3D510040 		.word	1073762621
 414 00a4 01590040 		.word	1073764609
 415 00a8 585B0040 		.word	1073765208
 416 00ac 76580040 		.word	1073764470
 417              		.cfi_endproc
 418              	.LFE6:
 419              		.size	AnalogSetDefault, .-AnalogSetDefault
 420              		.section	.text.CYCONFIGCPY,"ax",%progbits
 421              		.align	2
 422              		.thumb
 423              		.thumb_func
 424              		.type	CYCONFIGCPY, %function
 425              	CYCONFIGCPY:
 426              	.LFB1:
  70:.\Generated_Source\PSoC5/cyfitter_cfg.c **** 	(void)memcpy(dest, src, n);
 427              		.loc 1 70 0
 428              		.cfi_startproc
 429              		@ args = 0, pretend = 0, frame = 0
ARM GAS  C:\Users\LAIR\AppData\Local\Temp\cce7zI8c.s 			page 14


 430              		@ frame_needed = 0, uses_anonymous_args = 0
 431              	.LVL29:
 432 0000 08B5     		push	{r3, lr}
 433              		.cfi_def_cfa_offset 8
 434              		.cfi_offset 3, -8
 435              		.cfi_offset 14, -4
  71:.\Generated_Source\PSoC5/cyfitter_cfg.c **** }
 436              		.loc 1 71 0
 437 0002 FFF7FEFF 		bl	memcpy
 438              	.LVL30:
 439 0006 08BD     		pop	{r3, pc}
 440              		.cfi_endproc
 441              	.LFE1:
 442              		.size	CYCONFIGCPY, .-CYCONFIGCPY
 443              		.section	.text.SetAnalogRoutingPumps,"ax",%progbits
 444              		.align	2
 445              		.global	SetAnalogRoutingPumps
 446              		.thumb
 447              		.thumb_func
 448              		.type	SetAnalogRoutingPumps, %function
 449              	SetAnalogRoutingPumps:
 450              	.LFB7:
 304:.\Generated_Source\PSoC5/cyfitter_cfg.c **** }
 305:.\Generated_Source\PSoC5/cyfitter_cfg.c **** 
 306:.\Generated_Source\PSoC5/cyfitter_cfg.c **** 
 307:.\Generated_Source\PSoC5/cyfitter_cfg.c **** /*******************************************************************************
 308:.\Generated_Source\PSoC5/cyfitter_cfg.c **** * Function Name: SetAnalogRoutingPumps
 309:.\Generated_Source\PSoC5/cyfitter_cfg.c **** ********************************************************************************
 310:.\Generated_Source\PSoC5/cyfitter_cfg.c **** *
 311:.\Generated_Source\PSoC5/cyfitter_cfg.c **** * Summary:
 312:.\Generated_Source\PSoC5/cyfitter_cfg.c **** * Enables or disables the analog pumps feeding analog routing switches.
 313:.\Generated_Source\PSoC5/cyfitter_cfg.c **** * Intended to be called at startup, based on the Vdda system configuration;
 314:.\Generated_Source\PSoC5/cyfitter_cfg.c **** * may be called during operation when the user informs us that the Vdda voltage
 315:.\Generated_Source\PSoC5/cyfitter_cfg.c **** * crossed the pump threshold.
 316:.\Generated_Source\PSoC5/cyfitter_cfg.c **** *
 317:.\Generated_Source\PSoC5/cyfitter_cfg.c **** * Parameters:
 318:.\Generated_Source\PSoC5/cyfitter_cfg.c **** *  enabled - 1 to enable the pumps, 0 to disable the pumps
 319:.\Generated_Source\PSoC5/cyfitter_cfg.c **** *
 320:.\Generated_Source\PSoC5/cyfitter_cfg.c **** * Return:
 321:.\Generated_Source\PSoC5/cyfitter_cfg.c **** *  void
 322:.\Generated_Source\PSoC5/cyfitter_cfg.c **** *
 323:.\Generated_Source\PSoC5/cyfitter_cfg.c **** *******************************************************************************/
 324:.\Generated_Source\PSoC5/cyfitter_cfg.c **** void SetAnalogRoutingPumps(uint8 enabled)
 325:.\Generated_Source\PSoC5/cyfitter_cfg.c **** {
 451              		.loc 1 325 0
 452              		.cfi_startproc
 453              		@ args = 0, pretend = 0, frame = 0
 454              		@ frame_needed = 0, uses_anonymous_args = 0
 455              		@ link register save eliminated.
 456              	.LVL31:
 326:.\Generated_Source\PSoC5/cyfitter_cfg.c **** 	uint8 regValue = CY_GET_XTND_REG8((void CYFAR *)CYREG_PUMP_CR0);
 457              		.loc 1 326 0
 458 0000 054B     		ldr	r3, .L28
 459 0002 1B78     		ldrb	r3, [r3]	@ zero_extendqisi2
 460 0004 DBB2     		uxtb	r3, r3
 461              	.LVL32:
 327:.\Generated_Source\PSoC5/cyfitter_cfg.c **** 	if (enabled != 0u)
ARM GAS  C:\Users\LAIR\AppData\Local\Temp\cce7zI8c.s 			page 15


 462              		.loc 1 327 0
 463 0006 10B1     		cbz	r0, .L26
 328:.\Generated_Source\PSoC5/cyfitter_cfg.c **** 	{
 329:.\Generated_Source\PSoC5/cyfitter_cfg.c **** 		regValue |= 0x22u;
 464              		.loc 1 329 0
 465 0008 43F02203 		orr	r3, r3, #34
 466              	.LVL33:
 467 000c 01E0     		b	.L27
 468              	.L26:
 330:.\Generated_Source\PSoC5/cyfitter_cfg.c **** 	}
 331:.\Generated_Source\PSoC5/cyfitter_cfg.c **** 	else
 332:.\Generated_Source\PSoC5/cyfitter_cfg.c **** 	{
 333:.\Generated_Source\PSoC5/cyfitter_cfg.c **** 		regValue &= (uint8)~0x22u;
 469              		.loc 1 333 0
 470 000e 03F0DD03 		and	r3, r3, #221
 471              	.LVL34:
 472              	.L27:
 334:.\Generated_Source\PSoC5/cyfitter_cfg.c **** 	}
 335:.\Generated_Source\PSoC5/cyfitter_cfg.c **** 	CY_SET_XTND_REG8((void CYFAR *)CYREG_PUMP_CR0, regValue);
 473              		.loc 1 335 0
 474 0012 014A     		ldr	r2, .L28
 475 0014 1370     		strb	r3, [r2]
 476 0016 7047     		bx	lr
 477              	.L29:
 478              		.align	2
 479              	.L28:
 480 0018 76580040 		.word	1073764470
 481              		.cfi_endproc
 482              	.LFE7:
 483              		.size	SetAnalogRoutingPumps, .-SetAnalogRoutingPumps
 484              		.section	.text.cyfitter_cfg,"ax",%progbits
 485              		.align	2
 486              		.global	cyfitter_cfg
 487              		.thumb
 488              		.thumb_func
 489              		.type	cyfitter_cfg, %function
 490              	cyfitter_cfg:
 491              	.LFB8:
 336:.\Generated_Source\PSoC5/cyfitter_cfg.c **** }
 337:.\Generated_Source\PSoC5/cyfitter_cfg.c **** 
 338:.\Generated_Source\PSoC5/cyfitter_cfg.c **** #define CY_AMUX_UNUSED CYREG_BOOST_SR
 339:.\Generated_Source\PSoC5/cyfitter_cfg.c **** 
 340:.\Generated_Source\PSoC5/cyfitter_cfg.c **** 
 341:.\Generated_Source\PSoC5/cyfitter_cfg.c **** /*******************************************************************************
 342:.\Generated_Source\PSoC5/cyfitter_cfg.c **** * Function Name: cyfitter_cfg
 343:.\Generated_Source\PSoC5/cyfitter_cfg.c **** ********************************************************************************
 344:.\Generated_Source\PSoC5/cyfitter_cfg.c **** * Summary:
 345:.\Generated_Source\PSoC5/cyfitter_cfg.c **** *  This function is called by the start-up code for the selected device. It
 346:.\Generated_Source\PSoC5/cyfitter_cfg.c **** *  performs all of the necessary device configuration based on the design
 347:.\Generated_Source\PSoC5/cyfitter_cfg.c **** *  settings.  This includes settings from the Design Wide Resources (DWR) such
 348:.\Generated_Source\PSoC5/cyfitter_cfg.c **** *  as Clocks and Pins as well as any component configuration that is necessary.
 349:.\Generated_Source\PSoC5/cyfitter_cfg.c **** *
 350:.\Generated_Source\PSoC5/cyfitter_cfg.c **** * Parameters:  
 351:.\Generated_Source\PSoC5/cyfitter_cfg.c **** *   void
 352:.\Generated_Source\PSoC5/cyfitter_cfg.c **** *
 353:.\Generated_Source\PSoC5/cyfitter_cfg.c **** * Return:
 354:.\Generated_Source\PSoC5/cyfitter_cfg.c **** *   void
ARM GAS  C:\Users\LAIR\AppData\Local\Temp\cce7zI8c.s 			page 16


 355:.\Generated_Source\PSoC5/cyfitter_cfg.c **** *
 356:.\Generated_Source\PSoC5/cyfitter_cfg.c **** *******************************************************************************/
 357:.\Generated_Source\PSoC5/cyfitter_cfg.c **** 
 358:.\Generated_Source\PSoC5/cyfitter_cfg.c **** void cyfitter_cfg(void)
 359:.\Generated_Source\PSoC5/cyfitter_cfg.c **** {
 492              		.loc 1 359 0
 493              		.cfi_startproc
 494              		@ args = 0, pretend = 0, frame = 0
 495              		@ frame_needed = 0, uses_anonymous_args = 0
 496 0000 38B5     		push	{r3, r4, r5, lr}
 497              		.cfi_def_cfa_offset 16
 498              		.cfi_offset 3, -16
 499              		.cfi_offset 4, -12
 500              		.cfi_offset 5, -8
 501              		.cfi_offset 14, -4
 360:.\Generated_Source\PSoC5/cyfitter_cfg.c **** #ifdef CYGlobalIntDisable
 361:.\Generated_Source\PSoC5/cyfitter_cfg.c **** 	/* Disable interrupts by default. Let user enable if/when they want. */
 362:.\Generated_Source\PSoC5/cyfitter_cfg.c **** 	CYGlobalIntDisable
 502              		.loc 1 362 0
 503              	@ 362 ".\Generated_Source\PSoC5\cyfitter_cfg.c" 1
 504 0002 72B6     		CPSID   i
 505              	@ 0 "" 2
 363:.\Generated_Source\PSoC5/cyfitter_cfg.c **** #endif
 364:.\Generated_Source\PSoC5/cyfitter_cfg.c **** 
 365:.\Generated_Source\PSoC5/cyfitter_cfg.c **** 	/* Enable/Disable Debug functionality based on settings from System DWR */
 366:.\Generated_Source\PSoC5/cyfitter_cfg.c **** 	CY_SET_XTND_REG8((void CYFAR *)CYREG_MLOGIC_DEBUG, (CY_GET_XTND_REG8((void CYFAR *)CYREG_MLOGIC_DE
 506              		.loc 1 366 0
 507              		.thumb
 508 0004 3C4A     		ldr	r2, .L34
 509 0006 1378     		ldrb	r3, [r2]	@ zero_extendqisi2
 510 0008 43F00403 		orr	r3, r3, #4
 511 000c 1370     		strb	r3, [r2]
 512              	.LVL35:
 513              	.LBB3:
 367:.\Generated_Source\PSoC5/cyfitter_cfg.c **** 
 368:.\Generated_Source\PSoC5/cyfitter_cfg.c **** 	{
 369:.\Generated_Source\PSoC5/cyfitter_cfg.c **** 
 370:.\Generated_Source\PSoC5/cyfitter_cfg.c **** 		CYPACKED typedef struct {
 371:.\Generated_Source\PSoC5/cyfitter_cfg.c **** 			void CYFAR *address;
 372:.\Generated_Source\PSoC5/cyfitter_cfg.c **** 			uint16 size;
 373:.\Generated_Source\PSoC5/cyfitter_cfg.c **** 		} CYPACKED_ATTR cfg_memset_t;
 374:.\Generated_Source\PSoC5/cyfitter_cfg.c **** 
 375:.\Generated_Source\PSoC5/cyfitter_cfg.c **** 		static const cfg_memset_t CYCODE cfg_memset_list [] = {
 376:.\Generated_Source\PSoC5/cyfitter_cfg.c **** 			/* address, size */
 377:.\Generated_Source\PSoC5/cyfitter_cfg.c **** 			{(void CYFAR *)(CYREG_PRT1_DR), 16u},
 378:.\Generated_Source\PSoC5/cyfitter_cfg.c **** 			{(void CYFAR *)(CYREG_PRT4_DR), 48u},
 379:.\Generated_Source\PSoC5/cyfitter_cfg.c **** 			{(void CYFAR *)(CYDEV_UCFG_B0_P0_U0_BASE), 4096u},
 380:.\Generated_Source\PSoC5/cyfitter_cfg.c **** 			{(void CYFAR *)(CYDEV_UCFG_B1_P2_U0_BASE), 2048u},
 381:.\Generated_Source\PSoC5/cyfitter_cfg.c **** 			{(void CYFAR *)(CYDEV_UCFG_DSI0_BASE), 2560u},
 382:.\Generated_Source\PSoC5/cyfitter_cfg.c **** 			{(void CYFAR *)(CYDEV_UCFG_DSI12_BASE), 512u},
 383:.\Generated_Source\PSoC5/cyfitter_cfg.c **** 			{(void CYFAR *)(CYREG_BCTL0_MDCLK_EN), 32u},
 384:.\Generated_Source\PSoC5/cyfitter_cfg.c **** 		};
 385:.\Generated_Source\PSoC5/cyfitter_cfg.c **** 
 386:.\Generated_Source\PSoC5/cyfitter_cfg.c **** 		uint8 CYDATA i;
 387:.\Generated_Source\PSoC5/cyfitter_cfg.c **** 
 388:.\Generated_Source\PSoC5/cyfitter_cfg.c **** 		/* Zero out critical memory blocks before beginning configuration */
 389:.\Generated_Source\PSoC5/cyfitter_cfg.c **** 		for (i = 0u; i < (sizeof(cfg_memset_list)/sizeof(cfg_memset_list[0])); i++)
ARM GAS  C:\Users\LAIR\AppData\Local\Temp\cce7zI8c.s 			page 17


 514              		.loc 1 389 0
 515 000e 0024     		movs	r4, #0
 516 0010 0CE0     		b	.L31
 517              	.LVL36:
 518              	.L32:
 519              	.LBB4:
 390:.\Generated_Source\PSoC5/cyfitter_cfg.c **** 		{
 391:.\Generated_Source\PSoC5/cyfitter_cfg.c **** 			const cfg_memset_t CYCODE * CYDATA ms = &cfg_memset_list[i];
 392:.\Generated_Source\PSoC5/cyfitter_cfg.c **** 			CYMEMZERO(ms->address, (size_t)(uint32)(ms->size));
 520              		.loc 1 392 0 discriminator 3
 521 0012 3A49     		ldr	r1, .L34+4
 522 0014 6300     		lsls	r3, r4, #1
 523 0016 1A19     		adds	r2, r3, r4
 524 0018 5200     		lsls	r2, r2, #1
 525 001a 0A44     		add	r2, r2, r1
 526 001c 2344     		add	r3, r3, r4
 527 001e 5B00     		lsls	r3, r3, #1
 528 0020 C858     		ldr	r0, [r1, r3]	@ unaligned
 529 0022 9188     		ldrh	r1, [r2, #4]
 530 0024 FFF7FEFF 		bl	CYMEMZERO
 531              	.LVL37:
 532              	.LBE4:
 389:.\Generated_Source\PSoC5/cyfitter_cfg.c **** 		{
 533              		.loc 1 389 0 discriminator 3
 534 0028 0134     		adds	r4, r4, #1
 535              	.LVL38:
 536 002a E4B2     		uxtb	r4, r4
 537              	.LVL39:
 538              	.L31:
 389:.\Generated_Source\PSoC5/cyfitter_cfg.c **** 		{
 539              		.loc 1 389 0 is_stmt 0 discriminator 1
 540 002c 062C     		cmp	r4, #6
 541 002e F0D9     		bls	.L32
 393:.\Generated_Source\PSoC5/cyfitter_cfg.c **** 		}
 394:.\Generated_Source\PSoC5/cyfitter_cfg.c **** 
 395:.\Generated_Source\PSoC5/cyfitter_cfg.c **** 		cfg_write_bytes32(cy_cfg_addr_table, cy_cfg_data_table);
 542              		.loc 1 395 0 is_stmt 1
 543 0030 4FF09040 		mov	r0, #1207959552
 544 0034 3249     		ldr	r1, .L34+8
 545 0036 FFF7FEFF 		bl	cfg_write_bytes32
 546              	.LVL40:
 396:.\Generated_Source\PSoC5/cyfitter_cfg.c **** 
 397:.\Generated_Source\PSoC5/cyfitter_cfg.c **** 		/* Perform normal device configuration. Order is not critical for these items. */
 398:.\Generated_Source\PSoC5/cyfitter_cfg.c **** 		CYMEMZERO((void CYFAR *)(CYREG_PHUB_CFGMEM0_CFG0), 4u);
 547              		.loc 1 398 0
 548 003a 3248     		ldr	r0, .L34+12
 549 003c 0421     		movs	r1, #4
 550 003e FFF7FEFF 		bl	CYMEMZERO
 551              	.LVL41:
 399:.\Generated_Source\PSoC5/cyfitter_cfg.c **** 		CYMEMZERO((void CYFAR *)(CYREG_PHUB_CFGMEM1_CFG0), 4u);
 552              		.loc 1 399 0
 553 0042 3148     		ldr	r0, .L34+16
 554 0044 0421     		movs	r1, #4
 555 0046 FFF7FEFF 		bl	CYMEMZERO
 556              	.LVL42:
 400:.\Generated_Source\PSoC5/cyfitter_cfg.c **** 		CYMEMZERO((void CYFAR *)(CYREG_PHUB_CFGMEM2_CFG0), 4u);
 557              		.loc 1 400 0
ARM GAS  C:\Users\LAIR\AppData\Local\Temp\cce7zI8c.s 			page 18


 558 004a 3048     		ldr	r0, .L34+20
 559 004c 0421     		movs	r1, #4
 560 004e FFF7FEFF 		bl	CYMEMZERO
 561              	.LVL43:
 401:.\Generated_Source\PSoC5/cyfitter_cfg.c **** 		CYMEMZERO((void CYFAR *)(CYREG_PHUB_CFGMEM3_CFG0), 4u);
 562              		.loc 1 401 0
 563 0052 2F48     		ldr	r0, .L34+24
 564 0054 0421     		movs	r1, #4
 565 0056 FFF7FEFF 		bl	CYMEMZERO
 566              	.LVL44:
 402:.\Generated_Source\PSoC5/cyfitter_cfg.c **** 		CYMEMZERO((void CYFAR *)(CYREG_PHUB_CFGMEM4_CFG0), 4u);
 567              		.loc 1 402 0
 568 005a 2E48     		ldr	r0, .L34+28
 569 005c 0421     		movs	r1, #4
 570 005e FFF7FEFF 		bl	CYMEMZERO
 571              	.LVL45:
 403:.\Generated_Source\PSoC5/cyfitter_cfg.c **** 
 404:.\Generated_Source\PSoC5/cyfitter_cfg.c **** 		/* Enable digital routing */
 405:.\Generated_Source\PSoC5/cyfitter_cfg.c **** 		CY_SET_XTND_REG8((void CYFAR *)CYREG_BCTL0_BANK_CTL, CY_GET_XTND_REG8((void CYFAR *)CYREG_BCTL0_B
 572              		.loc 1 405 0
 573 0062 2D4A     		ldr	r2, .L34+32
 574 0064 1378     		ldrb	r3, [r2]	@ zero_extendqisi2
 575 0066 43F00203 		orr	r3, r3, #2
 576 006a 1370     		strb	r3, [r2]
 406:.\Generated_Source\PSoC5/cyfitter_cfg.c **** 		CY_SET_XTND_REG8((void CYFAR *)CYREG_BCTL1_BANK_CTL, CY_GET_XTND_REG8((void CYFAR *)CYREG_BCTL1_B
 577              		.loc 1 406 0
 578 006c 1032     		adds	r2, r2, #16
 579 006e 1378     		ldrb	r3, [r2]	@ zero_extendqisi2
 580 0070 43F00203 		orr	r3, r3, #2
 581 0074 1370     		strb	r3, [r2]
 407:.\Generated_Source\PSoC5/cyfitter_cfg.c **** 
 408:.\Generated_Source\PSoC5/cyfitter_cfg.c **** 		/* Enable UDB array */
 409:.\Generated_Source\PSoC5/cyfitter_cfg.c **** 		CY_SET_XTND_REG8((void CYFAR *)CYREG_PM_ACT_CFG0, CY_GET_XTND_REG8((void CYFAR *)CYREG_PM_ACT_CFG
 582              		.loc 1 409 0
 583 0076 294C     		ldr	r4, .L34+36
 584              	.LVL46:
 585 0078 2378     		ldrb	r3, [r4]	@ zero_extendqisi2
 586 007a 43F04003 		orr	r3, r3, #64
 587 007e 2370     		strb	r3, [r4]
 410:.\Generated_Source\PSoC5/cyfitter_cfg.c **** 		CY_SET_XTND_REG8((void CYFAR *)CYREG_PM_AVAIL_CR2, CY_GET_XTND_REG8((void CYFAR *)CYREG_PM_AVAIL_
 588              		.loc 1 410 0
 589 0080 A2F58632 		sub	r2, r2, #68608
 590 0084 513A     		subs	r2, r2, #81
 591 0086 1378     		ldrb	r3, [r2]	@ zero_extendqisi2
 592 0088 43F01003 		orr	r3, r3, #16
 593 008c 1370     		strb	r3, [r2]
 594              	.LBE3:
 411:.\Generated_Source\PSoC5/cyfitter_cfg.c **** 	}
 412:.\Generated_Source\PSoC5/cyfitter_cfg.c **** 
 413:.\Generated_Source\PSoC5/cyfitter_cfg.c **** 
 414:.\Generated_Source\PSoC5/cyfitter_cfg.c **** 	/* Perform second pass device configuration. These items must be configured in specific order afte
 415:.\Generated_Source\PSoC5/cyfitter_cfg.c **** 	CYCONFIGCPY((void CYFAR *)(CYREG_PRT0_DM0), (const void CYFAR *)(BS_IOPINS0_0_VAL), 8u);
 595              		.loc 1 415 0
 596 008e 2448     		ldr	r0, .L34+40
 597 0090 2449     		ldr	r1, .L34+44
 598 0092 0822     		movs	r2, #8
 599 0094 FFF7FEFF 		bl	CYCONFIGCPY
ARM GAS  C:\Users\LAIR\AppData\Local\Temp\cce7zI8c.s 			page 19


 600              	.LVL47:
 416:.\Generated_Source\PSoC5/cyfitter_cfg.c **** 	CYCONFIGCPY((void CYFAR *)(CYREG_PRT12_DR), (const void CYFAR *)(BS_IOPINS0_7_VAL), 10u);
 601              		.loc 1 416 0
 602 0098 2348     		ldr	r0, .L34+48
 603 009a 2449     		ldr	r1, .L34+52
 604 009c 0A22     		movs	r2, #10
 605 009e FFF7FEFF 		bl	CYCONFIGCPY
 606              	.LVL48:
 417:.\Generated_Source\PSoC5/cyfitter_cfg.c **** 	CYCONFIGCPY((void CYFAR *)(CYREG_PRT15_DR), (const void CYFAR *)(BS_IOPINS0_8_VAL), 10u);
 607              		.loc 1 417 0
 608 00a2 2348     		ldr	r0, .L34+56
 609 00a4 2349     		ldr	r1, .L34+60
 610 00a6 0A22     		movs	r2, #10
 611 00a8 FFF7FEFF 		bl	CYCONFIGCPY
 612              	.LVL49:
 418:.\Generated_Source\PSoC5/cyfitter_cfg.c **** 	CYCONFIGCPY((void CYFAR *)(CYREG_PRT2_DR), (const void CYFAR *)(BS_IOPINS0_2_VAL), 10u);
 613              		.loc 1 418 0
 614 00ac 2248     		ldr	r0, .L34+64
 615 00ae 2349     		ldr	r1, .L34+68
 616 00b0 0A22     		movs	r2, #10
 617 00b2 FFF7FEFF 		bl	CYCONFIGCPY
 618              	.LVL50:
 419:.\Generated_Source\PSoC5/cyfitter_cfg.c **** 	CYCONFIGCPY((void CYFAR *)(CYREG_PRT3_DM0), (const void CYFAR *)(BS_IOPINS0_3_VAL), 8u);
 619              		.loc 1 419 0
 620 00b6 2248     		ldr	r0, .L34+72
 621 00b8 2249     		ldr	r1, .L34+76
 622 00ba 0822     		movs	r2, #8
 623 00bc FFF7FEFF 		bl	CYCONFIGCPY
 624              	.LVL51:
 420:.\Generated_Source\PSoC5/cyfitter_cfg.c **** 	CY_SET_XTND_REG8((void CYFAR *)(CYREG_B0_P1_U1_CFG27), 0x84u);
 625              		.loc 1 420 0
 626 00c0 8422     		movs	r2, #132
 627 00c2 214B     		ldr	r3, .L34+80
 628 00c4 1A70     		strb	r2, [r3]
 421:.\Generated_Source\PSoC5/cyfitter_cfg.c **** 	CY_SET_XTND_REG8((void CYFAR *)(CYREG_B0_P2_U0_CFG27), 0x44u);
 629              		.loc 1 421 0
 630 00c6 4422     		movs	r2, #68
 631 00c8 03F5C073 		add	r3, r3, #384
 632 00cc 1A70     		strb	r2, [r3]
 422:.\Generated_Source\PSoC5/cyfitter_cfg.c **** 	/* Switch Boost to the precision bandgap reference from its internal reference */
 423:.\Generated_Source\PSoC5/cyfitter_cfg.c **** 	CY_SET_REG8((void CYXDATA *)CYREG_BOOST_CR2, (CY_GET_REG8((void CYXDATA *)CYREG_BOOST_CR2) | 0x08u
 633              		.loc 1 423 0
 634 00ce 1F4A     		ldr	r2, .L34+84
 635 00d0 1378     		ldrb	r3, [r2]	@ zero_extendqisi2
 636 00d2 43F00803 		orr	r3, r3, #8
 637 00d6 1370     		strb	r3, [r2]
 424:.\Generated_Source\PSoC5/cyfitter_cfg.c **** 
 425:.\Generated_Source\PSoC5/cyfitter_cfg.c **** 	/* Set Flash Cycles based on max possible frequency in case a glitch occurs during ClockSetup(). *
 426:.\Generated_Source\PSoC5/cyfitter_cfg.c **** 	CY_SET_XTND_REG8((void CYFAR *)(CYREG_CACHE_CC_CTL), (((CYDEV_INSTRUCT_CACHE_ENABLED) != 0) ? 0x61
 638              		.loc 1 426 0
 639 00d8 1D4D     		ldr	r5, .L34+88
 640 00da 6123     		movs	r3, #97
 641 00dc 2B70     		strb	r3, [r5]
 427:.\Generated_Source\PSoC5/cyfitter_cfg.c **** 	/* Setup clocks based on selections from Clock DWR */
 428:.\Generated_Source\PSoC5/cyfitter_cfg.c **** 	ClockSetup();
 642              		.loc 1 428 0
 643 00de FFF7FEFF 		bl	ClockSetup
ARM GAS  C:\Users\LAIR\AppData\Local\Temp\cce7zI8c.s 			page 20


 644              	.LVL52:
 429:.\Generated_Source\PSoC5/cyfitter_cfg.c **** 	/* Set Flash Cycles based on newly configured 26.50MHz Bus Clock. */
 430:.\Generated_Source\PSoC5/cyfitter_cfg.c **** 	CY_SET_XTND_REG8((void CYFAR *)(CYREG_CACHE_CC_CTL), (((CYDEV_INSTRUCT_CACHE_ENABLED) != 0) ? 0x81
 645              		.loc 1 430 0
 646 00e2 8123     		movs	r3, #129
 647 00e4 2B70     		strb	r3, [r5]
 431:.\Generated_Source\PSoC5/cyfitter_cfg.c **** 
 432:.\Generated_Source\PSoC5/cyfitter_cfg.c **** 	/* Perform basic analog initialization to defaults */
 433:.\Generated_Source\PSoC5/cyfitter_cfg.c **** 	AnalogSetDefault();
 648              		.loc 1 433 0
 649 00e6 FFF7FEFF 		bl	AnalogSetDefault
 650              	.LVL53:
 434:.\Generated_Source\PSoC5/cyfitter_cfg.c **** 
 435:.\Generated_Source\PSoC5/cyfitter_cfg.c **** 	/* Configure alternate active mode */
 436:.\Generated_Source\PSoC5/cyfitter_cfg.c **** 	CYCONFIGCPY((void CYFAR *)CYDEV_PM_STBY_BASE, (const void CYFAR *)CYDEV_PM_ACT_BASE, 14u);
 651              		.loc 1 436 0
 652 00ea 1A48     		ldr	r0, .L34+92
 653 00ec 2146     		mov	r1, r4
 654 00ee 0E22     		movs	r2, #14
 655 00f0 FFF7FEFF 		bl	CYCONFIGCPY
 656              	.LVL54:
 657 00f4 38BD     		pop	{r3, r4, r5, pc}
 658              	.L35:
 659 00f6 00BF     		.align	2
 660              	.L34:
 661 00f8 E8460040 		.word	1073759976
 662 00fc 00000000 		.word	.LANCHOR0
 663 0100 90000048 		.word	1207959696
 664 0104 00760040 		.word	1073772032
 665 0108 08760040 		.word	1073772040
 666 010c 10760040 		.word	1073772048
 667 0110 18760040 		.word	1073772056
 668 0114 20760040 		.word	1073772064
 669 0118 03500140 		.word	1073827843
 670 011c A0430040 		.word	1073759136
 671 0120 02510040 		.word	1073762562
 672 0124 E8080048 		.word	1207961832
 673 0128 C0510040 		.word	1073762752
 674 012c F0080048 		.word	1207961840
 675 0130 F0510040 		.word	1073762800
 676 0134 FC080048 		.word	1207961852
 677 0138 20510040 		.word	1073762592
 678 013c 08090048 		.word	1207961864
 679 0140 32510040 		.word	1073762610
 680 0144 14090048 		.word	1207961876
 681 0148 DB020140 		.word	1073808091
 682 014c 22430040 		.word	1073759010
 683 0150 00480040 		.word	1073760256
 684 0154 B0430040 		.word	1073759152
 685              		.cfi_endproc
 686              	.LFE8:
 687              		.size	cyfitter_cfg, .-cyfitter_cfg
 688              		.section	.rodata
 689              		.align	2
 690              		.set	.LANCHOR0,. + 0
 691              		.type	cfg_memset_list.4882, %object
 692              		.size	cfg_memset_list.4882, 42
ARM GAS  C:\Users\LAIR\AppData\Local\Temp\cce7zI8c.s 			page 21


 693              	cfg_memset_list.4882:
 694 0000 10510040 		.word	1073762576
 695 0004 1000     		.short	16
 696 0006 40510040 		.4byte	1073762624
 697 000a 3000     		.short	48
 698 000c 00000140 		.word	1073807360
 699 0010 0010     		.short	4096
 700 0012 00140140 		.4byte	1073812480
 701 0016 0008     		.short	2048
 702 0018 00400140 		.word	1073823744
 703 001c 000A     		.short	2560
 704 001e 004C0140 		.4byte	1073826816
 705 0022 0002     		.short	512
 706 0024 00500140 		.word	1073827840
 707 0028 2000     		.short	32
 708 002a 0000     		.text
 709              	.Letext0:
 710              		.file 2 "c:\\program files (x86)\\cypress\\psoc creator\\3.3\\psoc creator\\import\\gnu\\arm\\4.9.
 711              		.file 3 ".\\Generated_Source\\PSoC5\\cytypes.h"
 712              		.file 4 ".\\Generated_Source\\PSoC5\\CyLib.h"