ARM GAS  C:\Users\BRYANO~1\AppData\Local\Temp\ccF6ahii.s 			page 1


   1              		.syntax unified
   2              		.cpu cortex-m3
   3              		.fpu softvfp
   4              		.eabi_attribute 20, 1
   5              		.eabi_attribute 21, 1
   6              		.eabi_attribute 23, 3
   7              		.eabi_attribute 24, 1
   8              		.eabi_attribute 25, 1
   9              		.eabi_attribute 26, 1
  10              		.eabi_attribute 30, 1
  11              		.eabi_attribute 34, 1
  12              		.eabi_attribute 18, 4
  13              		.thumb
  14              		.file	"DVDAC_PM.c"
  15              		.text
  16              	.Ltext0:
  17              		.cfi_sections	.debug_frame
  18              		.section	.text.DVDAC_SaveConfig,"ax",%progbits
  19              		.align	2
  20              		.global	DVDAC_SaveConfig
  21              		.thumb
  22              		.thumb_func
  23              		.type	DVDAC_SaveConfig, %function
  24              	DVDAC_SaveConfig:
  25              	.LFB2:
  26              		.file 1 ".\\Generated_Source\\PSoC5\\DVDAC_PM.c"
   1:.\Generated_Source\PSoC5/DVDAC_PM.c **** /*******************************************************************************
   2:.\Generated_Source\PSoC5/DVDAC_PM.c **** * File Name: DVDAC_PM.c
   3:.\Generated_Source\PSoC5/DVDAC_PM.c **** * Version 2.10
   4:.\Generated_Source\PSoC5/DVDAC_PM.c **** *
   5:.\Generated_Source\PSoC5/DVDAC_PM.c **** * Description:
   6:.\Generated_Source\PSoC5/DVDAC_PM.c **** *  This file provides the power management source code to the API for the
   7:.\Generated_Source\PSoC5/DVDAC_PM.c **** *  DVDAC component.
   8:.\Generated_Source\PSoC5/DVDAC_PM.c **** *
   9:.\Generated_Source\PSoC5/DVDAC_PM.c **** *
  10:.\Generated_Source\PSoC5/DVDAC_PM.c **** ********************************************************************************
  11:.\Generated_Source\PSoC5/DVDAC_PM.c **** * Copyright 2013, Cypress Semiconductor Corporation. All rights reserved.
  12:.\Generated_Source\PSoC5/DVDAC_PM.c **** * You may use this file only in accordance with the license, terms, conditions,
  13:.\Generated_Source\PSoC5/DVDAC_PM.c **** * disclaimers, and limitations in the end user license agreement accompanying
  14:.\Generated_Source\PSoC5/DVDAC_PM.c **** * the software package with which this file was provided.
  15:.\Generated_Source\PSoC5/DVDAC_PM.c **** *******************************************************************************/
  16:.\Generated_Source\PSoC5/DVDAC_PM.c **** 
  17:.\Generated_Source\PSoC5/DVDAC_PM.c **** #include "DVDAC.h"
  18:.\Generated_Source\PSoC5/DVDAC_PM.c **** #include "DVDAC_VDAC8.h"
  19:.\Generated_Source\PSoC5/DVDAC_PM.c **** 
  20:.\Generated_Source\PSoC5/DVDAC_PM.c **** static DVDAC_BACKUP_STRUCT  DVDAC_backup;
  21:.\Generated_Source\PSoC5/DVDAC_PM.c **** 
  22:.\Generated_Source\PSoC5/DVDAC_PM.c **** 
  23:.\Generated_Source\PSoC5/DVDAC_PM.c **** /*******************************************************************************
  24:.\Generated_Source\PSoC5/DVDAC_PM.c **** * Function Name: DVDAC_Sleep
  25:.\Generated_Source\PSoC5/DVDAC_PM.c **** ********************************************************************************
  26:.\Generated_Source\PSoC5/DVDAC_PM.c **** *
  27:.\Generated_Source\PSoC5/DVDAC_PM.c **** * Summary:
  28:.\Generated_Source\PSoC5/DVDAC_PM.c **** *  This is the preferred API to prepare the component for sleep. The
  29:.\Generated_Source\PSoC5/DVDAC_PM.c **** *  DVDAC_Sleep() API saves the current component state. Then it
  30:.\Generated_Source\PSoC5/DVDAC_PM.c **** *  calls the DVDAC_Stop() function and calls
  31:.\Generated_Source\PSoC5/DVDAC_PM.c **** *  DVDAC_SaveConfig() to save the hardware configuration. Call the
ARM GAS  C:\Users\BRYANO~1\AppData\Local\Temp\ccF6ahii.s 			page 2


  32:.\Generated_Source\PSoC5/DVDAC_PM.c **** *  DVDAC_Sleep() function before calling the CyPmSleep() or the
  33:.\Generated_Source\PSoC5/DVDAC_PM.c **** *  CyPmHibernate() function.
  34:.\Generated_Source\PSoC5/DVDAC_PM.c **** *
  35:.\Generated_Source\PSoC5/DVDAC_PM.c **** * Parameters:
  36:.\Generated_Source\PSoC5/DVDAC_PM.c **** *  None
  37:.\Generated_Source\PSoC5/DVDAC_PM.c **** *
  38:.\Generated_Source\PSoC5/DVDAC_PM.c **** * Return:
  39:.\Generated_Source\PSoC5/DVDAC_PM.c **** *  None
  40:.\Generated_Source\PSoC5/DVDAC_PM.c **** *
  41:.\Generated_Source\PSoC5/DVDAC_PM.c **** * Global variables:
  42:.\Generated_Source\PSoC5/DVDAC_PM.c **** *  None
  43:.\Generated_Source\PSoC5/DVDAC_PM.c **** *
  44:.\Generated_Source\PSoC5/DVDAC_PM.c **** *******************************************************************************/
  45:.\Generated_Source\PSoC5/DVDAC_PM.c **** void DVDAC_Sleep(void) 
  46:.\Generated_Source\PSoC5/DVDAC_PM.c **** {
  47:.\Generated_Source\PSoC5/DVDAC_PM.c ****     /* Save VDAC8's enable state */
  48:.\Generated_Source\PSoC5/DVDAC_PM.c ****     if(0u != (DVDAC_VDAC8_PWRMGR & DVDAC_VDAC8_ACT_PWR_EN))
  49:.\Generated_Source\PSoC5/DVDAC_PM.c ****     {
  50:.\Generated_Source\PSoC5/DVDAC_PM.c ****         DVDAC_backup.enableState = 1u;
  51:.\Generated_Source\PSoC5/DVDAC_PM.c ****     }
  52:.\Generated_Source\PSoC5/DVDAC_PM.c ****     else
  53:.\Generated_Source\PSoC5/DVDAC_PM.c ****     {
  54:.\Generated_Source\PSoC5/DVDAC_PM.c ****         DVDAC_backup.enableState = 0u;
  55:.\Generated_Source\PSoC5/DVDAC_PM.c ****     }
  56:.\Generated_Source\PSoC5/DVDAC_PM.c **** 
  57:.\Generated_Source\PSoC5/DVDAC_PM.c ****     DVDAC_Stop();
  58:.\Generated_Source\PSoC5/DVDAC_PM.c ****     DVDAC_SaveConfig();
  59:.\Generated_Source\PSoC5/DVDAC_PM.c **** }
  60:.\Generated_Source\PSoC5/DVDAC_PM.c **** 
  61:.\Generated_Source\PSoC5/DVDAC_PM.c **** 
  62:.\Generated_Source\PSoC5/DVDAC_PM.c **** /*******************************************************************************
  63:.\Generated_Source\PSoC5/DVDAC_PM.c **** * Function Name: DVDAC_Wakeup
  64:.\Generated_Source\PSoC5/DVDAC_PM.c **** ********************************************************************************
  65:.\Generated_Source\PSoC5/DVDAC_PM.c **** *
  66:.\Generated_Source\PSoC5/DVDAC_PM.c **** * Summary:
  67:.\Generated_Source\PSoC5/DVDAC_PM.c **** *  This is the preferred API to restore the component to the state when
  68:.\Generated_Source\PSoC5/DVDAC_PM.c **** *  DVDAC_Sleep() was called. The DVDAC_Wakeup() function
  69:.\Generated_Source\PSoC5/DVDAC_PM.c **** *  calls the DVDAC_RestoreConfig() function to restore the
  70:.\Generated_Source\PSoC5/DVDAC_PM.c **** *  configuration. If the component was enabled before the
  71:.\Generated_Source\PSoC5/DVDAC_PM.c **** *  DVDAC_Sleep() function was called, the DVDAC_Wakeup() function
  72:.\Generated_Source\PSoC5/DVDAC_PM.c **** *  will also re-enable the component.
  73:.\Generated_Source\PSoC5/DVDAC_PM.c **** *
  74:.\Generated_Source\PSoC5/DVDAC_PM.c **** * Parameters:
  75:.\Generated_Source\PSoC5/DVDAC_PM.c **** *  None
  76:.\Generated_Source\PSoC5/DVDAC_PM.c **** *
  77:.\Generated_Source\PSoC5/DVDAC_PM.c **** * Return:
  78:.\Generated_Source\PSoC5/DVDAC_PM.c **** *  None
  79:.\Generated_Source\PSoC5/DVDAC_PM.c **** *
  80:.\Generated_Source\PSoC5/DVDAC_PM.c **** * Global variables:
  81:.\Generated_Source\PSoC5/DVDAC_PM.c **** *  None
  82:.\Generated_Source\PSoC5/DVDAC_PM.c **** *
  83:.\Generated_Source\PSoC5/DVDAC_PM.c **** *******************************************************************************/
  84:.\Generated_Source\PSoC5/DVDAC_PM.c **** void DVDAC_Wakeup(void) 
  85:.\Generated_Source\PSoC5/DVDAC_PM.c **** {
  86:.\Generated_Source\PSoC5/DVDAC_PM.c ****     DVDAC_RestoreConfig();
  87:.\Generated_Source\PSoC5/DVDAC_PM.c **** 
  88:.\Generated_Source\PSoC5/DVDAC_PM.c ****     if(DVDAC_backup.enableState == 1u)
ARM GAS  C:\Users\BRYANO~1\AppData\Local\Temp\ccF6ahii.s 			page 3


  89:.\Generated_Source\PSoC5/DVDAC_PM.c ****     {
  90:.\Generated_Source\PSoC5/DVDAC_PM.c ****         DVDAC_Enable();
  91:.\Generated_Source\PSoC5/DVDAC_PM.c ****     }
  92:.\Generated_Source\PSoC5/DVDAC_PM.c **** }
  93:.\Generated_Source\PSoC5/DVDAC_PM.c **** 
  94:.\Generated_Source\PSoC5/DVDAC_PM.c **** 
  95:.\Generated_Source\PSoC5/DVDAC_PM.c **** /*******************************************************************************
  96:.\Generated_Source\PSoC5/DVDAC_PM.c **** * Function Name: DVDAC_SaveConfig
  97:.\Generated_Source\PSoC5/DVDAC_PM.c **** ********************************************************************************
  98:.\Generated_Source\PSoC5/DVDAC_PM.c **** *
  99:.\Generated_Source\PSoC5/DVDAC_PM.c **** * Summary:
 100:.\Generated_Source\PSoC5/DVDAC_PM.c **** *  This function saves the component configuration and non-retention registers.
 101:.\Generated_Source\PSoC5/DVDAC_PM.c **** *  This function is called by the DVDAC_Sleep() function.
 102:.\Generated_Source\PSoC5/DVDAC_PM.c **** *
 103:.\Generated_Source\PSoC5/DVDAC_PM.c **** * Parameters:
 104:.\Generated_Source\PSoC5/DVDAC_PM.c **** *  None
 105:.\Generated_Source\PSoC5/DVDAC_PM.c **** *
 106:.\Generated_Source\PSoC5/DVDAC_PM.c **** * Return:
 107:.\Generated_Source\PSoC5/DVDAC_PM.c **** *  None
 108:.\Generated_Source\PSoC5/DVDAC_PM.c **** *
 109:.\Generated_Source\PSoC5/DVDAC_PM.c **** * Global variables:
 110:.\Generated_Source\PSoC5/DVDAC_PM.c **** *  None
 111:.\Generated_Source\PSoC5/DVDAC_PM.c **** *
 112:.\Generated_Source\PSoC5/DVDAC_PM.c **** *******************************************************************************/
 113:.\Generated_Source\PSoC5/DVDAC_PM.c **** void DVDAC_SaveConfig(void) 
 114:.\Generated_Source\PSoC5/DVDAC_PM.c **** {
  27              		.loc 1 114 0
  28              		.cfi_startproc
  29              		@ args = 0, pretend = 0, frame = 0
  30              		@ frame_needed = 0, uses_anonymous_args = 0
  31 0000 08B5     		push	{r3, lr}
  32              		.cfi_def_cfa_offset 8
  33              		.cfi_offset 3, -8
  34              		.cfi_offset 14, -4
 115:.\Generated_Source\PSoC5/DVDAC_PM.c ****     DVDAC_VDAC8_SaveConfig();
  35              		.loc 1 115 0
  36 0002 FFF7FEFF 		bl	DVDAC_VDAC8_SaveConfig
  37              	.LVL0:
  38 0006 08BD     		pop	{r3, pc}
  39              		.cfi_endproc
  40              	.LFE2:
  41              		.size	DVDAC_SaveConfig, .-DVDAC_SaveConfig
  42              		.section	.text.DVDAC_Sleep,"ax",%progbits
  43              		.align	2
  44              		.global	DVDAC_Sleep
  45              		.thumb
  46              		.thumb_func
  47              		.type	DVDAC_Sleep, %function
  48              	DVDAC_Sleep:
  49              	.LFB0:
  46:.\Generated_Source\PSoC5/DVDAC_PM.c ****     /* Save VDAC8's enable state */
  50              		.loc 1 46 0
  51              		.cfi_startproc
  52              		@ args = 0, pretend = 0, frame = 0
  53              		@ frame_needed = 0, uses_anonymous_args = 0
  54 0000 08B5     		push	{r3, lr}
  55              		.cfi_def_cfa_offset 8
ARM GAS  C:\Users\BRYANO~1\AppData\Local\Temp\ccF6ahii.s 			page 4


  56              		.cfi_offset 3, -8
  57              		.cfi_offset 14, -4
  48:.\Generated_Source\PSoC5/DVDAC_PM.c ****     {
  58              		.loc 1 48 0
  59 0002 084B     		ldr	r3, .L7
  60 0004 1B78     		ldrb	r3, [r3]	@ zero_extendqisi2
  61 0006 13F0040F 		tst	r3, #4
  62 000a 03D0     		beq	.L4
  50:.\Generated_Source\PSoC5/DVDAC_PM.c ****     }
  63              		.loc 1 50 0
  64 000c 0122     		movs	r2, #1
  65 000e 064B     		ldr	r3, .L7+4
  66 0010 1A70     		strb	r2, [r3]
  67 0012 02E0     		b	.L5
  68              	.L4:
  54:.\Generated_Source\PSoC5/DVDAC_PM.c ****     }
  69              		.loc 1 54 0
  70 0014 0022     		movs	r2, #0
  71 0016 044B     		ldr	r3, .L7+4
  72 0018 1A70     		strb	r2, [r3]
  73              	.L5:
  57:.\Generated_Source\PSoC5/DVDAC_PM.c ****     DVDAC_SaveConfig();
  74              		.loc 1 57 0
  75 001a FFF7FEFF 		bl	DVDAC_Stop
  76              	.LVL1:
  58:.\Generated_Source\PSoC5/DVDAC_PM.c **** }
  77              		.loc 1 58 0
  78 001e FFF7FEFF 		bl	DVDAC_SaveConfig
  79              	.LVL2:
  80 0022 08BD     		pop	{r3, pc}
  81              	.L8:
  82              		.align	2
  83              	.L7:
  84 0024 A8430040 		.word	1073759144
  85 0028 00000000 		.word	.LANCHOR0
  86              		.cfi_endproc
  87              	.LFE0:
  88              		.size	DVDAC_Sleep, .-DVDAC_Sleep
  89              		.section	.text.DVDAC_RestoreConfig,"ax",%progbits
  90              		.align	2
  91              		.global	DVDAC_RestoreConfig
  92              		.thumb
  93              		.thumb_func
  94              		.type	DVDAC_RestoreConfig, %function
  95              	DVDAC_RestoreConfig:
  96              	.LFB3:
 116:.\Generated_Source\PSoC5/DVDAC_PM.c **** }
 117:.\Generated_Source\PSoC5/DVDAC_PM.c **** 
 118:.\Generated_Source\PSoC5/DVDAC_PM.c **** 
 119:.\Generated_Source\PSoC5/DVDAC_PM.c **** /*******************************************************************************
 120:.\Generated_Source\PSoC5/DVDAC_PM.c **** * Function Name: DVDAC_RestoreConfig
 121:.\Generated_Source\PSoC5/DVDAC_PM.c **** ********************************************************************************
 122:.\Generated_Source\PSoC5/DVDAC_PM.c **** *
 123:.\Generated_Source\PSoC5/DVDAC_PM.c **** * Summary:
 124:.\Generated_Source\PSoC5/DVDAC_PM.c **** *  This function restores the component configuration and non-retention
 125:.\Generated_Source\PSoC5/DVDAC_PM.c **** *  registers. This function is called by the DVDAC_Wakeup() function.
 126:.\Generated_Source\PSoC5/DVDAC_PM.c **** *
ARM GAS  C:\Users\BRYANO~1\AppData\Local\Temp\ccF6ahii.s 			page 5


 127:.\Generated_Source\PSoC5/DVDAC_PM.c **** * Parameters:
 128:.\Generated_Source\PSoC5/DVDAC_PM.c **** *  None
 129:.\Generated_Source\PSoC5/DVDAC_PM.c **** *
 130:.\Generated_Source\PSoC5/DVDAC_PM.c **** * Return:
 131:.\Generated_Source\PSoC5/DVDAC_PM.c **** *  None
 132:.\Generated_Source\PSoC5/DVDAC_PM.c **** *
 133:.\Generated_Source\PSoC5/DVDAC_PM.c **** * Global variables:
 134:.\Generated_Source\PSoC5/DVDAC_PM.c **** *  None
 135:.\Generated_Source\PSoC5/DVDAC_PM.c **** *
 136:.\Generated_Source\PSoC5/DVDAC_PM.c **** *******************************************************************************/
 137:.\Generated_Source\PSoC5/DVDAC_PM.c **** void DVDAC_RestoreConfig(void) 
 138:.\Generated_Source\PSoC5/DVDAC_PM.c **** {
  97              		.loc 1 138 0
  98              		.cfi_startproc
  99              		@ args = 0, pretend = 0, frame = 0
 100              		@ frame_needed = 0, uses_anonymous_args = 0
 101 0000 08B5     		push	{r3, lr}
 102              		.cfi_def_cfa_offset 8
 103              		.cfi_offset 3, -8
 104              		.cfi_offset 14, -4
 139:.\Generated_Source\PSoC5/DVDAC_PM.c ****     DVDAC_VDAC8_RestoreConfig();
 105              		.loc 1 139 0
 106 0002 FFF7FEFF 		bl	DVDAC_VDAC8_RestoreConfig
 107              	.LVL3:
 108 0006 08BD     		pop	{r3, pc}
 109              		.cfi_endproc
 110              	.LFE3:
 111              		.size	DVDAC_RestoreConfig, .-DVDAC_RestoreConfig
 112              		.section	.text.DVDAC_Wakeup,"ax",%progbits
 113              		.align	2
 114              		.global	DVDAC_Wakeup
 115              		.thumb
 116              		.thumb_func
 117              		.type	DVDAC_Wakeup, %function
 118              	DVDAC_Wakeup:
 119              	.LFB1:
  85:.\Generated_Source\PSoC5/DVDAC_PM.c ****     DVDAC_RestoreConfig();
 120              		.loc 1 85 0
 121              		.cfi_startproc
 122              		@ args = 0, pretend = 0, frame = 0
 123              		@ frame_needed = 0, uses_anonymous_args = 0
 124 0000 08B5     		push	{r3, lr}
 125              		.cfi_def_cfa_offset 8
 126              		.cfi_offset 3, -8
 127              		.cfi_offset 14, -4
  86:.\Generated_Source\PSoC5/DVDAC_PM.c **** 
 128              		.loc 1 86 0
 129 0002 FFF7FEFF 		bl	DVDAC_RestoreConfig
 130              	.LVL4:
  88:.\Generated_Source\PSoC5/DVDAC_PM.c ****     {
 131              		.loc 1 88 0
 132 0006 034B     		ldr	r3, .L14
 133 0008 1B78     		ldrb	r3, [r3]	@ zero_extendqisi2
 134 000a 012B     		cmp	r3, #1
 135 000c 01D1     		bne	.L11
  90:.\Generated_Source\PSoC5/DVDAC_PM.c ****     }
 136              		.loc 1 90 0
ARM GAS  C:\Users\BRYANO~1\AppData\Local\Temp\ccF6ahii.s 			page 6


 137 000e FFF7FEFF 		bl	DVDAC_Enable
 138              	.LVL5:
 139              	.L11:
 140 0012 08BD     		pop	{r3, pc}
 141              	.L15:
 142              		.align	2
 143              	.L14:
 144 0014 00000000 		.word	.LANCHOR0
 145              		.cfi_endproc
 146              	.LFE1:
 147              		.size	DVDAC_Wakeup, .-DVDAC_Wakeup
 148              		.bss
 149              		.align	2
 150              		.set	.LANCHOR0,. + 0
 151              		.type	DVDAC_backup, %object
 152              		.size	DVDAC_backup, 1
 153              	DVDAC_backup:
 154 0000 00       		.space	1
 155 0001 000000   		.text
 156              	.Letext0:
 157              		.file 2 ".\\Generated_Source\\PSoC5\\cytypes.h"
 158              		.file 3 ".\\Generated_Source\\PSoC5\\DVDAC.h"
 159              		.file 4 ".\\Generated_Source\\PSoC5\\DVDAC_VDAC8.h"