ARM GAS  C:\Users\LAIR\AppData\Local\Temp\ccW1dLj3.s 			page 1


   1              		.syntax unified
   2              		.cpu cortex-m3
   3              		.fpu softvfp
   4              		.eabi_attribute 20, 1
   5              		.eabi_attribute 21, 1
   6              		.eabi_attribute 23, 3
   7              		.eabi_attribute 24, 1
   8              		.eabi_attribute 25, 1
   9              		.eabi_attribute 26, 1
  10              		.eabi_attribute 30, 1
  11              		.eabi_attribute 34, 1
  12              		.eabi_attribute 18, 4
  13              		.thumb
  14              		.file	"main.c"
  15              		.text
  16              	.Ltext0:
  17              		.cfi_sections	.debug_frame
  18              		.section	.text.init,"ax",%progbits
  19              		.align	2
  20              		.global	init
  21              		.thumb
  22              		.thumb_func
  23              		.type	init, %function
  24              	init:
  25              	.LFB64:
  26              		.file 1 ".\\main.c"
   1:.\main.c      **** /* ========================================
   2:.\main.c      ****  *
   3:.\main.c      ****  * Copyright YOUR COMPANY, THE YEAR
   4:.\main.c      ****  * All Rights Reserved
   5:.\main.c      ****  * UNPUBLISHED, LICENSED SOFTWARE.
   6:.\main.c      ****  *
   7:.\main.c      ****  * CONFIDENTIAL AND PROPRIETARY INFORMATION
   8:.\main.c      ****  * WHICH IS THE PROPERTY OF your company.
   9:.\main.c      ****  *
  10:.\main.c      ****  * ========================================
  11:.\main.c      **** */
  12:.\main.c      **** #include <project.h>
  13:.\main.c      **** 
  14:.\main.c      **** #define USBFS_DEVICE                (0u)
  15:.\main.c      **** #define IN_EP_NUM                   (1u)
  16:.\main.c      **** #define OUT_EP_NUM                  (2u)
  17:.\main.c      **** #define BUFFER_SIZE                (64u)
  18:.\main.c      **** 
  19:.\main.c      **** typedef uint8   byte;
  20:.\main.c      **** typedef uint16  hword;
  21:.\main.c      **** typedef uint32  word;
  22:.\main.c      **** 
  23:.\main.c      **** byte obuffer[BUFFER_SIZE];
  24:.\main.c      **** byte ibuffer[BUFFER_SIZE];
  25:.\main.c      **** 
  26:.\main.c      **** unsigned int ssample[100];
  27:.\main.c      **** unsigned int bsample[100];
  28:.\main.c      **** void init();
  29:.\main.c      **** 
  30:.\main.c      **** int main()
  31:.\main.c      **** {
ARM GAS  C:\Users\LAIR\AppData\Local\Temp\ccW1dLj3.s 			page 2


  32:.\main.c      ****     /* Variable declarations for USBFS */
  33:.\main.c      ****     hword length;
  34:.\main.c      ****     byte i = 0;
  35:.\main.c      ****     byte j = 0;
  36:.\main.c      ****     
  37:.\main.c      ****     CyGlobalIntEnable; /* Enable global interrupts. */
  38:.\main.c      ****     init();
  39:.\main.c      ****     
  40:.\main.c      ****     USBFS_EnableOutEP(OUT_EP_NUM);
  41:.\main.c      ****     for(;;)
  42:.\main.c      ****     {
  43:.\main.c      ****         
  44:.\main.c      ****         //hword sample = POTADC_GetResult16();
  45:.\main.c      ****         j = (j == 99) ?  0:j++;
  46:.\main.c      ****         
  47:.\main.c      ****         /* Check if configuration is changed. */
  48:.\main.c      ****         if (0u != USBFS_IsConfigurationChanged())
  49:.\main.c      ****         {
  50:.\main.c      ****             /* Re-enable endpoint when device is configured. */
  51:.\main.c      ****             if (0u != USBFS_GetConfiguration())
  52:.\main.c      ****             {
  53:.\main.c      ****                 /* Enable OUT endpoint to receive data from host. */
  54:.\main.c      ****                 USBFS_EnableOutEP(OUT_EP_NUM);
  55:.\main.c      ****             }
  56:.\main.c      ****         }
  57:.\main.c      **** 
  58:.\main.c      ****         /* Check if data was received. */
  59:.\main.c      ****         if (USBFS_OUT_BUFFER_FULL == USBFS_GetEPState(OUT_EP_NUM))
  60:.\main.c      ****         {
  61:.\main.c      ****             /* Read number of received data bytes. */
  62:.\main.c      ****             length = USBFS_GetEPCount(OUT_EP_NUM);
  63:.\main.c      **** 
  64:.\main.c      ****             /* Trigger DMA to copy data from OUT endpoint buffer. */
  65:.\main.c      ****             USBFS_ReadOutEP(OUT_EP_NUM, obuffer, length);
  66:.\main.c      **** 
  67:.\main.c      ****             /* Wait until DMA completes copying data from OUT endpoint buffer. */
  68:.\main.c      ****             while (USBFS_OUT_BUFFER_FULL == USBFS_GetEPState(OUT_EP_NUM))
  69:.\main.c      ****             {
  70:.\main.c      ****             }
  71:.\main.c      ****             
  72:.\main.c      ****             /* Enable OUT endpoint to receive data from host. */
  73:.\main.c      ****             USBFS_EnableOutEP(OUT_EP_NUM);
  74:.\main.c      **** 
  75:.\main.c      ****             /* Wait until IN buffer becomes empty (host has read data). */
  76:.\main.c      ****             while (USBFS_IN_BUFFER_EMPTY != USBFS_GetEPState(IN_EP_NUM))
  77:.\main.c      ****             {
  78:.\main.c      ****             }
  79:.\main.c      **** 
  80:.\main.c      ****             i = (i >= BUFFER_SIZE) ? 0:i;
  81:.\main.c      ****             
  82:.\main.c      ****             ibuffer[i] = LO8(bsample[j]);
  83:.\main.c      ****             ibuffer[i+1] = HI8(bsample[j]);
  84:.\main.c      ****             //ibuffer[i+2] = LO8(bsample[j]);
  85:.\main.c      ****             //ibuffer[i+3] = HI8(bsample[j]);
  86:.\main.c      ****             
  87:.\main.c      ****             i += 2;
  88:.\main.c      ****             length = i;
ARM GAS  C:\Users\LAIR\AppData\Local\Temp\ccW1dLj3.s 			page 3


  89:.\main.c      ****             
  90:.\main.c      ****         /* Trigger DMA to copy data into IN endpoint buffer.
  91:.\main.c      ****         * After data has been copied, IN endpoint is ready to be read by the
  92:.\main.c      ****         * host.
  93:.\main.c      ****         */
  94:.\main.c      ****             USBFS_LoadInEP(IN_EP_NUM, bsample, j);
  95:.\main.c      ****         }
  96:.\main.c      ****         
  97:.\main.c      ****         j++;
  98:.\main.c      ****     }
  99:.\main.c      **** }
 100:.\main.c      **** 
 101:.\main.c      **** void init()
 102:.\main.c      **** {
  27              		.loc 1 102 0
  28              		.cfi_startproc
  29              		@ args = 0, pretend = 0, frame = 0
  30              		@ frame_needed = 0, uses_anonymous_args = 0
  31 0000 38B5     		push	{r3, r4, r5, lr}
  32              		.cfi_def_cfa_offset 16
  33              		.cfi_offset 3, -16
  34              		.cfi_offset 4, -12
  35              		.cfi_offset 5, -8
  36              		.cfi_offset 14, -4
 103:.\main.c      ****     /* Defines for RAMBUF1 */
 104:.\main.c      ****     #define RAMBUF1_BYTES_PER_BURST 2
 105:.\main.c      ****     #define RAMBUF1_REQUEST_PER_BURST 1
 106:.\main.c      ****     #define RAMBUF1_SRC_BASE (CYDEV_PERIPH_BASE)
 107:.\main.c      ****     #define RAMBUF1_DST_BASE (CYDEV_SRAM_BASE)
 108:.\main.c      **** 
 109:.\main.c      ****     /* Variable declarations for RAMBUF1 */
 110:.\main.c      ****     /* Move these variable declarations to the top of the function */
 111:.\main.c      ****     uint8 RAMBUF1_Chan;
 112:.\main.c      ****     uint8 RAMBUF1_TD[1];
 113:.\main.c      **** 
 114:.\main.c      ****     /* DMA Configuration for RAMBUF1 */
 115:.\main.c      ****     RAMBUF1_Chan = RAMBUF1_DmaInitialize(RAMBUF1_BYTES_PER_BURST, RAMBUF1_REQUEST_PER_BURST, 
  37              		.loc 1 115 0
  38 0002 0220     		movs	r0, #2
  39 0004 0121     		movs	r1, #1
  40 0006 4FF48042 		mov	r2, #16384
  41 000a 41F6FF73 		movw	r3, #8191
  42 000e FFF7FEFF 		bl	RAMBUF1_DmaInitialize
  43              	.LVL0:
  44 0012 0546     		mov	r5, r0
  45              	.LVL1:
 116:.\main.c      ****         HI16(RAMBUF1_SRC_BASE), HI16(RAMBUF1_DST_BASE));
 117:.\main.c      ****     RAMBUF1_TD[0] = CyDmaTdAllocate();
  46              		.loc 1 117 0
  47 0014 FFF7FEFF 		bl	CyDmaTdAllocate
  48              	.LVL2:
  49 0018 0446     		mov	r4, r0
 118:.\main.c      ****     CyDmaTdSetConfiguration(RAMBUF1_TD[0], 100, RAMBUF1_TD[0], TD_INC_DST_ADR | TD_AUTO_EXEC_NEXT);
  50              		.loc 1 118 0
  51 001a 6421     		movs	r1, #100
  52 001c 0246     		mov	r2, r0
  53 001e 2223     		movs	r3, #34
ARM GAS  C:\Users\LAIR\AppData\Local\Temp\ccW1dLj3.s 			page 4


  54 0020 FFF7FEFF 		bl	CyDmaTdSetConfiguration
  55              	.LVL3:
 119:.\main.c      ****     CyDmaTdSetAddress(RAMBUF1_TD[0], LO16((uint32)STEERADC_SAR_WRK0_PTR), LO16((uint32)ssample));
  56              		.loc 1 119 0
  57 0024 2046     		mov	r0, r4
  58 0026 45F6A231 		movw	r1, #23458
  59 002a 1E4A     		ldr	r2, .L4
  60 002c 92B2     		uxth	r2, r2
  61 002e FFF7FEFF 		bl	CyDmaTdSetAddress
  62              	.LVL4:
 120:.\main.c      ****     CyDmaChSetInitialTd(RAMBUF1_Chan, RAMBUF1_TD[0]);
  63              		.loc 1 120 0
  64 0032 2846     		mov	r0, r5
  65 0034 2146     		mov	r1, r4
  66 0036 FFF7FEFF 		bl	CyDmaChSetInitialTd
  67              	.LVL5:
 121:.\main.c      ****     CyDmaChEnable(RAMBUF1_Chan, 1);
  68              		.loc 1 121 0
  69 003a 2846     		mov	r0, r5
  70 003c 0121     		movs	r1, #1
  71 003e FFF7FEFF 		bl	CyDmaChEnable
  72              	.LVL6:
 122:.\main.c      **** 
 123:.\main.c      ****     /* Defines for RAMBUF2 */
 124:.\main.c      ****     #define RAMBUF2_BYTES_PER_BURST 2
 125:.\main.c      ****     #define RAMBUF2_REQUEST_PER_BURST 1
 126:.\main.c      ****     #define RAMBUF2_SRC_BASE (CYDEV_PERIPH_BASE)
 127:.\main.c      ****     #define RAMBUF2_DST_BASE (CYDEV_SRAM_BASE)
 128:.\main.c      **** 
 129:.\main.c      ****     /* Variable declarations for RAMBUF2 */
 130:.\main.c      ****     /* Move these variable declarations to the top of the function */
 131:.\main.c      ****     uint8 RAMBUF2_Chan;
 132:.\main.c      ****     uint8 RAMBUF2_TD[1];
 133:.\main.c      **** 
 134:.\main.c      ****     /* DMA Configuration for RAMBUF2 */
 135:.\main.c      ****     RAMBUF2_Chan = RAMBUF2_DmaInitialize(RAMBUF2_BYTES_PER_BURST, RAMBUF2_REQUEST_PER_BURST, 
  73              		.loc 1 135 0
  74 0042 0220     		movs	r0, #2
  75 0044 0121     		movs	r1, #1
  76 0046 4FF48042 		mov	r2, #16384
  77 004a 41F6FF73 		movw	r3, #8191
  78 004e FFF7FEFF 		bl	RAMBUF2_DmaInitialize
  79              	.LVL7:
  80 0052 0546     		mov	r5, r0
  81              	.LVL8:
 136:.\main.c      ****         HI16(RAMBUF2_SRC_BASE), HI16(RAMBUF2_DST_BASE));
 137:.\main.c      ****     RAMBUF2_TD[0] = CyDmaTdAllocate();
  82              		.loc 1 137 0
  83 0054 FFF7FEFF 		bl	CyDmaTdAllocate
  84              	.LVL9:
  85 0058 0446     		mov	r4, r0
 138:.\main.c      ****     CyDmaTdSetConfiguration(RAMBUF2_TD[0], 100, RAMBUF2_TD[0], TD_INC_DST_ADR | TD_AUTO_EXEC_NEXT);
  86              		.loc 1 138 0
  87 005a 6421     		movs	r1, #100
  88 005c 0246     		mov	r2, r0
  89 005e 2223     		movs	r3, #34
  90 0060 FFF7FEFF 		bl	CyDmaTdSetConfiguration
ARM GAS  C:\Users\LAIR\AppData\Local\Temp\ccW1dLj3.s 			page 5


  91              	.LVL10:
 139:.\main.c      ****     CyDmaTdSetAddress(RAMBUF2_TD[0], LO16((uint32)BRAKEADC_SAR_WRK0_PTR), LO16((uint32)bsample));
  92              		.loc 1 139 0
  93 0064 2046     		mov	r0, r4
  94 0066 45F6A031 		movw	r1, #23456
  95 006a 0F4A     		ldr	r2, .L4+4
  96 006c 92B2     		uxth	r2, r2
  97 006e FFF7FEFF 		bl	CyDmaTdSetAddress
  98              	.LVL11:
 140:.\main.c      ****     CyDmaChSetInitialTd(RAMBUF2_Chan, RAMBUF2_TD[0]);
  99              		.loc 1 140 0
 100 0072 2846     		mov	r0, r5
 101 0074 2146     		mov	r1, r4
 102 0076 FFF7FEFF 		bl	CyDmaChSetInitialTd
 103              	.LVL12:
 141:.\main.c      ****     CyDmaChEnable(RAMBUF2_Chan, 1);
 104              		.loc 1 141 0
 105 007a 2846     		mov	r0, r5
 106 007c 0121     		movs	r1, #1
 107 007e FFF7FEFF 		bl	CyDmaChEnable
 108              	.LVL13:
 142:.\main.c      ****     
 143:.\main.c      ****     USBFS_Start(USBFS_DEVICE, USBFS_5V_OPERATION);
 109              		.loc 1 143 0
 110 0082 0020     		movs	r0, #0
 111 0084 0121     		movs	r1, #1
 112 0086 FFF7FEFF 		bl	USBFS_Start
 113              	.LVL14:
 114              	.L2:
 144:.\main.c      ****     while(0u == USBFS_GetConfiguration()){} //wait until we are enumerated by host
 115              		.loc 1 144 0 discriminator 1
 116 008a FFF7FEFF 		bl	USBFS_GetConfiguration
 117              	.LVL15:
 118 008e 0028     		cmp	r0, #0
 119 0090 FBD0     		beq	.L2
 145:.\main.c      ****     
 146:.\main.c      ****     STEERADC_Start();
 120              		.loc 1 146 0
 121 0092 FFF7FEFF 		bl	STEERADC_Start
 122              	.LVL16:
 147:.\main.c      ****     STEERADC_StartConvert();
 123              		.loc 1 147 0
 124 0096 FFF7FEFF 		bl	STEERADC_StartConvert
 125              	.LVL17:
 148:.\main.c      ****     BRAKEADC_Start();
 126              		.loc 1 148 0
 127 009a FFF7FEFF 		bl	BRAKEADC_Start
 128              	.LVL18:
 149:.\main.c      ****     BRAKEADC_StartConvert();
 129              		.loc 1 149 0
 130 009e FFF7FEFF 		bl	BRAKEADC_StartConvert
 131              	.LVL19:
 132 00a2 38BD     		pop	{r3, r4, r5, pc}
 133              	.LVL20:
 134              	.L5:
 135              		.align	2
 136              	.L4:
ARM GAS  C:\Users\LAIR\AppData\Local\Temp\ccW1dLj3.s 			page 6


 137 00a4 00000000 		.word	ssample
 138 00a8 00000000 		.word	bsample
 139              		.cfi_endproc
 140              	.LFE64:
 141              		.size	init, .-init
 142              		.section	.text.main,"ax",%progbits
 143              		.align	2
 144              		.global	main
 145              		.thumb
 146              		.thumb_func
 147              		.type	main, %function
 148              	main:
 149              	.LFB63:
  31:.\main.c      ****     /* Variable declarations for USBFS */
 150              		.loc 1 31 0
 151              		.cfi_startproc
 152              		@ args = 0, pretend = 0, frame = 0
 153              		@ frame_needed = 0, uses_anonymous_args = 0
 154 0000 38B5     		push	{r3, r4, r5, lr}
 155              		.cfi_def_cfa_offset 16
 156              		.cfi_offset 3, -16
 157              		.cfi_offset 4, -12
 158              		.cfi_offset 5, -8
 159              		.cfi_offset 14, -4
 160              	.LVL21:
  37:.\main.c      ****     init();
 161              		.loc 1 37 0
 162              	@ 37 ".\main.c" 1
 163 0002 62B6     		CPSIE   i
 164              	@ 0 "" 2
  38:.\main.c      ****     
 165              		.loc 1 38 0
 166              		.thumb
 167 0004 FFF7FEFF 		bl	init
 168              	.LVL22:
  40:.\main.c      ****     for(;;)
 169              		.loc 1 40 0
 170 0008 0220     		movs	r0, #2
 171 000a FFF7FEFF 		bl	USBFS_EnableOutEP
 172              	.LVL23:
  35:.\main.c      ****     
 173              		.loc 1 35 0
 174 000e 0024     		movs	r4, #0
  34:.\main.c      ****     byte j = 0;
 175              		.loc 1 34 0
 176 0010 2546     		mov	r5, r4
 177              	.LVL24:
 178              	.L13:
  45:.\main.c      ****         
 179              		.loc 1 45 0
 180 0012 632C     		cmp	r4, #99
 181 0014 00D1     		bne	.L7
 182 0016 0024     		movs	r4, #0
 183              	.LVL25:
 184              	.L7:
  48:.\main.c      ****         {
 185              		.loc 1 48 0 discriminator 4
ARM GAS  C:\Users\LAIR\AppData\Local\Temp\ccW1dLj3.s 			page 7


 186 0018 FFF7FEFF 		bl	USBFS_IsConfigurationChanged
 187              	.LVL26:
 188 001c 28B1     		cbz	r0, .L8
  51:.\main.c      ****             {
 189              		.loc 1 51 0
 190 001e FFF7FEFF 		bl	USBFS_GetConfiguration
 191              	.LVL27:
 192 0022 10B1     		cbz	r0, .L8
  54:.\main.c      ****             }
 193              		.loc 1 54 0
 194 0024 0220     		movs	r0, #2
 195 0026 FFF7FEFF 		bl	USBFS_EnableOutEP
 196              	.LVL28:
 197              	.L8:
  59:.\main.c      ****         {
 198              		.loc 1 59 0
 199 002a 0220     		movs	r0, #2
 200 002c FFF7FEFF 		bl	USBFS_GetEPState
 201              	.LVL29:
 202 0030 0128     		cmp	r0, #1
 203 0032 26D1     		bne	.L9
  62:.\main.c      **** 
 204              		.loc 1 62 0
 205 0034 0220     		movs	r0, #2
 206 0036 FFF7FEFF 		bl	USBFS_GetEPCount
 207              	.LVL30:
 208 003a 0246     		mov	r2, r0
 209              	.LVL31:
  65:.\main.c      **** 
 210              		.loc 1 65 0
 211 003c 0220     		movs	r0, #2
 212 003e 1249     		ldr	r1, .L15
 213 0040 FFF7FEFF 		bl	USBFS_ReadOutEP
 214              	.LVL32:
 215              	.L10:
  68:.\main.c      ****             {
 216              		.loc 1 68 0 discriminator 1
 217 0044 0220     		movs	r0, #2
 218 0046 FFF7FEFF 		bl	USBFS_GetEPState
 219              	.LVL33:
 220 004a 0128     		cmp	r0, #1
 221 004c FAD0     		beq	.L10
  73:.\main.c      **** 
 222              		.loc 1 73 0
 223 004e 0220     		movs	r0, #2
 224 0050 FFF7FEFF 		bl	USBFS_EnableOutEP
 225              	.LVL34:
 226              	.L11:
  76:.\main.c      ****             {
 227              		.loc 1 76 0 discriminator 1
 228 0054 0120     		movs	r0, #1
 229 0056 FFF7FEFF 		bl	USBFS_GetEPState
 230              	.LVL35:
 231 005a 0128     		cmp	r0, #1
 232 005c FAD1     		bne	.L11
  80:.\main.c      ****             
 233              		.loc 1 80 0
ARM GAS  C:\Users\LAIR\AppData\Local\Temp\ccW1dLj3.s 			page 8


 234 005e 3F2D     		cmp	r5, #63
 235 0060 00D9     		bls	.L12
 236 0062 0025     		movs	r5, #0
 237              	.LVL36:
 238              	.L12:
  82:.\main.c      ****             ibuffer[i+1] = HI8(bsample[j]);
 239              		.loc 1 82 0 discriminator 4
 240 0064 0949     		ldr	r1, .L15+4
 241 0066 51F82430 		ldr	r3, [r1, r4, lsl #2]
 242 006a 094A     		ldr	r2, .L15+8
 243 006c 5355     		strb	r3, [r2, r5]
  83:.\main.c      ****             //ibuffer[i+2] = LO8(bsample[j]);
 244              		.loc 1 83 0 discriminator 4
 245 006e 681C     		adds	r0, r5, #1
 246 0070 C3F30723 		ubfx	r3, r3, #8, #8
 247 0074 1354     		strb	r3, [r2, r0]
  87:.\main.c      ****             length = i;
 248              		.loc 1 87 0 discriminator 4
 249 0076 0235     		adds	r5, r5, #2
 250              	.LVL37:
 251 0078 EDB2     		uxtb	r5, r5
 252              	.LVL38:
  94:.\main.c      ****         }
 253              		.loc 1 94 0 discriminator 4
 254 007a 0120     		movs	r0, #1
 255 007c 2246     		mov	r2, r4
 256 007e FFF7FEFF 		bl	USBFS_LoadInEP
 257              	.LVL39:
 258              	.L9:
  97:.\main.c      ****     }
 259              		.loc 1 97 0
 260 0082 0134     		adds	r4, r4, #1
 261              	.LVL40:
 262 0084 E4B2     		uxtb	r4, r4
 263              	.LVL41:
  98:.\main.c      **** }
 264              		.loc 1 98 0
 265 0086 C4E7     		b	.L13
 266              	.L16:
 267              		.align	2
 268              	.L15:
 269 0088 00000000 		.word	obuffer
 270 008c 00000000 		.word	bsample
 271 0090 00000000 		.word	ibuffer
 272              		.cfi_endproc
 273              	.LFE63:
 274              		.size	main, .-main
 275              		.comm	bsample,400,4
 276              		.comm	ssample,400,4
 277              		.comm	ibuffer,64,4
 278              		.comm	obuffer,64,4
 279              		.text
 280              	.Letext0:
 281              		.file 2 "c:\\program files (x86)\\cypress\\psoc creator\\3.3\\psoc creator\\import\\gnu\\arm\\4.9.
 282              		.file 3 "c:\\program files (x86)\\cypress\\psoc creator\\3.3\\psoc creator\\import\\gnu\\arm\\4.9.
 283              		.file 4 "Generated_Source\\PSoC5/cytypes.h"
 284              		.file 5 "Generated_Source\\PSoC5/core_cm3.h"
ARM GAS  C:\Users\LAIR\AppData\Local\Temp\ccW1dLj3.s 			page 9


 285              		.file 6 "Generated_Source\\PSoC5/RAMBUF1_dma.h"
 286              		.file 7 "Generated_Source\\PSoC5/CyDmac.h"
 287              		.file 8 "Generated_Source\\PSoC5/RAMBUF2_dma.h"
 288              		.file 9 "Generated_Source\\PSoC5/USBFS.h"
 289              		.file 10 "Generated_Source\\PSoC5/STEERADC.h"
 290              		.file 11 "Generated_Source\\PSoC5/BRAKEADC.h"