ARM GAS  C:\Users\LAIR\AppData\Local\Temp\cc5n6lZj.s 			page 1


   1              		.syntax unified
   2              		.cpu cortex-m3
   3              		.fpu softvfp
   4              		.eabi_attribute 20, 1
   5              		.eabi_attribute 21, 1
   6              		.eabi_attribute 23, 3
   7              		.eabi_attribute 24, 1
   8              		.eabi_attribute 25, 1
   9              		.eabi_attribute 26, 1
  10              		.eabi_attribute 30, 1
  11              		.eabi_attribute 34, 1
  12              		.eabi_attribute 18, 4
  13              		.thumb
  14              		.file	"USBFS_std.c"
  15              		.text
  16              	.Ltext0:
  17              		.cfi_sections	.debug_frame
  18              		.section	.text.USBFS_ReadDieID,"ax",%progbits
  19              		.align	2
  20              		.global	USBFS_ReadDieID
  21              		.thumb
  22              		.thumb_func
  23              		.type	USBFS_ReadDieID, %function
  24              	USBFS_ReadDieID:
  25              	.LFB1:
  26              		.file 1 ".\\Generated_Source\\PSoC5\\USBFS_std.c"
   1:.\Generated_Source\PSoC5/USBFS_std.c **** /***************************************************************************//**
   2:.\Generated_Source\PSoC5/USBFS_std.c **** * \file USBFS_std.c
   3:.\Generated_Source\PSoC5/USBFS_std.c **** * \version 3.0
   4:.\Generated_Source\PSoC5/USBFS_std.c **** *
   5:.\Generated_Source\PSoC5/USBFS_std.c **** * \brief
   6:.\Generated_Source\PSoC5/USBFS_std.c **** *  This file contains the USB Standard request handler.
   7:.\Generated_Source\PSoC5/USBFS_std.c **** *
   8:.\Generated_Source\PSoC5/USBFS_std.c **** ********************************************************************************
   9:.\Generated_Source\PSoC5/USBFS_std.c **** * \copyright
  10:.\Generated_Source\PSoC5/USBFS_std.c **** * Copyright 2008-2015, Cypress Semiconductor Corporation.  All rights reserved.
  11:.\Generated_Source\PSoC5/USBFS_std.c **** * You may use this file only in accordance with the license, terms, conditions,
  12:.\Generated_Source\PSoC5/USBFS_std.c **** * disclaimers, and limitations in the end user license agreement accompanying
  13:.\Generated_Source\PSoC5/USBFS_std.c **** * the software package with which this file was provided.
  14:.\Generated_Source\PSoC5/USBFS_std.c **** *******************************************************************************/
  15:.\Generated_Source\PSoC5/USBFS_std.c **** 
  16:.\Generated_Source\PSoC5/USBFS_std.c **** #include "USBFS_pvt.h"
  17:.\Generated_Source\PSoC5/USBFS_std.c **** 
  18:.\Generated_Source\PSoC5/USBFS_std.c **** /***************************************
  19:.\Generated_Source\PSoC5/USBFS_std.c **** *   Static data allocation
  20:.\Generated_Source\PSoC5/USBFS_std.c **** ***************************************/
  21:.\Generated_Source\PSoC5/USBFS_std.c **** 
  22:.\Generated_Source\PSoC5/USBFS_std.c **** #if defined(USBFS_ENABLE_FWSN_STRING)
  23:.\Generated_Source\PSoC5/USBFS_std.c ****     static volatile uint8* USBFS_fwSerialNumberStringDescriptor;
  24:.\Generated_Source\PSoC5/USBFS_std.c ****     static volatile uint8  USBFS_snStringConfirm = USBFS_FALSE;
  25:.\Generated_Source\PSoC5/USBFS_std.c **** #endif  /* (USBFS_ENABLE_FWSN_STRING) */
  26:.\Generated_Source\PSoC5/USBFS_std.c **** 
  27:.\Generated_Source\PSoC5/USBFS_std.c **** #if defined(USBFS_ENABLE_FWSN_STRING)
  28:.\Generated_Source\PSoC5/USBFS_std.c ****     /***************************************************************************
  29:.\Generated_Source\PSoC5/USBFS_std.c ****     * Function Name: USBFS_SerialNumString
  30:.\Generated_Source\PSoC5/USBFS_std.c ****     ************************************************************************//**
  31:.\Generated_Source\PSoC5/USBFS_std.c ****     *
ARM GAS  C:\Users\LAIR\AppData\Local\Temp\cc5n6lZj.s 			page 2


  32:.\Generated_Source\PSoC5/USBFS_std.c ****     *  This function is available only when the User Call Back option in the 
  33:.\Generated_Source\PSoC5/USBFS_std.c ****     *  Serial Number String descriptor properties is selected. Application 
  34:.\Generated_Source\PSoC5/USBFS_std.c ****     *  firmware can provide the source of the USB device serial number string 
  35:.\Generated_Source\PSoC5/USBFS_std.c ****     *  descriptor during run time. The default string is used if the application 
  36:.\Generated_Source\PSoC5/USBFS_std.c ****     *  firmware does not use this function or sets the wrong string descriptor.
  37:.\Generated_Source\PSoC5/USBFS_std.c ****     *
  38:.\Generated_Source\PSoC5/USBFS_std.c ****     *  \param snString:  Pointer to the user-defined string descriptor. The 
  39:.\Generated_Source\PSoC5/USBFS_std.c ****     *  string descriptor should meet the Universal Serial Bus Specification 
  40:.\Generated_Source\PSoC5/USBFS_std.c ****     *  revision 2.0 chapter 9.6.7
  41:.\Generated_Source\PSoC5/USBFS_std.c ****     *  Offset|Size|Value|Description
  42:.\Generated_Source\PSoC5/USBFS_std.c ****     *  ------|----|------|---------------------------------
  43:.\Generated_Source\PSoC5/USBFS_std.c ****     *  0     |1   |N     |Size of this descriptor in bytes
  44:.\Generated_Source\PSoC5/USBFS_std.c ****     *  1     |1   |0x03  |STRING Descriptor Type
  45:.\Generated_Source\PSoC5/USBFS_std.c ****     *  2     |N-2 |Number|UNICODE encoded string
  46:.\Generated_Source\PSoC5/USBFS_std.c ****     *  
  47:.\Generated_Source\PSoC5/USBFS_std.c ****     * *For example:* uint8 snString[16]={0x0E,0x03,'F',0,'W',0,'S',0,'N',0,'0',0,'1',0};
  48:.\Generated_Source\PSoC5/USBFS_std.c ****     *
  49:.\Generated_Source\PSoC5/USBFS_std.c ****     * \reentrant
  50:.\Generated_Source\PSoC5/USBFS_std.c ****     *  No.
  51:.\Generated_Source\PSoC5/USBFS_std.c ****     *
  52:.\Generated_Source\PSoC5/USBFS_std.c ****     ***************************************************************************/
  53:.\Generated_Source\PSoC5/USBFS_std.c ****     void  USBFS_SerialNumString(uint8 snString[]) 
  54:.\Generated_Source\PSoC5/USBFS_std.c ****     {
  55:.\Generated_Source\PSoC5/USBFS_std.c ****         USBFS_snStringConfirm = USBFS_FALSE;
  56:.\Generated_Source\PSoC5/USBFS_std.c ****         
  57:.\Generated_Source\PSoC5/USBFS_std.c ****         if (snString != NULL)
  58:.\Generated_Source\PSoC5/USBFS_std.c ****         {
  59:.\Generated_Source\PSoC5/USBFS_std.c ****             /* Check descriptor validation */
  60:.\Generated_Source\PSoC5/USBFS_std.c ****             if ((snString[0u] > 1u) && (snString[1u] == USBFS_DESCR_STRING))
  61:.\Generated_Source\PSoC5/USBFS_std.c ****             {
  62:.\Generated_Source\PSoC5/USBFS_std.c ****                 USBFS_fwSerialNumberStringDescriptor = snString;
  63:.\Generated_Source\PSoC5/USBFS_std.c ****                 USBFS_snStringConfirm = USBFS_TRUE;
  64:.\Generated_Source\PSoC5/USBFS_std.c ****             }
  65:.\Generated_Source\PSoC5/USBFS_std.c ****         }
  66:.\Generated_Source\PSoC5/USBFS_std.c ****     }
  67:.\Generated_Source\PSoC5/USBFS_std.c **** #endif  /* USBFS_ENABLE_FWSN_STRING */
  68:.\Generated_Source\PSoC5/USBFS_std.c **** 
  69:.\Generated_Source\PSoC5/USBFS_std.c **** 
  70:.\Generated_Source\PSoC5/USBFS_std.c **** /*******************************************************************************
  71:.\Generated_Source\PSoC5/USBFS_std.c **** * Function Name: USBFS_HandleStandardRqst
  72:.\Generated_Source\PSoC5/USBFS_std.c **** ****************************************************************************//**
  73:.\Generated_Source\PSoC5/USBFS_std.c **** *
  74:.\Generated_Source\PSoC5/USBFS_std.c **** *  This Routine dispatches standard requests
  75:.\Generated_Source\PSoC5/USBFS_std.c **** *
  76:.\Generated_Source\PSoC5/USBFS_std.c **** *
  77:.\Generated_Source\PSoC5/USBFS_std.c **** * \return
  78:.\Generated_Source\PSoC5/USBFS_std.c **** *  TRUE if request handled.
  79:.\Generated_Source\PSoC5/USBFS_std.c **** *
  80:.\Generated_Source\PSoC5/USBFS_std.c **** * \reentrant
  81:.\Generated_Source\PSoC5/USBFS_std.c **** *  No.
  82:.\Generated_Source\PSoC5/USBFS_std.c **** *
  83:.\Generated_Source\PSoC5/USBFS_std.c **** *******************************************************************************/
  84:.\Generated_Source\PSoC5/USBFS_std.c **** uint8 USBFS_HandleStandardRqst(void) 
  85:.\Generated_Source\PSoC5/USBFS_std.c **** {
  86:.\Generated_Source\PSoC5/USBFS_std.c ****     uint8 requestHandled = USBFS_FALSE;
  87:.\Generated_Source\PSoC5/USBFS_std.c ****     uint8 interfaceNumber;
  88:.\Generated_Source\PSoC5/USBFS_std.c ****     uint8 configurationN;
ARM GAS  C:\Users\LAIR\AppData\Local\Temp\cc5n6lZj.s 			page 3


  89:.\Generated_Source\PSoC5/USBFS_std.c ****     uint8 bmRequestType = USBFS_bmRequestTypeReg;
  90:.\Generated_Source\PSoC5/USBFS_std.c **** 
  91:.\Generated_Source\PSoC5/USBFS_std.c **** #if defined(USBFS_ENABLE_STRINGS)
  92:.\Generated_Source\PSoC5/USBFS_std.c ****     volatile uint8 *pStr = 0u;
  93:.\Generated_Source\PSoC5/USBFS_std.c ****     #if defined(USBFS_ENABLE_DESCRIPTOR_STRINGS)
  94:.\Generated_Source\PSoC5/USBFS_std.c ****         uint8 nStr;
  95:.\Generated_Source\PSoC5/USBFS_std.c ****         uint8 descrLength;
  96:.\Generated_Source\PSoC5/USBFS_std.c ****     #endif /* (USBFS_ENABLE_DESCRIPTOR_STRINGS) */
  97:.\Generated_Source\PSoC5/USBFS_std.c **** #endif /* (USBFS_ENABLE_STRINGS) */
  98:.\Generated_Source\PSoC5/USBFS_std.c ****     
  99:.\Generated_Source\PSoC5/USBFS_std.c ****     static volatile uint8 USBFS_tBuffer[USBFS_STATUS_LENGTH_MAX];
 100:.\Generated_Source\PSoC5/USBFS_std.c ****     const T_USBFS_LUT CYCODE *pTmp;
 101:.\Generated_Source\PSoC5/USBFS_std.c **** 
 102:.\Generated_Source\PSoC5/USBFS_std.c ****     USBFS_currentTD.count = 0u;
 103:.\Generated_Source\PSoC5/USBFS_std.c **** 
 104:.\Generated_Source\PSoC5/USBFS_std.c ****     if (USBFS_RQST_DIR_D2H == (bmRequestType & USBFS_RQST_DIR_MASK))
 105:.\Generated_Source\PSoC5/USBFS_std.c ****     {
 106:.\Generated_Source\PSoC5/USBFS_std.c ****         /* Control Read */
 107:.\Generated_Source\PSoC5/USBFS_std.c ****         switch (USBFS_bRequestReg)
 108:.\Generated_Source\PSoC5/USBFS_std.c ****         {
 109:.\Generated_Source\PSoC5/USBFS_std.c ****             case USBFS_GET_DESCRIPTOR:
 110:.\Generated_Source\PSoC5/USBFS_std.c ****                 if (USBFS_DESCR_DEVICE ==USBFS_wValueHiReg)
 111:.\Generated_Source\PSoC5/USBFS_std.c ****                 {
 112:.\Generated_Source\PSoC5/USBFS_std.c ****                     pTmp = USBFS_GetDeviceTablePtr();
 113:.\Generated_Source\PSoC5/USBFS_std.c ****                     USBFS_currentTD.pData = (volatile uint8 *)pTmp->p_list;
 114:.\Generated_Source\PSoC5/USBFS_std.c ****                     USBFS_currentTD.count = USBFS_DEVICE_DESCR_LENGTH;
 115:.\Generated_Source\PSoC5/USBFS_std.c ****                     
 116:.\Generated_Source\PSoC5/USBFS_std.c ****                     requestHandled  = USBFS_InitControlRead();
 117:.\Generated_Source\PSoC5/USBFS_std.c ****                 }
 118:.\Generated_Source\PSoC5/USBFS_std.c ****                 else if (USBFS_DESCR_CONFIG == USBFS_wValueHiReg)
 119:.\Generated_Source\PSoC5/USBFS_std.c ****                 {
 120:.\Generated_Source\PSoC5/USBFS_std.c ****                     pTmp = USBFS_GetConfigTablePtr((uint8) USBFS_wValueLoReg);
 121:.\Generated_Source\PSoC5/USBFS_std.c ****                     
 122:.\Generated_Source\PSoC5/USBFS_std.c ****                     /* Verify that requested descriptor exists */
 123:.\Generated_Source\PSoC5/USBFS_std.c ****                     if (pTmp != NULL)
 124:.\Generated_Source\PSoC5/USBFS_std.c ****                     {
 125:.\Generated_Source\PSoC5/USBFS_std.c ****                         USBFS_currentTD.pData = (volatile uint8 *)pTmp->p_list;
 126:.\Generated_Source\PSoC5/USBFS_std.c ****                         USBFS_currentTD.count = (uint16)((uint16)(USBFS_currentTD.pData)[USBFS_CONF
 127:.\Generated_Source\PSoC5/USBFS_std.c ****                                                                             (USBFS_currentTD.pData)
 128:.\Generated_Source\PSoC5/USBFS_std.c ****                         requestHandled  = USBFS_InitControlRead();
 129:.\Generated_Source\PSoC5/USBFS_std.c ****                     }
 130:.\Generated_Source\PSoC5/USBFS_std.c ****                 }
 131:.\Generated_Source\PSoC5/USBFS_std.c ****                 
 132:.\Generated_Source\PSoC5/USBFS_std.c ****             #if(USBFS_BOS_ENABLE)
 133:.\Generated_Source\PSoC5/USBFS_std.c ****                 else if (USBFS_DESCR_BOS == USBFS_wValueHiReg)
 134:.\Generated_Source\PSoC5/USBFS_std.c ****                 {
 135:.\Generated_Source\PSoC5/USBFS_std.c ****                     pTmp = USBFS_GetBOSPtr();
 136:.\Generated_Source\PSoC5/USBFS_std.c ****                     
 137:.\Generated_Source\PSoC5/USBFS_std.c ****                     /* Verify that requested descriptor exists */
 138:.\Generated_Source\PSoC5/USBFS_std.c ****                     if (pTmp != NULL)
 139:.\Generated_Source\PSoC5/USBFS_std.c ****                     {
 140:.\Generated_Source\PSoC5/USBFS_std.c ****                         USBFS_currentTD.pData = (volatile uint8 *)pTmp;
 141:.\Generated_Source\PSoC5/USBFS_std.c ****                         USBFS_currentTD.count = ((uint16)((uint16)(USBFS_currentTD.pData)[USBFS_BOS
 142:.\Generated_Source\PSoC5/USBFS_std.c ****                                                                              (USBFS_currentTD.pData
 143:.\Generated_Source\PSoC5/USBFS_std.c ****                         requestHandled  = USBFS_InitControlRead();
 144:.\Generated_Source\PSoC5/USBFS_std.c ****                     }
 145:.\Generated_Source\PSoC5/USBFS_std.c ****                 }
ARM GAS  C:\Users\LAIR\AppData\Local\Temp\cc5n6lZj.s 			page 4


 146:.\Generated_Source\PSoC5/USBFS_std.c ****             #endif /*(USBFS_BOS_ENABLE)*/
 147:.\Generated_Source\PSoC5/USBFS_std.c ****             
 148:.\Generated_Source\PSoC5/USBFS_std.c ****             #if defined(USBFS_ENABLE_STRINGS)
 149:.\Generated_Source\PSoC5/USBFS_std.c ****                 else if (USBFS_DESCR_STRING == USBFS_wValueHiReg)
 150:.\Generated_Source\PSoC5/USBFS_std.c ****                 {
 151:.\Generated_Source\PSoC5/USBFS_std.c ****                 /* Descriptor Strings */
 152:.\Generated_Source\PSoC5/USBFS_std.c ****                 #if defined(USBFS_ENABLE_DESCRIPTOR_STRINGS)
 153:.\Generated_Source\PSoC5/USBFS_std.c ****                     nStr = 0u;
 154:.\Generated_Source\PSoC5/USBFS_std.c ****                     pStr = (volatile uint8 *) &USBFS_STRING_DESCRIPTORS[0u];
 155:.\Generated_Source\PSoC5/USBFS_std.c ****                     
 156:.\Generated_Source\PSoC5/USBFS_std.c ****                     while ((USBFS_wValueLoReg > nStr) && (*pStr != 0u))
 157:.\Generated_Source\PSoC5/USBFS_std.c ****                     {
 158:.\Generated_Source\PSoC5/USBFS_std.c ****                         /* Read descriptor length from 1st byte */
 159:.\Generated_Source\PSoC5/USBFS_std.c ****                         descrLength = *pStr;
 160:.\Generated_Source\PSoC5/USBFS_std.c ****                         /* Move to next string descriptor */
 161:.\Generated_Source\PSoC5/USBFS_std.c ****                         pStr = &pStr[descrLength];
 162:.\Generated_Source\PSoC5/USBFS_std.c ****                         nStr++;
 163:.\Generated_Source\PSoC5/USBFS_std.c ****                     }
 164:.\Generated_Source\PSoC5/USBFS_std.c ****                 #endif /* (USBFS_ENABLE_DESCRIPTOR_STRINGS) */
 165:.\Generated_Source\PSoC5/USBFS_std.c ****                 
 166:.\Generated_Source\PSoC5/USBFS_std.c ****                 /* Microsoft OS String */
 167:.\Generated_Source\PSoC5/USBFS_std.c ****                 #if defined(USBFS_ENABLE_MSOS_STRING)
 168:.\Generated_Source\PSoC5/USBFS_std.c ****                     if (USBFS_STRING_MSOS == USBFS_wValueLoReg)
 169:.\Generated_Source\PSoC5/USBFS_std.c ****                     {
 170:.\Generated_Source\PSoC5/USBFS_std.c ****                         pStr = (volatile uint8 *)& USBFS_MSOS_DESCRIPTOR[0u];
 171:.\Generated_Source\PSoC5/USBFS_std.c ****                     }
 172:.\Generated_Source\PSoC5/USBFS_std.c ****                 #endif /* (USBFS_ENABLE_MSOS_STRING) */
 173:.\Generated_Source\PSoC5/USBFS_std.c ****                 
 174:.\Generated_Source\PSoC5/USBFS_std.c ****                 /* SN string */
 175:.\Generated_Source\PSoC5/USBFS_std.c ****                 #if defined(USBFS_ENABLE_SN_STRING)
 176:.\Generated_Source\PSoC5/USBFS_std.c ****                     if ((USBFS_wValueLoReg != 0u) && 
 177:.\Generated_Source\PSoC5/USBFS_std.c ****                         (USBFS_wValueLoReg == USBFS_DEVICE0_DESCR[USBFS_DEVICE_DESCR_SN_SHIFT]))
 178:.\Generated_Source\PSoC5/USBFS_std.c ****                     {
 179:.\Generated_Source\PSoC5/USBFS_std.c ****                     #if defined(USBFS_ENABLE_IDSN_STRING)
 180:.\Generated_Source\PSoC5/USBFS_std.c ****                         /* Read DIE ID and generate string descriptor in RAM */
 181:.\Generated_Source\PSoC5/USBFS_std.c ****                         USBFS_ReadDieID(USBFS_idSerialNumberStringDescriptor);
 182:.\Generated_Source\PSoC5/USBFS_std.c ****                         pStr = USBFS_idSerialNumberStringDescriptor;
 183:.\Generated_Source\PSoC5/USBFS_std.c ****                     #elif defined(USBFS_ENABLE_FWSN_STRING)
 184:.\Generated_Source\PSoC5/USBFS_std.c ****                         
 185:.\Generated_Source\PSoC5/USBFS_std.c ****                         if(USBFS_snStringConfirm != USBFS_FALSE)
 186:.\Generated_Source\PSoC5/USBFS_std.c ****                         {
 187:.\Generated_Source\PSoC5/USBFS_std.c ****                             pStr = USBFS_fwSerialNumberStringDescriptor;
 188:.\Generated_Source\PSoC5/USBFS_std.c ****                         }
 189:.\Generated_Source\PSoC5/USBFS_std.c ****                         else
 190:.\Generated_Source\PSoC5/USBFS_std.c ****                         {
 191:.\Generated_Source\PSoC5/USBFS_std.c ****                             pStr = (volatile uint8 *)&USBFS_SN_STRING_DESCRIPTOR[0u];
 192:.\Generated_Source\PSoC5/USBFS_std.c ****                         }
 193:.\Generated_Source\PSoC5/USBFS_std.c ****                     #else
 194:.\Generated_Source\PSoC5/USBFS_std.c ****                         pStr = (volatile uint8 *)&USBFS_SN_STRING_DESCRIPTOR[0u];
 195:.\Generated_Source\PSoC5/USBFS_std.c ****                     #endif  /* (USBFS_ENABLE_IDSN_STRING) */
 196:.\Generated_Source\PSoC5/USBFS_std.c ****                     }
 197:.\Generated_Source\PSoC5/USBFS_std.c ****                 #endif /* (USBFS_ENABLE_SN_STRING) */
 198:.\Generated_Source\PSoC5/USBFS_std.c ****                 
 199:.\Generated_Source\PSoC5/USBFS_std.c ****                     if (*pStr != 0u)
 200:.\Generated_Source\PSoC5/USBFS_std.c ****                     {
 201:.\Generated_Source\PSoC5/USBFS_std.c ****                         USBFS_currentTD.count = *pStr;
 202:.\Generated_Source\PSoC5/USBFS_std.c ****                         USBFS_currentTD.pData = pStr;
ARM GAS  C:\Users\LAIR\AppData\Local\Temp\cc5n6lZj.s 			page 5


 203:.\Generated_Source\PSoC5/USBFS_std.c ****                         requestHandled  = USBFS_InitControlRead();
 204:.\Generated_Source\PSoC5/USBFS_std.c ****                     }
 205:.\Generated_Source\PSoC5/USBFS_std.c ****                 }
 206:.\Generated_Source\PSoC5/USBFS_std.c ****             #endif /*  USBFS_ENABLE_STRINGS */
 207:.\Generated_Source\PSoC5/USBFS_std.c ****                 else
 208:.\Generated_Source\PSoC5/USBFS_std.c ****                 {
 209:.\Generated_Source\PSoC5/USBFS_std.c ****                     requestHandled = USBFS_DispatchClassRqst();
 210:.\Generated_Source\PSoC5/USBFS_std.c ****                 }
 211:.\Generated_Source\PSoC5/USBFS_std.c ****                 break;
 212:.\Generated_Source\PSoC5/USBFS_std.c ****                 
 213:.\Generated_Source\PSoC5/USBFS_std.c ****             case USBFS_GET_STATUS:
 214:.\Generated_Source\PSoC5/USBFS_std.c ****                 switch (bmRequestType & USBFS_RQST_RCPT_MASK)
 215:.\Generated_Source\PSoC5/USBFS_std.c ****                 {
 216:.\Generated_Source\PSoC5/USBFS_std.c ****                     case USBFS_RQST_RCPT_EP:
 217:.\Generated_Source\PSoC5/USBFS_std.c ****                         USBFS_currentTD.count = USBFS_EP_STATUS_LENGTH;
 218:.\Generated_Source\PSoC5/USBFS_std.c ****                         USBFS_tBuffer[0u]     = USBFS_EP[USBFS_wIndexLoReg & USBFS_DIR_UNUSED].hwEp
 219:.\Generated_Source\PSoC5/USBFS_std.c ****                         USBFS_tBuffer[1u]     = 0u;
 220:.\Generated_Source\PSoC5/USBFS_std.c ****                         USBFS_currentTD.pData = &USBFS_tBuffer[0u];
 221:.\Generated_Source\PSoC5/USBFS_std.c ****                         
 222:.\Generated_Source\PSoC5/USBFS_std.c ****                         requestHandled  = USBFS_InitControlRead();
 223:.\Generated_Source\PSoC5/USBFS_std.c ****                         break;
 224:.\Generated_Source\PSoC5/USBFS_std.c ****                     case USBFS_RQST_RCPT_DEV:
 225:.\Generated_Source\PSoC5/USBFS_std.c ****                         USBFS_currentTD.count = USBFS_DEVICE_STATUS_LENGTH;
 226:.\Generated_Source\PSoC5/USBFS_std.c ****                         USBFS_tBuffer[0u]     = USBFS_deviceStatus;
 227:.\Generated_Source\PSoC5/USBFS_std.c ****                         USBFS_tBuffer[1u]     = 0u;
 228:.\Generated_Source\PSoC5/USBFS_std.c ****                         USBFS_currentTD.pData = &USBFS_tBuffer[0u];
 229:.\Generated_Source\PSoC5/USBFS_std.c ****                         
 230:.\Generated_Source\PSoC5/USBFS_std.c ****                         requestHandled  = USBFS_InitControlRead();
 231:.\Generated_Source\PSoC5/USBFS_std.c ****                         break;
 232:.\Generated_Source\PSoC5/USBFS_std.c ****                     default:    /* requestHandled is initialized as FALSE by default */
 233:.\Generated_Source\PSoC5/USBFS_std.c ****                         break;
 234:.\Generated_Source\PSoC5/USBFS_std.c ****                 }
 235:.\Generated_Source\PSoC5/USBFS_std.c ****                 break;
 236:.\Generated_Source\PSoC5/USBFS_std.c ****                 
 237:.\Generated_Source\PSoC5/USBFS_std.c ****             case USBFS_GET_CONFIGURATION:
 238:.\Generated_Source\PSoC5/USBFS_std.c ****                 USBFS_currentTD.count = 1u;
 239:.\Generated_Source\PSoC5/USBFS_std.c ****                 USBFS_currentTD.pData = (volatile uint8 *) &USBFS_configuration;
 240:.\Generated_Source\PSoC5/USBFS_std.c ****                 requestHandled  = USBFS_InitControlRead();
 241:.\Generated_Source\PSoC5/USBFS_std.c ****                 break;
 242:.\Generated_Source\PSoC5/USBFS_std.c ****                 
 243:.\Generated_Source\PSoC5/USBFS_std.c ****             case USBFS_GET_INTERFACE:
 244:.\Generated_Source\PSoC5/USBFS_std.c ****                 USBFS_currentTD.count = 1u;
 245:.\Generated_Source\PSoC5/USBFS_std.c ****                 USBFS_currentTD.pData = (volatile uint8 *) &USBFS_interfaceSetting[USBFS_wIndexLoRe
 246:.\Generated_Source\PSoC5/USBFS_std.c ****                 requestHandled  = USBFS_InitControlRead();
 247:.\Generated_Source\PSoC5/USBFS_std.c ****                 break;
 248:.\Generated_Source\PSoC5/USBFS_std.c ****                 
 249:.\Generated_Source\PSoC5/USBFS_std.c ****             default: /* requestHandled is initialized as FALSE by default */
 250:.\Generated_Source\PSoC5/USBFS_std.c ****                 break;
 251:.\Generated_Source\PSoC5/USBFS_std.c ****         }
 252:.\Generated_Source\PSoC5/USBFS_std.c ****     }
 253:.\Generated_Source\PSoC5/USBFS_std.c ****     else
 254:.\Generated_Source\PSoC5/USBFS_std.c ****     {
 255:.\Generated_Source\PSoC5/USBFS_std.c ****         /* Control Write */
 256:.\Generated_Source\PSoC5/USBFS_std.c ****         switch (USBFS_bRequestReg)
 257:.\Generated_Source\PSoC5/USBFS_std.c ****         {
 258:.\Generated_Source\PSoC5/USBFS_std.c ****             case USBFS_SET_ADDRESS:
 259:.\Generated_Source\PSoC5/USBFS_std.c ****                 /* Store address to be set in USBFS_NoDataControlStatusStage(). */
ARM GAS  C:\Users\LAIR\AppData\Local\Temp\cc5n6lZj.s 			page 6


 260:.\Generated_Source\PSoC5/USBFS_std.c ****                 USBFS_deviceAddress = (uint8) USBFS_wValueLoReg;
 261:.\Generated_Source\PSoC5/USBFS_std.c ****                 requestHandled = USBFS_InitNoDataControlTransfer();
 262:.\Generated_Source\PSoC5/USBFS_std.c ****                 break;
 263:.\Generated_Source\PSoC5/USBFS_std.c ****                 
 264:.\Generated_Source\PSoC5/USBFS_std.c ****             case USBFS_SET_CONFIGURATION:
 265:.\Generated_Source\PSoC5/USBFS_std.c ****                 configurationN = USBFS_wValueLoReg;
 266:.\Generated_Source\PSoC5/USBFS_std.c ****                 
 267:.\Generated_Source\PSoC5/USBFS_std.c ****                 /* Verify that configuration descriptor exists */
 268:.\Generated_Source\PSoC5/USBFS_std.c ****                 if(configurationN > 0u)
 269:.\Generated_Source\PSoC5/USBFS_std.c ****                 {
 270:.\Generated_Source\PSoC5/USBFS_std.c ****                     pTmp = USBFS_GetConfigTablePtr((uint8) configurationN - 1u);
 271:.\Generated_Source\PSoC5/USBFS_std.c ****                 }
 272:.\Generated_Source\PSoC5/USBFS_std.c ****                 
 273:.\Generated_Source\PSoC5/USBFS_std.c ****                 /* Responds with a Request Error when configuration number is invalid */
 274:.\Generated_Source\PSoC5/USBFS_std.c ****                 if (((configurationN > 0u) && (pTmp != NULL)) || (configurationN == 0u))
 275:.\Generated_Source\PSoC5/USBFS_std.c ****                 {
 276:.\Generated_Source\PSoC5/USBFS_std.c ****                     /* Set new configuration if it has been changed */
 277:.\Generated_Source\PSoC5/USBFS_std.c ****                     if(configurationN != USBFS_configuration)
 278:.\Generated_Source\PSoC5/USBFS_std.c ****                     {
 279:.\Generated_Source\PSoC5/USBFS_std.c ****                         USBFS_configuration = (uint8) configurationN;
 280:.\Generated_Source\PSoC5/USBFS_std.c ****                         USBFS_configurationChanged = USBFS_TRUE;
 281:.\Generated_Source\PSoC5/USBFS_std.c ****                         USBFS_Config(USBFS_TRUE);
 282:.\Generated_Source\PSoC5/USBFS_std.c ****                     }
 283:.\Generated_Source\PSoC5/USBFS_std.c ****                     requestHandled = USBFS_InitNoDataControlTransfer();
 284:.\Generated_Source\PSoC5/USBFS_std.c ****                 }
 285:.\Generated_Source\PSoC5/USBFS_std.c ****                 break;
 286:.\Generated_Source\PSoC5/USBFS_std.c ****                 
 287:.\Generated_Source\PSoC5/USBFS_std.c ****             case USBFS_SET_INTERFACE:
 288:.\Generated_Source\PSoC5/USBFS_std.c ****                 if (0u != USBFS_ValidateAlternateSetting())
 289:.\Generated_Source\PSoC5/USBFS_std.c ****                 {
 290:.\Generated_Source\PSoC5/USBFS_std.c ****                     /* Get interface number from the request. */
 291:.\Generated_Source\PSoC5/USBFS_std.c ****                     interfaceNumber = USBFS_wIndexLoReg;
 292:.\Generated_Source\PSoC5/USBFS_std.c ****                     USBFS_interfaceNumber = (uint8) USBFS_wIndexLoReg;
 293:.\Generated_Source\PSoC5/USBFS_std.c ****                      
 294:.\Generated_Source\PSoC5/USBFS_std.c ****                     /* Check if alternate settings is changed for interface. */
 295:.\Generated_Source\PSoC5/USBFS_std.c ****                     if (USBFS_interfaceSettingLast[interfaceNumber] != USBFS_interfaceSetting[inter
 296:.\Generated_Source\PSoC5/USBFS_std.c ****                     {
 297:.\Generated_Source\PSoC5/USBFS_std.c ****                         USBFS_configurationChanged = USBFS_TRUE;
 298:.\Generated_Source\PSoC5/USBFS_std.c ****                     
 299:.\Generated_Source\PSoC5/USBFS_std.c ****                         /* Change alternate setting for the endpoints. */
 300:.\Generated_Source\PSoC5/USBFS_std.c ****                     #if (USBFS_EP_MANAGEMENT_MANUAL && USBFS_EP_ALLOC_DYNAMIC)
 301:.\Generated_Source\PSoC5/USBFS_std.c ****                         USBFS_Config(USBFS_FALSE);
 302:.\Generated_Source\PSoC5/USBFS_std.c ****                     #else
 303:.\Generated_Source\PSoC5/USBFS_std.c ****                         USBFS_ConfigAltChanged();
 304:.\Generated_Source\PSoC5/USBFS_std.c ****                     #endif /* (USBFS_EP_MANAGEMENT_MANUAL && USBFS_EP_ALLOC_DYNAMIC) */
 305:.\Generated_Source\PSoC5/USBFS_std.c ****                     }
 306:.\Generated_Source\PSoC5/USBFS_std.c ****                     
 307:.\Generated_Source\PSoC5/USBFS_std.c ****                     requestHandled = USBFS_InitNoDataControlTransfer();
 308:.\Generated_Source\PSoC5/USBFS_std.c ****                 }
 309:.\Generated_Source\PSoC5/USBFS_std.c ****                 break;
 310:.\Generated_Source\PSoC5/USBFS_std.c ****                 
 311:.\Generated_Source\PSoC5/USBFS_std.c ****             case USBFS_CLEAR_FEATURE:
 312:.\Generated_Source\PSoC5/USBFS_std.c ****                 switch (bmRequestType & USBFS_RQST_RCPT_MASK)
 313:.\Generated_Source\PSoC5/USBFS_std.c ****                 {
 314:.\Generated_Source\PSoC5/USBFS_std.c ****                     case USBFS_RQST_RCPT_EP:
 315:.\Generated_Source\PSoC5/USBFS_std.c ****                         if (USBFS_wValueLoReg == USBFS_ENDPOINT_HALT)
 316:.\Generated_Source\PSoC5/USBFS_std.c ****                         {
ARM GAS  C:\Users\LAIR\AppData\Local\Temp\cc5n6lZj.s 			page 7


 317:.\Generated_Source\PSoC5/USBFS_std.c ****                             requestHandled = USBFS_ClearEndpointHalt();
 318:.\Generated_Source\PSoC5/USBFS_std.c ****                         }
 319:.\Generated_Source\PSoC5/USBFS_std.c ****                         break;
 320:.\Generated_Source\PSoC5/USBFS_std.c ****                     case USBFS_RQST_RCPT_DEV:
 321:.\Generated_Source\PSoC5/USBFS_std.c ****                         /* Clear device REMOTE_WAKEUP */
 322:.\Generated_Source\PSoC5/USBFS_std.c ****                         if (USBFS_wValueLoReg == USBFS_DEVICE_REMOTE_WAKEUP)
 323:.\Generated_Source\PSoC5/USBFS_std.c ****                         {
 324:.\Generated_Source\PSoC5/USBFS_std.c ****                             USBFS_deviceStatus &= (uint8)~USBFS_DEVICE_STATUS_REMOTE_WAKEUP;
 325:.\Generated_Source\PSoC5/USBFS_std.c ****                             requestHandled = USBFS_InitNoDataControlTransfer();
 326:.\Generated_Source\PSoC5/USBFS_std.c ****                         }
 327:.\Generated_Source\PSoC5/USBFS_std.c ****                         break;
 328:.\Generated_Source\PSoC5/USBFS_std.c ****                     case USBFS_RQST_RCPT_IFC:
 329:.\Generated_Source\PSoC5/USBFS_std.c ****                         /* Validate interfaceNumber */
 330:.\Generated_Source\PSoC5/USBFS_std.c ****                         if (USBFS_wIndexLoReg < USBFS_MAX_INTERFACES_NUMBER)
 331:.\Generated_Source\PSoC5/USBFS_std.c ****                         {
 332:.\Generated_Source\PSoC5/USBFS_std.c ****                             USBFS_interfaceStatus[USBFS_wIndexLoReg] &= (uint8) ~USBFS_wValueLoReg;
 333:.\Generated_Source\PSoC5/USBFS_std.c ****                             requestHandled = USBFS_InitNoDataControlTransfer();
 334:.\Generated_Source\PSoC5/USBFS_std.c ****                         }
 335:.\Generated_Source\PSoC5/USBFS_std.c ****                         break;
 336:.\Generated_Source\PSoC5/USBFS_std.c ****                     default:    /* requestHandled is initialized as FALSE by default */
 337:.\Generated_Source\PSoC5/USBFS_std.c ****                         break;
 338:.\Generated_Source\PSoC5/USBFS_std.c ****                 }
 339:.\Generated_Source\PSoC5/USBFS_std.c ****                 break;
 340:.\Generated_Source\PSoC5/USBFS_std.c ****                 
 341:.\Generated_Source\PSoC5/USBFS_std.c ****             case USBFS_SET_FEATURE:
 342:.\Generated_Source\PSoC5/USBFS_std.c ****                 switch (bmRequestType & USBFS_RQST_RCPT_MASK)
 343:.\Generated_Source\PSoC5/USBFS_std.c ****                 {
 344:.\Generated_Source\PSoC5/USBFS_std.c ****                     case USBFS_RQST_RCPT_EP:
 345:.\Generated_Source\PSoC5/USBFS_std.c ****                         if (USBFS_wValueLoReg == USBFS_ENDPOINT_HALT)
 346:.\Generated_Source\PSoC5/USBFS_std.c ****                         {
 347:.\Generated_Source\PSoC5/USBFS_std.c ****                             requestHandled = USBFS_SetEndpointHalt();
 348:.\Generated_Source\PSoC5/USBFS_std.c ****                         }
 349:.\Generated_Source\PSoC5/USBFS_std.c ****                         break;
 350:.\Generated_Source\PSoC5/USBFS_std.c ****                         
 351:.\Generated_Source\PSoC5/USBFS_std.c ****                     case USBFS_RQST_RCPT_DEV:
 352:.\Generated_Source\PSoC5/USBFS_std.c ****                         /* Set device REMOTE_WAKEUP */
 353:.\Generated_Source\PSoC5/USBFS_std.c ****                         if (USBFS_wValueLoReg == USBFS_DEVICE_REMOTE_WAKEUP)
 354:.\Generated_Source\PSoC5/USBFS_std.c ****                         {
 355:.\Generated_Source\PSoC5/USBFS_std.c ****                             USBFS_deviceStatus |= USBFS_DEVICE_STATUS_REMOTE_WAKEUP;
 356:.\Generated_Source\PSoC5/USBFS_std.c ****                             requestHandled = USBFS_InitNoDataControlTransfer();
 357:.\Generated_Source\PSoC5/USBFS_std.c ****                         }
 358:.\Generated_Source\PSoC5/USBFS_std.c ****                         break;
 359:.\Generated_Source\PSoC5/USBFS_std.c ****                         
 360:.\Generated_Source\PSoC5/USBFS_std.c ****                     case USBFS_RQST_RCPT_IFC:
 361:.\Generated_Source\PSoC5/USBFS_std.c ****                         /* Validate interfaceNumber */
 362:.\Generated_Source\PSoC5/USBFS_std.c ****                         if (USBFS_wIndexLoReg < USBFS_MAX_INTERFACES_NUMBER)
 363:.\Generated_Source\PSoC5/USBFS_std.c ****                         {
 364:.\Generated_Source\PSoC5/USBFS_std.c ****                             USBFS_interfaceStatus[USBFS_wIndexLoReg] &= (uint8) ~USBFS_wValueLoReg;
 365:.\Generated_Source\PSoC5/USBFS_std.c ****                             requestHandled = USBFS_InitNoDataControlTransfer();
 366:.\Generated_Source\PSoC5/USBFS_std.c ****                         }
 367:.\Generated_Source\PSoC5/USBFS_std.c ****                         break;
 368:.\Generated_Source\PSoC5/USBFS_std.c ****                     
 369:.\Generated_Source\PSoC5/USBFS_std.c ****                     default:    /* requestHandled is initialized as FALSE by default */
 370:.\Generated_Source\PSoC5/USBFS_std.c ****                         break;
 371:.\Generated_Source\PSoC5/USBFS_std.c ****                 }
 372:.\Generated_Source\PSoC5/USBFS_std.c ****                 break;
 373:.\Generated_Source\PSoC5/USBFS_std.c ****                 
ARM GAS  C:\Users\LAIR\AppData\Local\Temp\cc5n6lZj.s 			page 8


 374:.\Generated_Source\PSoC5/USBFS_std.c ****             default:    /* requestHandled is initialized as FALSE by default */
 375:.\Generated_Source\PSoC5/USBFS_std.c ****                 break;
 376:.\Generated_Source\PSoC5/USBFS_std.c ****         }
 377:.\Generated_Source\PSoC5/USBFS_std.c ****     }
 378:.\Generated_Source\PSoC5/USBFS_std.c ****     
 379:.\Generated_Source\PSoC5/USBFS_std.c ****     return (requestHandled);
 380:.\Generated_Source\PSoC5/USBFS_std.c **** }
 381:.\Generated_Source\PSoC5/USBFS_std.c **** 
 382:.\Generated_Source\PSoC5/USBFS_std.c **** 
 383:.\Generated_Source\PSoC5/USBFS_std.c **** #if defined(USBFS_ENABLE_IDSN_STRING)
 384:.\Generated_Source\PSoC5/USBFS_std.c ****     /***************************************************************************
 385:.\Generated_Source\PSoC5/USBFS_std.c ****     * Function Name: USBFS_ReadDieID
 386:.\Generated_Source\PSoC5/USBFS_std.c ****     ************************************************************************//**
 387:.\Generated_Source\PSoC5/USBFS_std.c ****     *
 388:.\Generated_Source\PSoC5/USBFS_std.c ****     *  This routine read Die ID and generate Serial Number string descriptor.
 389:.\Generated_Source\PSoC5/USBFS_std.c ****     *
 390:.\Generated_Source\PSoC5/USBFS_std.c ****     *  \param descr:  pointer on string descriptor. This string size has to be equal or
 391:.\Generated_Source\PSoC5/USBFS_std.c ****     *          greater than USBFS_IDSN_DESCR_LENGTH.
 392:.\Generated_Source\PSoC5/USBFS_std.c ****     *
 393:.\Generated_Source\PSoC5/USBFS_std.c ****     *
 394:.\Generated_Source\PSoC5/USBFS_std.c ****     * \reentrant
 395:.\Generated_Source\PSoC5/USBFS_std.c ****     *  No.
 396:.\Generated_Source\PSoC5/USBFS_std.c ****     *
 397:.\Generated_Source\PSoC5/USBFS_std.c ****     ***************************************************************************/
 398:.\Generated_Source\PSoC5/USBFS_std.c ****     void USBFS_ReadDieID(uint8 descr[]) 
 399:.\Generated_Source\PSoC5/USBFS_std.c ****     {
  27              		.loc 1 399 0
  28              		.cfi_startproc
  29              		@ args = 0, pretend = 0, frame = 32
  30              		@ frame_needed = 0, uses_anonymous_args = 0
  31              	.LVL0:
  32 0000 70B5     		push	{r4, r5, r6, lr}
  33              		.cfi_def_cfa_offset 16
  34              		.cfi_offset 4, -16
  35              		.cfi_offset 5, -12
  36              		.cfi_offset 6, -8
  37              		.cfi_offset 14, -4
  38 0002 88B0     		sub	sp, sp, #32
  39              		.cfi_def_cfa_offset 48
  40 0004 0546     		mov	r5, r0
 400:.\Generated_Source\PSoC5/USBFS_std.c ****         const char8 CYCODE hex[] = "0123456789ABCDEF";
  41              		.loc 1 400 0
  42 0006 03AC     		add	r4, sp, #12
  43 0008 174E     		ldr	r6, .L6
  44 000a 0FCE     		ldmia	r6!, {r0, r1, r2, r3}
  45              	.LVL1:
  46 000c 0FC4     		stmia	r4!, {r0, r1, r2, r3}
  47 000e 3368     		ldr	r3, [r6]
  48 0010 2370     		strb	r3, [r4]
  49              	.LVL2:
 401:.\Generated_Source\PSoC5/USBFS_std.c ****         uint8 i;
 402:.\Generated_Source\PSoC5/USBFS_std.c ****         uint8 j = 0u;
 403:.\Generated_Source\PSoC5/USBFS_std.c ****         uint8 uniqueId[8u];
 404:.\Generated_Source\PSoC5/USBFS_std.c **** 
 405:.\Generated_Source\PSoC5/USBFS_std.c ****         if (NULL != descr)
  50              		.loc 1 405 0
  51 0012 35B3     		cbz	r5, .L1
ARM GAS  C:\Users\LAIR\AppData\Local\Temp\cc5n6lZj.s 			page 9


 406:.\Generated_Source\PSoC5/USBFS_std.c ****         {
 407:.\Generated_Source\PSoC5/USBFS_std.c ****             /* Initialize descriptor header. */
 408:.\Generated_Source\PSoC5/USBFS_std.c ****             descr[0u] = USBFS_IDSN_DESCR_LENGTH;
  52              		.loc 1 408 0
  53 0014 2223     		movs	r3, #34
  54 0016 2B70     		strb	r3, [r5]
 409:.\Generated_Source\PSoC5/USBFS_std.c ****             descr[1u] = USBFS_DESCR_STRING;
  55              		.loc 1 409 0
  56 0018 0323     		movs	r3, #3
  57 001a 6B70     		strb	r3, [r5, #1]
 410:.\Generated_Source\PSoC5/USBFS_std.c ****             
 411:.\Generated_Source\PSoC5/USBFS_std.c ****             /* Unique ID size is 8 bytes. */
 412:.\Generated_Source\PSoC5/USBFS_std.c ****             CyGetUniqueId((uint32 *) uniqueId);
  58              		.loc 1 412 0
  59 001c 01A8     		add	r0, sp, #4
  60 001e FFF7FEFF 		bl	CyGetUniqueId
  61              	.LVL3:
 402:.\Generated_Source\PSoC5/USBFS_std.c ****         uint8 uniqueId[8u];
  62              		.loc 1 402 0
  63 0022 0024     		movs	r4, #0
 413:.\Generated_Source\PSoC5/USBFS_std.c **** 
 414:.\Generated_Source\PSoC5/USBFS_std.c ****             /* Fill descriptor with unique device ID. */
 415:.\Generated_Source\PSoC5/USBFS_std.c ****             for (i = 2u; i < USBFS_IDSN_DESCR_LENGTH; i += 4u)
  64              		.loc 1 415 0
  65 0024 0223     		movs	r3, #2
  66 0026 1AE0     		b	.L3
  67              	.LVL4:
  68              	.L4:
 416:.\Generated_Source\PSoC5/USBFS_std.c ****             {
 417:.\Generated_Source\PSoC5/USBFS_std.c ****                 descr[i]      = (uint8) hex[(uniqueId[j] >> 4u)];
  69              		.loc 1 417 0 discriminator 3
  70 0028 08AA     		add	r2, sp, #32
  71 002a 2244     		add	r2, r2, r4
  72 002c 12F81C2C 		ldrb	r2, [r2, #-28]	@ zero_extendqisi2
  73 0030 08A9     		add	r1, sp, #32
  74 0032 01EB1211 		add	r1, r1, r2, lsr #4
  75 0036 11F8141C 		ldrb	r1, [r1, #-20]	@ zero_extendqisi2
  76 003a E954     		strb	r1, [r5, r3]
 418:.\Generated_Source\PSoC5/USBFS_std.c ****                 descr[i + 1u] = 0u;
  77              		.loc 1 418 0 discriminator 3
  78 003c 581C     		adds	r0, r3, #1
  79 003e 0021     		movs	r1, #0
  80 0040 2954     		strb	r1, [r5, r0]
 419:.\Generated_Source\PSoC5/USBFS_std.c ****                 descr[i + 2u] = (uint8) hex[(uniqueId[j] & 0x0Fu)];
  81              		.loc 1 419 0 discriminator 3
  82 0042 981C     		adds	r0, r3, #2
  83 0044 02F00F02 		and	r2, r2, #15
  84 0048 08AE     		add	r6, sp, #32
  85 004a 3244     		add	r2, r2, r6
  86 004c 12F8142C 		ldrb	r2, [r2, #-20]	@ zero_extendqisi2
  87 0050 2A54     		strb	r2, [r5, r0]
 420:.\Generated_Source\PSoC5/USBFS_std.c ****                 descr[i + 3u] = 0u;
  88              		.loc 1 420 0 discriminator 3
  89 0052 DA1C     		adds	r2, r3, #3
  90 0054 A954     		strb	r1, [r5, r2]
 421:.\Generated_Source\PSoC5/USBFS_std.c ****                 ++j;
  91              		.loc 1 421 0 discriminator 3
ARM GAS  C:\Users\LAIR\AppData\Local\Temp\cc5n6lZj.s 			page 10


  92 0056 0134     		adds	r4, r4, #1
  93              	.LVL5:
  94 0058 E4B2     		uxtb	r4, r4
  95              	.LVL6:
 415:.\Generated_Source\PSoC5/USBFS_std.c ****             {
  96              		.loc 1 415 0 discriminator 3
  97 005a 0433     		adds	r3, r3, #4
  98              	.LVL7:
  99 005c DBB2     		uxtb	r3, r3
 100              	.LVL8:
 101              	.L3:
 415:.\Generated_Source\PSoC5/USBFS_std.c ****             {
 102              		.loc 1 415 0 is_stmt 0 discriminator 1
 103 005e 212B     		cmp	r3, #33
 104 0060 E2D9     		bls	.L4
 105              	.LVL9:
 106              	.L1:
 422:.\Generated_Source\PSoC5/USBFS_std.c ****             }
 423:.\Generated_Source\PSoC5/USBFS_std.c ****         }
 424:.\Generated_Source\PSoC5/USBFS_std.c ****     }
 107              		.loc 1 424 0 is_stmt 1
 108 0062 08B0     		add	sp, sp, #32
 109              		.cfi_def_cfa_offset 16
 110              		@ sp needed
 111 0064 70BD     		pop	{r4, r5, r6, pc}
 112              	.LVL10:
 113              	.L7:
 114 0066 00BF     		.align	2
 115              	.L6:
 116 0068 00000000 		.word	.LC0
 117              		.cfi_endproc
 118              	.LFE1:
 119              		.size	USBFS_ReadDieID, .-USBFS_ReadDieID
 120              		.section	.text.USBFS_ConfigReg,"ax",%progbits
 121              		.align	2
 122              		.global	USBFS_ConfigReg
 123              		.thumb
 124              		.thumb_func
 125              		.type	USBFS_ConfigReg, %function
 126              	USBFS_ConfigReg:
 127              	.LFB2:
 425:.\Generated_Source\PSoC5/USBFS_std.c **** #endif /* (USBFS_ENABLE_IDSN_STRING) */
 426:.\Generated_Source\PSoC5/USBFS_std.c **** 
 427:.\Generated_Source\PSoC5/USBFS_std.c **** 
 428:.\Generated_Source\PSoC5/USBFS_std.c **** /*******************************************************************************
 429:.\Generated_Source\PSoC5/USBFS_std.c **** * Function Name: USBFS_ConfigReg
 430:.\Generated_Source\PSoC5/USBFS_std.c **** ****************************************************************************//**
 431:.\Generated_Source\PSoC5/USBFS_std.c **** *
 432:.\Generated_Source\PSoC5/USBFS_std.c **** *  This routine configures hardware registers from the variables.
 433:.\Generated_Source\PSoC5/USBFS_std.c **** *  It is called from USBFS_Config() function and from RestoreConfig
 434:.\Generated_Source\PSoC5/USBFS_std.c **** *  after Wakeup.
 435:.\Generated_Source\PSoC5/USBFS_std.c **** *
 436:.\Generated_Source\PSoC5/USBFS_std.c **** *******************************************************************************/
 437:.\Generated_Source\PSoC5/USBFS_std.c **** void USBFS_ConfigReg(void) 
 438:.\Generated_Source\PSoC5/USBFS_std.c **** {
 128              		.loc 1 438 0
 129              		.cfi_startproc
ARM GAS  C:\Users\LAIR\AppData\Local\Temp\cc5n6lZj.s 			page 11


 130              		@ args = 0, pretend = 0, frame = 0
 131              		@ frame_needed = 0, uses_anonymous_args = 0
 132              		@ link register save eliminated.
 133 0000 30B4     		push	{r4, r5}
 134              		.cfi_def_cfa_offset 8
 135              		.cfi_offset 4, -8
 136              		.cfi_offset 5, -4
 137              	.LVL11:
 439:.\Generated_Source\PSoC5/USBFS_std.c ****     uint8 ep;
 440:.\Generated_Source\PSoC5/USBFS_std.c **** 
 441:.\Generated_Source\PSoC5/USBFS_std.c **** #if (USBFS_EP_MANAGEMENT_DMA_AUTO)
 442:.\Generated_Source\PSoC5/USBFS_std.c ****     uint8 epType = 0u;
 443:.\Generated_Source\PSoC5/USBFS_std.c **** #endif /* (USBFS_EP_MANAGEMENT_DMA_AUTO) */
 444:.\Generated_Source\PSoC5/USBFS_std.c **** 
 445:.\Generated_Source\PSoC5/USBFS_std.c ****     /* Go thought all endpoints and set hardware configuration */
 446:.\Generated_Source\PSoC5/USBFS_std.c ****     for (ep = USBFS_EP1; ep < USBFS_MAX_EP; ++ep)
 138              		.loc 1 446 0
 139 0002 0122     		movs	r2, #1
 140 0004 40E0     		b	.L9
 141              	.LVL12:
 142              	.L13:
 447:.\Generated_Source\PSoC5/USBFS_std.c ****     {
 448:.\Generated_Source\PSoC5/USBFS_std.c ****         USBFS_ARB_EP_BASE.arbEp[ep].epCfg = USBFS_ARB_EPX_CFG_DEFAULT;
 143              		.loc 1 448 0
 144 0006 1146     		mov	r1, r2
 145 0008 2348     		ldr	r0, .L15
 146 000a 1301     		lsls	r3, r2, #4
 147 000c C418     		adds	r4, r0, r3
 148 000e 0C25     		movs	r5, #12
 149 0010 C554     		strb	r5, [r0, r3]
 449:.\Generated_Source\PSoC5/USBFS_std.c ****         
 450:.\Generated_Source\PSoC5/USBFS_std.c ****     #if (USBFS_EP_MANAGEMENT_DMA)
 451:.\Generated_Source\PSoC5/USBFS_std.c ****         /* Enable arbiter endpoint interrupt sources */
 452:.\Generated_Source\PSoC5/USBFS_std.c ****         USBFS_ARB_EP_BASE.arbEp[ep].epIntEn = USBFS_ARB_EPX_INT_MASK;
 150              		.loc 1 452 0
 151 0012 1F23     		movs	r3, #31
 152 0014 6370     		strb	r3, [r4, #1]
 453:.\Generated_Source\PSoC5/USBFS_std.c ****     #endif /* (USBFS_EP_MANAGEMENT_DMA) */
 454:.\Generated_Source\PSoC5/USBFS_std.c ****     
 455:.\Generated_Source\PSoC5/USBFS_std.c ****         if (USBFS_EP[ep].epMode != USBFS_MODE_DISABLE)
 153              		.loc 1 455 0
 154 0016 02EB4203 		add	r3, r2, r2, lsl #1
 155 001a 9B00     		lsls	r3, r3, #2
 156 001c 1F48     		ldr	r0, .L15+4
 157 001e 0344     		add	r3, r3, r0
 158 0020 5B79     		ldrb	r3, [r3, #5]	@ zero_extendqisi2
 159 0022 13F0FF0F 		tst	r3, #255
 160 0026 12D0     		beq	.L10
 456:.\Generated_Source\PSoC5/USBFS_std.c ****         {
 457:.\Generated_Source\PSoC5/USBFS_std.c ****             if (0u != (USBFS_EP[ep].addr & USBFS_DIR_IN))
 161              		.loc 1 457 0
 162 0028 02EB4203 		add	r3, r2, r2, lsl #1
 163 002c 9B00     		lsls	r3, r3, #2
 164 002e 0344     		add	r3, r3, r0
 165 0030 1B79     		ldrb	r3, [r3, #4]	@ zero_extendqisi2
 166 0032 13F0800F 		tst	r3, #128
 167 0036 04D0     		beq	.L11
ARM GAS  C:\Users\LAIR\AppData\Local\Temp\cc5n6lZj.s 			page 12


 458:.\Generated_Source\PSoC5/USBFS_std.c ****             {
 459:.\Generated_Source\PSoC5/USBFS_std.c ****                 USBFS_SIE_EP_BASE.sieEp[ep].epCr0 = USBFS_MODE_NAK_IN;
 168              		.loc 1 459 0
 169 0038 1001     		lsls	r0, r2, #4
 170 003a 194B     		ldr	r3, .L15+8
 171 003c 0344     		add	r3, r3, r0
 172 003e 9D70     		strb	r5, [r3, #2]
 173 0040 0AE0     		b	.L12
 174              	.L11:
 460:.\Generated_Source\PSoC5/USBFS_std.c ****                 
 461:.\Generated_Source\PSoC5/USBFS_std.c ****             #if (USBFS_EP_MANAGEMENT_DMA_AUTO && CY_PSOC4)
 462:.\Generated_Source\PSoC5/USBFS_std.c ****                 /* Clear DMA_TERMIN for IN endpoint. */
 463:.\Generated_Source\PSoC5/USBFS_std.c ****                 USBFS_ARB_EP_BASE.arbEp[ep].epIntEn &= (uint32) ~USBFS_ARB_EPX_INT_DMA_TERMIN;
 464:.\Generated_Source\PSoC5/USBFS_std.c ****             #endif /* (USBFS_EP_MANAGEMENT_DMA_AUTO && CY_PSOC4) */
 465:.\Generated_Source\PSoC5/USBFS_std.c ****             }
 466:.\Generated_Source\PSoC5/USBFS_std.c ****             else
 467:.\Generated_Source\PSoC5/USBFS_std.c ****             {
 468:.\Generated_Source\PSoC5/USBFS_std.c ****                 USBFS_SIE_EP_BASE.sieEp[ep].epCr0 = USBFS_MODE_NAK_OUT;
 175              		.loc 1 468 0
 176 0042 1001     		lsls	r0, r2, #4
 177 0044 164B     		ldr	r3, .L15+8
 178 0046 0344     		add	r3, r3, r0
 179 0048 0820     		movs	r0, #8
 180 004a 9870     		strb	r0, [r3, #2]
 181 004c 04E0     		b	.L12
 182              	.L10:
 469:.\Generated_Source\PSoC5/USBFS_std.c **** 
 470:.\Generated_Source\PSoC5/USBFS_std.c ****             #if (USBFS_EP_MANAGEMENT_DMA_AUTO)
 471:.\Generated_Source\PSoC5/USBFS_std.c ****                 /* (CY_PSOC4): DMA_TERMIN for OUT endpoint is set above. */
 472:.\Generated_Source\PSoC5/USBFS_std.c ****                 
 473:.\Generated_Source\PSoC5/USBFS_std.c ****                 /* Prepare endpoint type mask. */
 474:.\Generated_Source\PSoC5/USBFS_std.c ****                 epType |= (uint8) (0x01u << (ep - USBFS_EP1));
 475:.\Generated_Source\PSoC5/USBFS_std.c ****             #endif /* (USBFS_EP_MANAGEMENT_DMA_AUTO) */
 476:.\Generated_Source\PSoC5/USBFS_std.c ****             }
 477:.\Generated_Source\PSoC5/USBFS_std.c ****         }
 478:.\Generated_Source\PSoC5/USBFS_std.c ****         else
 479:.\Generated_Source\PSoC5/USBFS_std.c ****         {
 480:.\Generated_Source\PSoC5/USBFS_std.c ****             USBFS_SIE_EP_BASE.sieEp[ep].epCr0 = USBFS_MODE_STALL_DATA_EP;
 183              		.loc 1 480 0
 184 004e 1001     		lsls	r0, r2, #4
 185 0050 134B     		ldr	r3, .L15+8
 186 0052 0344     		add	r3, r3, r0
 187 0054 8020     		movs	r0, #128
 188 0056 9870     		strb	r0, [r3, #2]
 189              	.L12:
 481:.\Generated_Source\PSoC5/USBFS_std.c ****         }
 482:.\Generated_Source\PSoC5/USBFS_std.c ****         
 483:.\Generated_Source\PSoC5/USBFS_std.c ****     #if (!USBFS_EP_MANAGEMENT_DMA_AUTO)
 484:.\Generated_Source\PSoC5/USBFS_std.c ****         #if (CY_PSOC4)
 485:.\Generated_Source\PSoC5/USBFS_std.c ****             USBFS_ARB_EP16_BASE.arbEp[ep].rwRa16  = (uint32) USBFS_EP[ep].buffOffset;
 486:.\Generated_Source\PSoC5/USBFS_std.c ****             USBFS_ARB_EP16_BASE.arbEp[ep].rwWa16  = (uint32) USBFS_EP[ep].buffOffset;
 487:.\Generated_Source\PSoC5/USBFS_std.c ****         #else
 488:.\Generated_Source\PSoC5/USBFS_std.c ****             USBFS_ARB_EP_BASE.arbEp[ep].rwRa    = LO8(USBFS_EP[ep].buffOffset);
 190              		.loc 1 488 0 discriminator 2
 191 0058 4B00     		lsls	r3, r1, #1
 192 005a 0B44     		add	r3, r3, r1
 193 005c 9B00     		lsls	r3, r3, #2
ARM GAS  C:\Users\LAIR\AppData\Local\Temp\cc5n6lZj.s 			page 13


 194 005e 0F48     		ldr	r0, .L15+4
 195 0060 0344     		add	r3, r3, r0
 196 0062 DC88     		ldrh	r4, [r3, #6]
 197 0064 E4B2     		uxtb	r4, r4
 198 0066 0801     		lsls	r0, r1, #4
 199 0068 0B49     		ldr	r1, .L15
 200 006a 0144     		add	r1, r1, r0
 201 006c 8C71     		strb	r4, [r1, #6]
 489:.\Generated_Source\PSoC5/USBFS_std.c ****             USBFS_ARB_EP_BASE.arbEp[ep].rwRaMsb = HI8(USBFS_EP[ep].buffOffset);
 202              		.loc 1 489 0 discriminator 2
 203 006e D888     		ldrh	r0, [r3, #6]
 204 0070 C0F30720 		ubfx	r0, r0, #8, #8
 205 0074 C871     		strb	r0, [r1, #7]
 490:.\Generated_Source\PSoC5/USBFS_std.c ****             USBFS_ARB_EP_BASE.arbEp[ep].rwWa    = LO8(USBFS_EP[ep].buffOffset);
 206              		.loc 1 490 0 discriminator 2
 207 0076 D888     		ldrh	r0, [r3, #6]
 208 0078 C0B2     		uxtb	r0, r0
 209 007a 0871     		strb	r0, [r1, #4]
 491:.\Generated_Source\PSoC5/USBFS_std.c ****             USBFS_ARB_EP_BASE.arbEp[ep].rwWaMsb = HI8(USBFS_EP[ep].buffOffset);
 210              		.loc 1 491 0 discriminator 2
 211 007c DB88     		ldrh	r3, [r3, #6]
 212 007e C3F30723 		ubfx	r3, r3, #8, #8
 213 0082 4B71     		strb	r3, [r1, #5]
 446:.\Generated_Source\PSoC5/USBFS_std.c ****     {
 214              		.loc 1 446 0 discriminator 2
 215 0084 0132     		adds	r2, r2, #1
 216              	.LVL13:
 217 0086 D2B2     		uxtb	r2, r2
 218              	.LVL14:
 219              	.L9:
 446:.\Generated_Source\PSoC5/USBFS_std.c ****     {
 220              		.loc 1 446 0 is_stmt 0 discriminator 1
 221 0088 082A     		cmp	r2, #8
 222 008a BCD9     		bls	.L13
 492:.\Generated_Source\PSoC5/USBFS_std.c ****         #endif /* (CY_PSOC4) */
 493:.\Generated_Source\PSoC5/USBFS_std.c ****     #endif /* (!USBFS_EP_MANAGEMENT_DMA_AUTO) */
 494:.\Generated_Source\PSoC5/USBFS_std.c ****     }
 495:.\Generated_Source\PSoC5/USBFS_std.c **** 
 496:.\Generated_Source\PSoC5/USBFS_std.c **** #if (USBFS_EP_MANAGEMENT_DMA_AUTO)
 497:.\Generated_Source\PSoC5/USBFS_std.c ****      /* BUF_SIZE depend on DMA_THRESS value:0x55-32 bytes  0x44-16 bytes 0x33-8 bytes 0x22-4 bytes 
 498:.\Generated_Source\PSoC5/USBFS_std.c ****     USBFS_BUF_SIZE_REG = USBFS_DMA_BUF_SIZE;
 499:.\Generated_Source\PSoC5/USBFS_std.c **** 
 500:.\Generated_Source\PSoC5/USBFS_std.c ****     /* Configure DMA burst threshold */
 501:.\Generated_Source\PSoC5/USBFS_std.c **** #if (CY_PSOC4)
 502:.\Generated_Source\PSoC5/USBFS_std.c ****     USBFS_DMA_THRES16_REG   = USBFS_DMA_BYTES_PER_BURST;
 503:.\Generated_Source\PSoC5/USBFS_std.c **** #else
 504:.\Generated_Source\PSoC5/USBFS_std.c ****     USBFS_DMA_THRES_REG     = USBFS_DMA_BYTES_PER_BURST;
 505:.\Generated_Source\PSoC5/USBFS_std.c ****     USBFS_DMA_THRES_MSB_REG = 0u;
 506:.\Generated_Source\PSoC5/USBFS_std.c **** #endif /* (CY_PSOC4) */
 507:.\Generated_Source\PSoC5/USBFS_std.c ****     USBFS_EP_ACTIVE_REG = USBFS_DEFAULT_ARB_INT_EN;
 508:.\Generated_Source\PSoC5/USBFS_std.c ****     USBFS_EP_TYPE_REG   = epType;
 509:.\Generated_Source\PSoC5/USBFS_std.c ****     
 510:.\Generated_Source\PSoC5/USBFS_std.c ****     /* Cfg_cmp bit set to 1 once configuration is complete. */
 511:.\Generated_Source\PSoC5/USBFS_std.c ****     /* Lock arbiter configtuation */
 512:.\Generated_Source\PSoC5/USBFS_std.c ****     USBFS_ARB_CFG_REG |= (uint8)  USBFS_ARB_CFG_CFG_CMP;
 513:.\Generated_Source\PSoC5/USBFS_std.c ****     /* Cfg_cmp bit set to 0 during configuration of PFSUSB Registers. */
 514:.\Generated_Source\PSoC5/USBFS_std.c ****     USBFS_ARB_CFG_REG &= (uint8) ~USBFS_ARB_CFG_CFG_CMP;
ARM GAS  C:\Users\LAIR\AppData\Local\Temp\cc5n6lZj.s 			page 14


 515:.\Generated_Source\PSoC5/USBFS_std.c **** 
 516:.\Generated_Source\PSoC5/USBFS_std.c **** #endif /* (USBFS_EP_MANAGEMENT_DMA_AUTO) */
 517:.\Generated_Source\PSoC5/USBFS_std.c **** 
 518:.\Generated_Source\PSoC5/USBFS_std.c ****     /* Enable interrupt SIE interurpt source from EP0-EP1 */
 519:.\Generated_Source\PSoC5/USBFS_std.c ****     USBFS_SIE_EP_INT_EN_REG = (uint8) USBFS_DEFAULT_SIE_EP_INT_EN;
 223              		.loc 1 519 0 is_stmt 1
 224 008c FF22     		movs	r2, #255
 225              	.LVL15:
 226 008e 054B     		ldr	r3, .L15+12
 227 0090 1A70     		strb	r2, [r3]
 520:.\Generated_Source\PSoC5/USBFS_std.c **** }
 228              		.loc 1 520 0
 229 0092 30BC     		pop	{r4, r5}
 230              		.cfi_restore 5
 231              		.cfi_restore 4
 232              		.cfi_def_cfa_offset 0
 233 0094 7047     		bx	lr
 234              	.L16:
 235 0096 00BF     		.align	2
 236              	.L15:
 237 0098 70600040 		.word	1073766512
 238 009c 00000000 		.word	USBFS_EP
 239 00a0 FC5F0040 		.word	1073766396
 240 00a4 0A600040 		.word	1073766410
 241              		.cfi_endproc
 242              	.LFE2:
 243              		.size	USBFS_ConfigReg, .-USBFS_ConfigReg
 244              		.section	.text.USBFS_EpStateInit,"ax",%progbits
 245              		.align	2
 246              		.global	USBFS_EpStateInit
 247              		.thumb
 248              		.thumb_func
 249              		.type	USBFS_EpStateInit, %function
 250              	USBFS_EpStateInit:
 251              	.LFB3:
 521:.\Generated_Source\PSoC5/USBFS_std.c **** 
 522:.\Generated_Source\PSoC5/USBFS_std.c **** 
 523:.\Generated_Source\PSoC5/USBFS_std.c **** /*******************************************************************************
 524:.\Generated_Source\PSoC5/USBFS_std.c **** * Function Name: USBFS_EpStateInit
 525:.\Generated_Source\PSoC5/USBFS_std.c **** ****************************************************************************//**
 526:.\Generated_Source\PSoC5/USBFS_std.c **** *
 527:.\Generated_Source\PSoC5/USBFS_std.c **** *  This routine initialize state of Data end points based of its type: 
 528:.\Generated_Source\PSoC5/USBFS_std.c **** *   IN  - USBFS_IN_BUFFER_EMPTY (USBFS_EVENT_PENDING)
 529:.\Generated_Source\PSoC5/USBFS_std.c **** *   OUT - USBFS_OUT_BUFFER_EMPTY (USBFS_NO_EVENT_PENDING)
 530:.\Generated_Source\PSoC5/USBFS_std.c **** *
 531:.\Generated_Source\PSoC5/USBFS_std.c **** *******************************************************************************/
 532:.\Generated_Source\PSoC5/USBFS_std.c **** void USBFS_EpStateInit(void) 
 533:.\Generated_Source\PSoC5/USBFS_std.c **** {
 252              		.loc 1 533 0
 253              		.cfi_startproc
 254              		@ args = 0, pretend = 0, frame = 0
 255              		@ frame_needed = 0, uses_anonymous_args = 0
 256              		@ link register save eliminated.
 257              	.LVL16:
 534:.\Generated_Source\PSoC5/USBFS_std.c ****     uint8 i;
 535:.\Generated_Source\PSoC5/USBFS_std.c **** 
 536:.\Generated_Source\PSoC5/USBFS_std.c ****     for (i = USBFS_EP1; i < USBFS_MAX_EP; i++)
ARM GAS  C:\Users\LAIR\AppData\Local\Temp\cc5n6lZj.s 			page 15


 258              		.loc 1 536 0
 259 0000 0123     		movs	r3, #1
 260 0002 18E0     		b	.L18
 261              	.LVL17:
 262              	.L21:
 537:.\Generated_Source\PSoC5/USBFS_std.c ****     { 
 538:.\Generated_Source\PSoC5/USBFS_std.c ****         if (0u != (USBFS_EP[i].addr & USBFS_DIR_IN))
 263              		.loc 1 538 0
 264 0004 03EB4302 		add	r2, r3, r3, lsl #1
 265 0008 9200     		lsls	r2, r2, #2
 266 000a 0C49     		ldr	r1, .L22
 267 000c 0A44     		add	r2, r2, r1
 268 000e 1279     		ldrb	r2, [r2, #4]	@ zero_extendqisi2
 269 0010 12F0800F 		tst	r2, #128
 270 0014 06D0     		beq	.L19
 539:.\Generated_Source\PSoC5/USBFS_std.c ****         {
 540:.\Generated_Source\PSoC5/USBFS_std.c ****             /* IN Endpoint */
 541:.\Generated_Source\PSoC5/USBFS_std.c ****             USBFS_EP[i].apiEpState = USBFS_EVENT_PENDING;
 271              		.loc 1 541 0
 272 0016 03EB4302 		add	r2, r3, r3, lsl #1
 273 001a 9200     		lsls	r2, r2, #2
 274 001c 0A44     		add	r2, r2, r1
 275 001e 0121     		movs	r1, #1
 276 0020 5170     		strb	r1, [r2, #1]
 277 0022 06E0     		b	.L20
 278              	.L19:
 542:.\Generated_Source\PSoC5/USBFS_std.c ****         }
 543:.\Generated_Source\PSoC5/USBFS_std.c ****         else
 544:.\Generated_Source\PSoC5/USBFS_std.c ****         {
 545:.\Generated_Source\PSoC5/USBFS_std.c ****             /* OUT Endpoint */
 546:.\Generated_Source\PSoC5/USBFS_std.c ****             USBFS_EP[i].apiEpState = USBFS_NO_EVENT_PENDING;
 279              		.loc 1 546 0
 280 0024 03EB4302 		add	r2, r3, r3, lsl #1
 281 0028 9200     		lsls	r2, r2, #2
 282 002a 0449     		ldr	r1, .L22
 283 002c 0A44     		add	r2, r2, r1
 284 002e 0021     		movs	r1, #0
 285 0030 5170     		strb	r1, [r2, #1]
 286              	.L20:
 536:.\Generated_Source\PSoC5/USBFS_std.c ****     { 
 287              		.loc 1 536 0 discriminator 2
 288 0032 0133     		adds	r3, r3, #1
 289              	.LVL18:
 290 0034 DBB2     		uxtb	r3, r3
 291              	.LVL19:
 292              	.L18:
 536:.\Generated_Source\PSoC5/USBFS_std.c ****     { 
 293              		.loc 1 536 0 is_stmt 0 discriminator 1
 294 0036 082B     		cmp	r3, #8
 295 0038 E4D9     		bls	.L21
 547:.\Generated_Source\PSoC5/USBFS_std.c ****         }
 548:.\Generated_Source\PSoC5/USBFS_std.c ****     }
 549:.\Generated_Source\PSoC5/USBFS_std.c ****                     
 550:.\Generated_Source\PSoC5/USBFS_std.c **** }
 296              		.loc 1 550 0 is_stmt 1
 297 003a 7047     		bx	lr
 298              	.L23:
ARM GAS  C:\Users\LAIR\AppData\Local\Temp\cc5n6lZj.s 			page 16


 299              		.align	2
 300              	.L22:
 301 003c 00000000 		.word	USBFS_EP
 302              		.cfi_endproc
 303              	.LFE3:
 304              		.size	USBFS_EpStateInit, .-USBFS_EpStateInit
 305              		.section	.text.USBFS_GetConfigTablePtr,"ax",%progbits
 306              		.align	2
 307              		.global	USBFS_GetConfigTablePtr
 308              		.thumb
 309              		.thumb_func
 310              		.type	USBFS_GetConfigTablePtr, %function
 311              	USBFS_GetConfigTablePtr:
 312              	.LFB6:
 551:.\Generated_Source\PSoC5/USBFS_std.c **** 
 552:.\Generated_Source\PSoC5/USBFS_std.c **** 
 553:.\Generated_Source\PSoC5/USBFS_std.c **** /*******************************************************************************
 554:.\Generated_Source\PSoC5/USBFS_std.c **** * Function Name: USBFS_Config
 555:.\Generated_Source\PSoC5/USBFS_std.c **** ****************************************************************************//**
 556:.\Generated_Source\PSoC5/USBFS_std.c **** *
 557:.\Generated_Source\PSoC5/USBFS_std.c **** *  This routine configures endpoints for the entire configuration by scanning
 558:.\Generated_Source\PSoC5/USBFS_std.c **** *  the configuration descriptor.
 559:.\Generated_Source\PSoC5/USBFS_std.c **** *
 560:.\Generated_Source\PSoC5/USBFS_std.c **** *  \param clearAltSetting: It configures the bAlternateSetting 0 for each interface.
 561:.\Generated_Source\PSoC5/USBFS_std.c **** *
 562:.\Generated_Source\PSoC5/USBFS_std.c **** * USBFS_interfaceClass - Initialized class array for each interface.
 563:.\Generated_Source\PSoC5/USBFS_std.c **** *   It is used for handling Class specific requests depend on interface class.
 564:.\Generated_Source\PSoC5/USBFS_std.c **** *   Different classes in multiple Alternate settings does not supported.
 565:.\Generated_Source\PSoC5/USBFS_std.c **** *
 566:.\Generated_Source\PSoC5/USBFS_std.c **** * \reentrant
 567:.\Generated_Source\PSoC5/USBFS_std.c **** *  No.
 568:.\Generated_Source\PSoC5/USBFS_std.c **** *
 569:.\Generated_Source\PSoC5/USBFS_std.c **** *******************************************************************************/
 570:.\Generated_Source\PSoC5/USBFS_std.c **** void USBFS_Config(uint8 clearAltSetting) 
 571:.\Generated_Source\PSoC5/USBFS_std.c **** {
 572:.\Generated_Source\PSoC5/USBFS_std.c ****     uint8 ep;
 573:.\Generated_Source\PSoC5/USBFS_std.c ****     uint8 curEp;
 574:.\Generated_Source\PSoC5/USBFS_std.c ****     uint8 i;
 575:.\Generated_Source\PSoC5/USBFS_std.c ****     uint8 epType;
 576:.\Generated_Source\PSoC5/USBFS_std.c ****     const uint8 *pDescr;
 577:.\Generated_Source\PSoC5/USBFS_std.c ****     
 578:.\Generated_Source\PSoC5/USBFS_std.c ****     #if (!USBFS_EP_MANAGEMENT_DMA_AUTO)
 579:.\Generated_Source\PSoC5/USBFS_std.c ****         uint16 buffCount = 0u;
 580:.\Generated_Source\PSoC5/USBFS_std.c ****     #endif /* (!USBFS_EP_MANAGEMENT_DMA_AUTO) */
 581:.\Generated_Source\PSoC5/USBFS_std.c **** 
 582:.\Generated_Source\PSoC5/USBFS_std.c ****     const T_USBFS_LUT CYCODE *pTmp;
 583:.\Generated_Source\PSoC5/USBFS_std.c ****     const T_USBFS_EP_SETTINGS_BLOCK CYCODE *pEP;
 584:.\Generated_Source\PSoC5/USBFS_std.c **** 
 585:.\Generated_Source\PSoC5/USBFS_std.c ****     /* Clear endpoints settings */
 586:.\Generated_Source\PSoC5/USBFS_std.c ****     for (ep = 0u; ep < USBFS_MAX_EP; ++ep)
 587:.\Generated_Source\PSoC5/USBFS_std.c ****     {
 588:.\Generated_Source\PSoC5/USBFS_std.c ****         USBFS_EP[ep].attrib     = 0u;
 589:.\Generated_Source\PSoC5/USBFS_std.c ****         USBFS_EP[ep].hwEpState  = 0u;
 590:.\Generated_Source\PSoC5/USBFS_std.c ****         USBFS_EP[ep].epToggle   = 0u;
 591:.\Generated_Source\PSoC5/USBFS_std.c ****         USBFS_EP[ep].bufferSize = 0u;
 592:.\Generated_Source\PSoC5/USBFS_std.c ****         USBFS_EP[ep].interface  = 0u;
 593:.\Generated_Source\PSoC5/USBFS_std.c ****         USBFS_EP[ep].apiEpState = USBFS_NO_EVENT_PENDING;
ARM GAS  C:\Users\LAIR\AppData\Local\Temp\cc5n6lZj.s 			page 17


 594:.\Generated_Source\PSoC5/USBFS_std.c ****         USBFS_EP[ep].epMode     = USBFS_MODE_DISABLE;   
 595:.\Generated_Source\PSoC5/USBFS_std.c ****     }
 596:.\Generated_Source\PSoC5/USBFS_std.c **** 
 597:.\Generated_Source\PSoC5/USBFS_std.c ****     /* Clear Alternate settings for all interfaces. */
 598:.\Generated_Source\PSoC5/USBFS_std.c ****     if (0u != clearAltSetting)
 599:.\Generated_Source\PSoC5/USBFS_std.c ****     {
 600:.\Generated_Source\PSoC5/USBFS_std.c ****         for (i = 0u; i < USBFS_MAX_INTERFACES_NUMBER; ++i)
 601:.\Generated_Source\PSoC5/USBFS_std.c ****         {
 602:.\Generated_Source\PSoC5/USBFS_std.c ****             USBFS_interfaceSetting[i]     = 0u;
 603:.\Generated_Source\PSoC5/USBFS_std.c ****             USBFS_interfaceSettingLast[i] = 0u;
 604:.\Generated_Source\PSoC5/USBFS_std.c ****         }
 605:.\Generated_Source\PSoC5/USBFS_std.c ****     }
 606:.\Generated_Source\PSoC5/USBFS_std.c **** 
 607:.\Generated_Source\PSoC5/USBFS_std.c ****     /* Init Endpoints and Device Status if configured */
 608:.\Generated_Source\PSoC5/USBFS_std.c ****     if (USBFS_configuration > 0u)
 609:.\Generated_Source\PSoC5/USBFS_std.c ****     {
 610:.\Generated_Source\PSoC5/USBFS_std.c ****         #if defined(USBFS_ENABLE_CDC_CLASS)
 611:.\Generated_Source\PSoC5/USBFS_std.c ****             uint8 cdcComNums = 0u;
 612:.\Generated_Source\PSoC5/USBFS_std.c ****         #endif  /* (USBFS_ENABLE_CDC_CLASS) */  
 613:.\Generated_Source\PSoC5/USBFS_std.c **** 
 614:.\Generated_Source\PSoC5/USBFS_std.c ****         pTmp = USBFS_GetConfigTablePtr(USBFS_configuration - 1u);
 615:.\Generated_Source\PSoC5/USBFS_std.c ****         
 616:.\Generated_Source\PSoC5/USBFS_std.c ****         /* Set Power status for current configuration */
 617:.\Generated_Source\PSoC5/USBFS_std.c ****         pDescr = (const uint8 *)pTmp->p_list;
 618:.\Generated_Source\PSoC5/USBFS_std.c ****         if ((pDescr[USBFS_CONFIG_DESCR_ATTRIB] & USBFS_CONFIG_DESCR_ATTRIB_SELF_POWERED) != 0u)
 619:.\Generated_Source\PSoC5/USBFS_std.c ****         {
 620:.\Generated_Source\PSoC5/USBFS_std.c ****             USBFS_deviceStatus |= (uint8)  USBFS_DEVICE_STATUS_SELF_POWERED;
 621:.\Generated_Source\PSoC5/USBFS_std.c ****         }
 622:.\Generated_Source\PSoC5/USBFS_std.c ****         else
 623:.\Generated_Source\PSoC5/USBFS_std.c ****         {
 624:.\Generated_Source\PSoC5/USBFS_std.c ****             USBFS_deviceStatus &= (uint8) ~USBFS_DEVICE_STATUS_SELF_POWERED;
 625:.\Generated_Source\PSoC5/USBFS_std.c ****         }
 626:.\Generated_Source\PSoC5/USBFS_std.c ****         
 627:.\Generated_Source\PSoC5/USBFS_std.c ****         /* Move to next element */
 628:.\Generated_Source\PSoC5/USBFS_std.c ****         pTmp = &pTmp[1u];
 629:.\Generated_Source\PSoC5/USBFS_std.c ****         ep = pTmp->c;  /* For this table, c is the number of endpoints configurations  */
 630:.\Generated_Source\PSoC5/USBFS_std.c **** 
 631:.\Generated_Source\PSoC5/USBFS_std.c ****         #if (USBFS_EP_MANAGEMENT_MANUAL && USBFS_EP_ALLOC_DYNAMIC)
 632:.\Generated_Source\PSoC5/USBFS_std.c ****             /* Configure for dynamic EP memory allocation */
 633:.\Generated_Source\PSoC5/USBFS_std.c ****             /* p_list points the endpoint setting table. */
 634:.\Generated_Source\PSoC5/USBFS_std.c ****             pEP = (T_USBFS_EP_SETTINGS_BLOCK *) pTmp->p_list;
 635:.\Generated_Source\PSoC5/USBFS_std.c ****             
 636:.\Generated_Source\PSoC5/USBFS_std.c ****             for (i = 0u; i < ep; i++)
 637:.\Generated_Source\PSoC5/USBFS_std.c ****             {     
 638:.\Generated_Source\PSoC5/USBFS_std.c ****                 /* Compare current Alternate setting with EP Alt */
 639:.\Generated_Source\PSoC5/USBFS_std.c ****                 if (USBFS_interfaceSetting[pEP->interface] == pEP->altSetting)
 640:.\Generated_Source\PSoC5/USBFS_std.c ****                 {                                                          
 641:.\Generated_Source\PSoC5/USBFS_std.c ****                     curEp  = pEP->addr & USBFS_DIR_UNUSED;
 642:.\Generated_Source\PSoC5/USBFS_std.c ****                     epType = pEP->attributes & USBFS_EP_TYPE_MASK;
 643:.\Generated_Source\PSoC5/USBFS_std.c ****                     
 644:.\Generated_Source\PSoC5/USBFS_std.c ****                     USBFS_EP[curEp].addr       = pEP->addr;
 645:.\Generated_Source\PSoC5/USBFS_std.c ****                     USBFS_EP[curEp].attrib     = pEP->attributes;
 646:.\Generated_Source\PSoC5/USBFS_std.c ****                     USBFS_EP[curEp].bufferSize = pEP->bufferSize;
 647:.\Generated_Source\PSoC5/USBFS_std.c **** 
 648:.\Generated_Source\PSoC5/USBFS_std.c ****                     if (0u != (pEP->addr & USBFS_DIR_IN))
 649:.\Generated_Source\PSoC5/USBFS_std.c ****                     {
 650:.\Generated_Source\PSoC5/USBFS_std.c ****                         /* IN Endpoint */
ARM GAS  C:\Users\LAIR\AppData\Local\Temp\cc5n6lZj.s 			page 18


 651:.\Generated_Source\PSoC5/USBFS_std.c ****                         USBFS_EP[curEp].epMode     = USBFS_GET_ACTIVE_IN_EP_CR0_MODE(epType);
 652:.\Generated_Source\PSoC5/USBFS_std.c ****                         USBFS_EP[curEp].apiEpState = USBFS_EVENT_PENDING;
 653:.\Generated_Source\PSoC5/USBFS_std.c ****                     
 654:.\Generated_Source\PSoC5/USBFS_std.c ****                     #if (defined(USBFS_ENABLE_MIDI_STREAMING) && (USBFS_MIDI_IN_BUFF_SIZE > 0))
 655:.\Generated_Source\PSoC5/USBFS_std.c ****                         if ((pEP->bMisc == USBFS_CLASS_AUDIO) && (epType == USBFS_EP_TYPE_BULK))
 656:.\Generated_Source\PSoC5/USBFS_std.c ****                         {
 657:.\Generated_Source\PSoC5/USBFS_std.c ****                             USBFS_midi_in_ep = curEp;
 658:.\Generated_Source\PSoC5/USBFS_std.c ****                         }
 659:.\Generated_Source\PSoC5/USBFS_std.c ****                     #endif  /* (USBFS_ENABLE_MIDI_STREAMING) */
 660:.\Generated_Source\PSoC5/USBFS_std.c ****                     }
 661:.\Generated_Source\PSoC5/USBFS_std.c ****                     else
 662:.\Generated_Source\PSoC5/USBFS_std.c ****                     {
 663:.\Generated_Source\PSoC5/USBFS_std.c ****                         /* OUT Endpoint */
 664:.\Generated_Source\PSoC5/USBFS_std.c ****                         USBFS_EP[curEp].epMode     = USBFS_GET_ACTIVE_OUT_EP_CR0_MODE(epType);
 665:.\Generated_Source\PSoC5/USBFS_std.c ****                         USBFS_EP[curEp].apiEpState = USBFS_NO_EVENT_PENDING;
 666:.\Generated_Source\PSoC5/USBFS_std.c ****                         
 667:.\Generated_Source\PSoC5/USBFS_std.c ****                     #if (defined(USBFS_ENABLE_MIDI_STREAMING) && (USBFS_MIDI_OUT_BUFF_SIZE > 0))
 668:.\Generated_Source\PSoC5/USBFS_std.c ****                         if ((pEP->bMisc == USBFS_CLASS_AUDIO) && (epType == USBFS_EP_TYPE_BULK))
 669:.\Generated_Source\PSoC5/USBFS_std.c ****                         {
 670:.\Generated_Source\PSoC5/USBFS_std.c ****                             USBFS_midi_out_ep = curEp;
 671:.\Generated_Source\PSoC5/USBFS_std.c ****                         }
 672:.\Generated_Source\PSoC5/USBFS_std.c ****                     #endif  /* (USBFS_ENABLE_MIDI_STREAMING) */
 673:.\Generated_Source\PSoC5/USBFS_std.c ****                     }
 674:.\Generated_Source\PSoC5/USBFS_std.c **** 
 675:.\Generated_Source\PSoC5/USBFS_std.c ****                 #if(defined (USBFS_ENABLE_CDC_CLASS))
 676:.\Generated_Source\PSoC5/USBFS_std.c ****                     if((pEP->bMisc == USBFS_CLASS_CDC_DATA) ||(pEP->bMisc == USBFS_CLASS_CDC))
 677:.\Generated_Source\PSoC5/USBFS_std.c ****                     {
 678:.\Generated_Source\PSoC5/USBFS_std.c ****                         cdcComNums = USBFS_Cdc_EpInit(pEP, curEp, cdcComNums);
 679:.\Generated_Source\PSoC5/USBFS_std.c ****                     }
 680:.\Generated_Source\PSoC5/USBFS_std.c ****                 #endif  /* (USBFS_ENABLE_CDC_CLASS) */
 681:.\Generated_Source\PSoC5/USBFS_std.c ****                 }
 682:.\Generated_Source\PSoC5/USBFS_std.c ****                 
 683:.\Generated_Source\PSoC5/USBFS_std.c ****                 pEP = &pEP[1u];
 684:.\Generated_Source\PSoC5/USBFS_std.c ****             }
 685:.\Generated_Source\PSoC5/USBFS_std.c ****             
 686:.\Generated_Source\PSoC5/USBFS_std.c ****         #else
 687:.\Generated_Source\PSoC5/USBFS_std.c ****             for (i = USBFS_EP1; i < USBFS_MAX_EP; ++i)
 688:.\Generated_Source\PSoC5/USBFS_std.c ****             {
 689:.\Generated_Source\PSoC5/USBFS_std.c ****                 /* p_list points the endpoint setting table. */
 690:.\Generated_Source\PSoC5/USBFS_std.c ****                 pEP = (const T_USBFS_EP_SETTINGS_BLOCK CYCODE *) pTmp->p_list;
 691:.\Generated_Source\PSoC5/USBFS_std.c ****                 /* Find max length for each EP and select it (length could be different in differen
 692:.\Generated_Source\PSoC5/USBFS_std.c ****                 /* but other settings should be correct with regards to Interface alt Setting */
 693:.\Generated_Source\PSoC5/USBFS_std.c ****                 
 694:.\Generated_Source\PSoC5/USBFS_std.c ****                 for (curEp = 0u; curEp < ep; ++curEp)
 695:.\Generated_Source\PSoC5/USBFS_std.c ****                 {
 696:.\Generated_Source\PSoC5/USBFS_std.c ****                     if (i == (pEP->addr & USBFS_DIR_UNUSED))
 697:.\Generated_Source\PSoC5/USBFS_std.c ****                     {
 698:.\Generated_Source\PSoC5/USBFS_std.c ****                         /* Compare endpoint buffers size with current size to find greater. */
 699:.\Generated_Source\PSoC5/USBFS_std.c ****                         if (USBFS_EP[i].bufferSize < pEP->bufferSize)
 700:.\Generated_Source\PSoC5/USBFS_std.c ****                         {
 701:.\Generated_Source\PSoC5/USBFS_std.c ****                             USBFS_EP[i].bufferSize = pEP->bufferSize;
 702:.\Generated_Source\PSoC5/USBFS_std.c ****                         }
 703:.\Generated_Source\PSoC5/USBFS_std.c ****                         
 704:.\Generated_Source\PSoC5/USBFS_std.c ****                         /* Compare current Alternate setting with EP Alt */
 705:.\Generated_Source\PSoC5/USBFS_std.c ****                         if (USBFS_interfaceSetting[pEP->interface] == pEP->altSetting)
 706:.\Generated_Source\PSoC5/USBFS_std.c ****                         {                            
 707:.\Generated_Source\PSoC5/USBFS_std.c ****                             USBFS_EP[i].addr = pEP->addr;
ARM GAS  C:\Users\LAIR\AppData\Local\Temp\cc5n6lZj.s 			page 19


 708:.\Generated_Source\PSoC5/USBFS_std.c ****                             USBFS_EP[i].attrib = pEP->attributes;
 709:.\Generated_Source\PSoC5/USBFS_std.c ****                             
 710:.\Generated_Source\PSoC5/USBFS_std.c ****                             epType = pEP->attributes & USBFS_EP_TYPE_MASK;
 711:.\Generated_Source\PSoC5/USBFS_std.c ****                             
 712:.\Generated_Source\PSoC5/USBFS_std.c ****                             if (0u != (pEP->addr & USBFS_DIR_IN))
 713:.\Generated_Source\PSoC5/USBFS_std.c ****                             {
 714:.\Generated_Source\PSoC5/USBFS_std.c ****                                 /* IN Endpoint */
 715:.\Generated_Source\PSoC5/USBFS_std.c ****                                 USBFS_EP[i].epMode     = USBFS_GET_ACTIVE_IN_EP_CR0_MODE(epType);
 716:.\Generated_Source\PSoC5/USBFS_std.c ****                                 USBFS_EP[i].apiEpState = USBFS_EVENT_PENDING;
 717:.\Generated_Source\PSoC5/USBFS_std.c ****                                 
 718:.\Generated_Source\PSoC5/USBFS_std.c ****                             #if (defined(USBFS_ENABLE_MIDI_STREAMING) && (USBFS_MIDI_IN_BUFF_SIZE >
 719:.\Generated_Source\PSoC5/USBFS_std.c ****                                 if ((pEP->bMisc == USBFS_CLASS_AUDIO) && (epType == USBFS_EP_TYPE_B
 720:.\Generated_Source\PSoC5/USBFS_std.c ****                                 {
 721:.\Generated_Source\PSoC5/USBFS_std.c ****                                     USBFS_midi_in_ep = i;
 722:.\Generated_Source\PSoC5/USBFS_std.c ****                                 }
 723:.\Generated_Source\PSoC5/USBFS_std.c ****                             #endif  /* (USBFS_ENABLE_MIDI_STREAMING) */
 724:.\Generated_Source\PSoC5/USBFS_std.c ****                             }
 725:.\Generated_Source\PSoC5/USBFS_std.c ****                             else
 726:.\Generated_Source\PSoC5/USBFS_std.c ****                             {
 727:.\Generated_Source\PSoC5/USBFS_std.c ****                                 /* OUT Endpoint */
 728:.\Generated_Source\PSoC5/USBFS_std.c ****                                 USBFS_EP[i].epMode     = USBFS_GET_ACTIVE_OUT_EP_CR0_MODE(epType);
 729:.\Generated_Source\PSoC5/USBFS_std.c ****                                 USBFS_EP[i].apiEpState = USBFS_NO_EVENT_PENDING;
 730:.\Generated_Source\PSoC5/USBFS_std.c ****                                 
 731:.\Generated_Source\PSoC5/USBFS_std.c ****                             #if (defined(USBFS_ENABLE_MIDI_STREAMING) && (USBFS_MIDI_OUT_BUFF_SIZE 
 732:.\Generated_Source\PSoC5/USBFS_std.c ****                                 if ((pEP->bMisc == USBFS_CLASS_AUDIO) && (epType == USBFS_EP_TYPE_B
 733:.\Generated_Source\PSoC5/USBFS_std.c ****                                 {
 734:.\Generated_Source\PSoC5/USBFS_std.c ****                                     USBFS_midi_out_ep = i;
 735:.\Generated_Source\PSoC5/USBFS_std.c ****                                 }
 736:.\Generated_Source\PSoC5/USBFS_std.c ****                             #endif  /* (USBFS_ENABLE_MIDI_STREAMING) */
 737:.\Generated_Source\PSoC5/USBFS_std.c ****                             }
 738:.\Generated_Source\PSoC5/USBFS_std.c **** 
 739:.\Generated_Source\PSoC5/USBFS_std.c ****                         #if (defined(USBFS_ENABLE_CDC_CLASS))
 740:.\Generated_Source\PSoC5/USBFS_std.c ****                             if((pEP->bMisc == USBFS_CLASS_CDC_DATA) ||(pEP->bMisc == USBFS_CLASS_CD
 741:.\Generated_Source\PSoC5/USBFS_std.c ****                             {
 742:.\Generated_Source\PSoC5/USBFS_std.c ****                                 cdcComNums = USBFS_Cdc_EpInit(pEP, i, cdcComNums);
 743:.\Generated_Source\PSoC5/USBFS_std.c ****                             }
 744:.\Generated_Source\PSoC5/USBFS_std.c ****                         #endif  /* (USBFS_ENABLE_CDC_CLASS) */
 745:.\Generated_Source\PSoC5/USBFS_std.c **** 
 746:.\Generated_Source\PSoC5/USBFS_std.c ****                             #if (USBFS_EP_MANAGEMENT_DMA_AUTO)
 747:.\Generated_Source\PSoC5/USBFS_std.c ****                                 break;  /* Use first EP setting in Auto memory management */
 748:.\Generated_Source\PSoC5/USBFS_std.c ****                             #endif /* (USBFS_EP_MANAGEMENT_DMA_AUTO) */
 749:.\Generated_Source\PSoC5/USBFS_std.c ****                         }
 750:.\Generated_Source\PSoC5/USBFS_std.c ****                     }
 751:.\Generated_Source\PSoC5/USBFS_std.c ****                     
 752:.\Generated_Source\PSoC5/USBFS_std.c ****                     pEP = &pEP[1u];
 753:.\Generated_Source\PSoC5/USBFS_std.c ****                 }
 754:.\Generated_Source\PSoC5/USBFS_std.c ****             }
 755:.\Generated_Source\PSoC5/USBFS_std.c ****         #endif /*  (USBFS_EP_MANAGEMENT_MANUAL && USBFS_EP_ALLOC_DYNAMIC) */
 756:.\Generated_Source\PSoC5/USBFS_std.c **** 
 757:.\Generated_Source\PSoC5/USBFS_std.c ****         /* Init class array for each interface and interface number for each EP.
 758:.\Generated_Source\PSoC5/USBFS_std.c ****         *  It is used for handling Class specific requests directed to either an
 759:.\Generated_Source\PSoC5/USBFS_std.c ****         *  interface or the endpoint.
 760:.\Generated_Source\PSoC5/USBFS_std.c ****         */
 761:.\Generated_Source\PSoC5/USBFS_std.c ****         /* p_list points the endpoint setting table. */
 762:.\Generated_Source\PSoC5/USBFS_std.c ****         pEP = (const T_USBFS_EP_SETTINGS_BLOCK CYCODE *) pTmp->p_list;
 763:.\Generated_Source\PSoC5/USBFS_std.c ****         for (i = 0u; i < ep; i++)
 764:.\Generated_Source\PSoC5/USBFS_std.c ****         {
ARM GAS  C:\Users\LAIR\AppData\Local\Temp\cc5n6lZj.s 			page 20


 765:.\Generated_Source\PSoC5/USBFS_std.c ****             /* Configure interface number for each EP */
 766:.\Generated_Source\PSoC5/USBFS_std.c ****             USBFS_EP[pEP->addr & USBFS_DIR_UNUSED].interface = pEP->interface;
 767:.\Generated_Source\PSoC5/USBFS_std.c ****             pEP = &pEP[1u];
 768:.\Generated_Source\PSoC5/USBFS_std.c ****         }
 769:.\Generated_Source\PSoC5/USBFS_std.c ****         
 770:.\Generated_Source\PSoC5/USBFS_std.c ****         /* Init pointer on interface class table */
 771:.\Generated_Source\PSoC5/USBFS_std.c ****         USBFS_interfaceClass = USBFS_GetInterfaceClassTablePtr();
 772:.\Generated_Source\PSoC5/USBFS_std.c ****         
 773:.\Generated_Source\PSoC5/USBFS_std.c ****     /* Set the endpoint buffer addresses */
 774:.\Generated_Source\PSoC5/USBFS_std.c ****     #if (!USBFS_EP_MANAGEMENT_DMA_AUTO)
 775:.\Generated_Source\PSoC5/USBFS_std.c ****         buffCount = 0u;
 776:.\Generated_Source\PSoC5/USBFS_std.c ****         for (ep = USBFS_EP1; ep < USBFS_MAX_EP; ++ep)
 777:.\Generated_Source\PSoC5/USBFS_std.c ****         {
 778:.\Generated_Source\PSoC5/USBFS_std.c ****             USBFS_EP[ep].buffOffset = buffCount;        
 779:.\Generated_Source\PSoC5/USBFS_std.c ****             buffCount += USBFS_EP[ep].bufferSize;
 780:.\Generated_Source\PSoC5/USBFS_std.c ****             
 781:.\Generated_Source\PSoC5/USBFS_std.c ****         #if (USBFS_GEN_16BITS_EP_ACCESS)
 782:.\Generated_Source\PSoC5/USBFS_std.c ****             /* Align EP buffers to be event size to access 16-bits DR register. */
 783:.\Generated_Source\PSoC5/USBFS_std.c ****             buffCount += (0u != (buffCount & 0x01u)) ? 1u : 0u;
 784:.\Generated_Source\PSoC5/USBFS_std.c ****         #endif /* (USBFS_GEN_16BITS_EP_ACCESS) */            
 785:.\Generated_Source\PSoC5/USBFS_std.c ****         }
 786:.\Generated_Source\PSoC5/USBFS_std.c ****     #endif /* (!USBFS_EP_MANAGEMENT_DMA_AUTO) */
 787:.\Generated_Source\PSoC5/USBFS_std.c **** 
 788:.\Generated_Source\PSoC5/USBFS_std.c ****         /* Configure hardware registers */
 789:.\Generated_Source\PSoC5/USBFS_std.c ****         USBFS_ConfigReg();
 790:.\Generated_Source\PSoC5/USBFS_std.c ****     }
 791:.\Generated_Source\PSoC5/USBFS_std.c **** }
 792:.\Generated_Source\PSoC5/USBFS_std.c **** 
 793:.\Generated_Source\PSoC5/USBFS_std.c **** 
 794:.\Generated_Source\PSoC5/USBFS_std.c **** /*******************************************************************************
 795:.\Generated_Source\PSoC5/USBFS_std.c **** * Function Name: USBFS_ConfigAltChanged
 796:.\Generated_Source\PSoC5/USBFS_std.c **** ****************************************************************************//**
 797:.\Generated_Source\PSoC5/USBFS_std.c **** *
 798:.\Generated_Source\PSoC5/USBFS_std.c **** *  This routine update configuration for the required endpoints only.
 799:.\Generated_Source\PSoC5/USBFS_std.c **** *  It is called after SET_INTERFACE request when Static memory allocation used.
 800:.\Generated_Source\PSoC5/USBFS_std.c **** *
 801:.\Generated_Source\PSoC5/USBFS_std.c **** * \reentrant
 802:.\Generated_Source\PSoC5/USBFS_std.c **** *  No.
 803:.\Generated_Source\PSoC5/USBFS_std.c **** *
 804:.\Generated_Source\PSoC5/USBFS_std.c **** *******************************************************************************/
 805:.\Generated_Source\PSoC5/USBFS_std.c **** void USBFS_ConfigAltChanged(void) 
 806:.\Generated_Source\PSoC5/USBFS_std.c **** {
 807:.\Generated_Source\PSoC5/USBFS_std.c ****     uint8 ep;
 808:.\Generated_Source\PSoC5/USBFS_std.c ****     uint8 curEp;
 809:.\Generated_Source\PSoC5/USBFS_std.c ****     uint8 epType;
 810:.\Generated_Source\PSoC5/USBFS_std.c ****     uint8 i;
 811:.\Generated_Source\PSoC5/USBFS_std.c ****     uint8 interfaceNum;
 812:.\Generated_Source\PSoC5/USBFS_std.c **** 
 813:.\Generated_Source\PSoC5/USBFS_std.c ****     const T_USBFS_LUT CYCODE *pTmp;
 814:.\Generated_Source\PSoC5/USBFS_std.c ****     const T_USBFS_EP_SETTINGS_BLOCK CYCODE *pEP;
 815:.\Generated_Source\PSoC5/USBFS_std.c **** 
 816:.\Generated_Source\PSoC5/USBFS_std.c ****     /* Init Endpoints and Device Status if configured */
 817:.\Generated_Source\PSoC5/USBFS_std.c ****     if (USBFS_configuration > 0u)
 818:.\Generated_Source\PSoC5/USBFS_std.c ****     {
 819:.\Generated_Source\PSoC5/USBFS_std.c ****         /* Get number of endpoints configurations (ep). */
 820:.\Generated_Source\PSoC5/USBFS_std.c ****         pTmp = USBFS_GetConfigTablePtr(USBFS_configuration - 1u);
 821:.\Generated_Source\PSoC5/USBFS_std.c ****         pTmp = &pTmp[1u];
ARM GAS  C:\Users\LAIR\AppData\Local\Temp\cc5n6lZj.s 			page 21


 822:.\Generated_Source\PSoC5/USBFS_std.c ****         ep = pTmp->c;
 823:.\Generated_Source\PSoC5/USBFS_std.c **** 
 824:.\Generated_Source\PSoC5/USBFS_std.c ****         /* Get pointer to endpoints setting table (pEP). */
 825:.\Generated_Source\PSoC5/USBFS_std.c ****         pEP = (const T_USBFS_EP_SETTINGS_BLOCK CYCODE *) pTmp->p_list;
 826:.\Generated_Source\PSoC5/USBFS_std.c ****         
 827:.\Generated_Source\PSoC5/USBFS_std.c ****         /* Look through all possible endpoint configurations. Find endpoints 
 828:.\Generated_Source\PSoC5/USBFS_std.c ****         * which belong to current interface and alternate settings for 
 829:.\Generated_Source\PSoC5/USBFS_std.c ****         * re-configuration.
 830:.\Generated_Source\PSoC5/USBFS_std.c ****         */
 831:.\Generated_Source\PSoC5/USBFS_std.c ****         interfaceNum = USBFS_interfaceNumber;
 832:.\Generated_Source\PSoC5/USBFS_std.c ****         for (i = 0u; i < ep; i++)
 833:.\Generated_Source\PSoC5/USBFS_std.c ****         {
 834:.\Generated_Source\PSoC5/USBFS_std.c ****             /* Find endpoints which belong to current interface and alternate settings. */
 835:.\Generated_Source\PSoC5/USBFS_std.c ****             if ((interfaceNum == pEP->interface) && 
 836:.\Generated_Source\PSoC5/USBFS_std.c ****                 (USBFS_interfaceSetting[interfaceNum] == pEP->altSetting))
 837:.\Generated_Source\PSoC5/USBFS_std.c ****             {
 838:.\Generated_Source\PSoC5/USBFS_std.c ****                 curEp  = ((uint8) pEP->addr & USBFS_DIR_UNUSED);
 839:.\Generated_Source\PSoC5/USBFS_std.c ****                 epType = ((uint8) pEP->attributes & USBFS_EP_TYPE_MASK);
 840:.\Generated_Source\PSoC5/USBFS_std.c ****                 
 841:.\Generated_Source\PSoC5/USBFS_std.c ****                 /* Change the SIE mode for the selected EP to NAK ALL */
 842:.\Generated_Source\PSoC5/USBFS_std.c ****                 USBFS_EP[curEp].epToggle   = 0u;
 843:.\Generated_Source\PSoC5/USBFS_std.c ****                 USBFS_EP[curEp].addr       = pEP->addr;
 844:.\Generated_Source\PSoC5/USBFS_std.c ****                 USBFS_EP[curEp].attrib     = pEP->attributes;
 845:.\Generated_Source\PSoC5/USBFS_std.c ****                 USBFS_EP[curEp].bufferSize = pEP->bufferSize;
 846:.\Generated_Source\PSoC5/USBFS_std.c **** 
 847:.\Generated_Source\PSoC5/USBFS_std.c ****                 if (0u != (pEP->addr & USBFS_DIR_IN))
 848:.\Generated_Source\PSoC5/USBFS_std.c ****                 {
 849:.\Generated_Source\PSoC5/USBFS_std.c ****                     /* IN Endpoint */
 850:.\Generated_Source\PSoC5/USBFS_std.c ****                     USBFS_EP[curEp].epMode     = USBFS_GET_ACTIVE_IN_EP_CR0_MODE(epType);
 851:.\Generated_Source\PSoC5/USBFS_std.c ****                     USBFS_EP[curEp].apiEpState = USBFS_EVENT_PENDING;
 852:.\Generated_Source\PSoC5/USBFS_std.c ****                 }
 853:.\Generated_Source\PSoC5/USBFS_std.c ****                 else
 854:.\Generated_Source\PSoC5/USBFS_std.c ****                 {
 855:.\Generated_Source\PSoC5/USBFS_std.c ****                     /* OUT Endpoint */
 856:.\Generated_Source\PSoC5/USBFS_std.c ****                     USBFS_EP[curEp].epMode     = USBFS_GET_ACTIVE_OUT_EP_CR0_MODE(epType);
 857:.\Generated_Source\PSoC5/USBFS_std.c ****                     USBFS_EP[curEp].apiEpState = USBFS_NO_EVENT_PENDING;
 858:.\Generated_Source\PSoC5/USBFS_std.c ****                 }
 859:.\Generated_Source\PSoC5/USBFS_std.c ****                 
 860:.\Generated_Source\PSoC5/USBFS_std.c ****                 /* Make SIE to NAK any endpoint requests */
 861:.\Generated_Source\PSoC5/USBFS_std.c ****                 USBFS_SIE_EP_BASE.sieEp[curEp].epCr0 = USBFS_MODE_NAK_IN_OUT;
 862:.\Generated_Source\PSoC5/USBFS_std.c **** 
 863:.\Generated_Source\PSoC5/USBFS_std.c ****             #if (USBFS_EP_MANAGEMENT_DMA_AUTO)
 864:.\Generated_Source\PSoC5/USBFS_std.c ****                 /* Clear IN data ready. */
 865:.\Generated_Source\PSoC5/USBFS_std.c ****                 USBFS_ARB_EP_BASE.arbEp[curEp].epCfg &= (uint8) ~USBFS_ARB_EPX_CFG_IN_DATA_RDY;
 866:.\Generated_Source\PSoC5/USBFS_std.c **** 
 867:.\Generated_Source\PSoC5/USBFS_std.c ****                 /* Select endpoint number of reconfiguration */
 868:.\Generated_Source\PSoC5/USBFS_std.c ****                 USBFS_DYN_RECONFIG_REG = (uint8) ((curEp - 1u) << USBFS_DYN_RECONFIG_EP_SHIFT);
 869:.\Generated_Source\PSoC5/USBFS_std.c ****                 
 870:.\Generated_Source\PSoC5/USBFS_std.c ****                 /* Request for dynamic re-configuration of endpoint. */
 871:.\Generated_Source\PSoC5/USBFS_std.c ****                 USBFS_DYN_RECONFIG_REG |= USBFS_DYN_RECONFIG_ENABLE;
 872:.\Generated_Source\PSoC5/USBFS_std.c ****                 
 873:.\Generated_Source\PSoC5/USBFS_std.c ****                 /* Wait until block is ready for re-configuration */
 874:.\Generated_Source\PSoC5/USBFS_std.c ****                 while (0u == (USBFS_DYN_RECONFIG_REG & USBFS_DYN_RECONFIG_RDY_STS))
 875:.\Generated_Source\PSoC5/USBFS_std.c ****                 {
 876:.\Generated_Source\PSoC5/USBFS_std.c ****                 }
 877:.\Generated_Source\PSoC5/USBFS_std.c ****                 
 878:.\Generated_Source\PSoC5/USBFS_std.c ****                 /* Once DYN_RECONFIG_RDY_STS bit is set, FW can change the EP configuration. */
ARM GAS  C:\Users\LAIR\AppData\Local\Temp\cc5n6lZj.s 			page 22


 879:.\Generated_Source\PSoC5/USBFS_std.c ****                 /* Change EP Type with new direction */
 880:.\Generated_Source\PSoC5/USBFS_std.c ****                 if (0u != (pEP->addr & USBFS_DIR_IN))
 881:.\Generated_Source\PSoC5/USBFS_std.c ****                 {
 882:.\Generated_Source\PSoC5/USBFS_std.c ****                     /* Set endpoint type: 0 - IN and 1 - OUT. */
 883:.\Generated_Source\PSoC5/USBFS_std.c ****                     USBFS_EP_TYPE_REG &= (uint8) ~(uint8)((uint8) 0x01u << (curEp - 1u));
 884:.\Generated_Source\PSoC5/USBFS_std.c ****                     
 885:.\Generated_Source\PSoC5/USBFS_std.c ****                 #if (CY_PSOC4)
 886:.\Generated_Source\PSoC5/USBFS_std.c ****                     /* Clear DMA_TERMIN for IN endpoint */
 887:.\Generated_Source\PSoC5/USBFS_std.c ****                     USBFS_ARB_EP_BASE.arbEp[curEp].epIntEn &= (uint32) ~USBFS_ARB_EPX_INT_DMA_TERMI
 888:.\Generated_Source\PSoC5/USBFS_std.c ****                 #endif /* (CY_PSOC4) */
 889:.\Generated_Source\PSoC5/USBFS_std.c ****                 }
 890:.\Generated_Source\PSoC5/USBFS_std.c ****                 else
 891:.\Generated_Source\PSoC5/USBFS_std.c ****                 {
 892:.\Generated_Source\PSoC5/USBFS_std.c ****                     /* Set endpoint type: 0 - IN and 1- OUT. */
 893:.\Generated_Source\PSoC5/USBFS_std.c ****                     USBFS_EP_TYPE_REG |= (uint8) ((uint8) 0x01u << (curEp - 1u));
 894:.\Generated_Source\PSoC5/USBFS_std.c ****                     
 895:.\Generated_Source\PSoC5/USBFS_std.c ****                 #if (CY_PSOC4)
 896:.\Generated_Source\PSoC5/USBFS_std.c ****                     /* Set DMA_TERMIN for OUT endpoint */
 897:.\Generated_Source\PSoC5/USBFS_std.c ****                     USBFS_ARB_EP_BASE.arbEp[curEp].epIntEn |= (uint32) USBFS_ARB_EPX_INT_DMA_TERMIN
 898:.\Generated_Source\PSoC5/USBFS_std.c ****                 #endif /* (CY_PSOC4) */
 899:.\Generated_Source\PSoC5/USBFS_std.c ****                 }
 900:.\Generated_Source\PSoC5/USBFS_std.c ****                 
 901:.\Generated_Source\PSoC5/USBFS_std.c ****                 /* Complete dynamic re-configuration: all endpoint related status and signals 
 902:.\Generated_Source\PSoC5/USBFS_std.c ****                 * are set into the default state.
 903:.\Generated_Source\PSoC5/USBFS_std.c ****                 */
 904:.\Generated_Source\PSoC5/USBFS_std.c ****                 USBFS_DYN_RECONFIG_REG &= (uint8) ~USBFS_DYN_RECONFIG_ENABLE;
 905:.\Generated_Source\PSoC5/USBFS_std.c **** 
 906:.\Generated_Source\PSoC5/USBFS_std.c ****             #else
 907:.\Generated_Source\PSoC5/USBFS_std.c ****                 USBFS_SIE_EP_BASE.sieEp[curEp].epCnt0 = HI8(USBFS_EP[curEp].bufferSize);
 908:.\Generated_Source\PSoC5/USBFS_std.c ****                 USBFS_SIE_EP_BASE.sieEp[curEp].epCnt1 = LO8(USBFS_EP[curEp].bufferSize);
 909:.\Generated_Source\PSoC5/USBFS_std.c ****                 
 910:.\Generated_Source\PSoC5/USBFS_std.c ****                 #if (CY_PSOC4)
 911:.\Generated_Source\PSoC5/USBFS_std.c ****                     USBFS_ARB_EP16_BASE.arbEp[curEp].rwRa16  = (uint32) USBFS_EP[curEp].buffOffset;
 912:.\Generated_Source\PSoC5/USBFS_std.c ****                     USBFS_ARB_EP16_BASE.arbEp[curEp].rwWa16  = (uint32) USBFS_EP[curEp].buffOffset;
 913:.\Generated_Source\PSoC5/USBFS_std.c ****                 #else
 914:.\Generated_Source\PSoC5/USBFS_std.c ****                     USBFS_ARB_EP_BASE.arbEp[curEp].rwRa    = LO8(USBFS_EP[curEp].buffOffset);
 915:.\Generated_Source\PSoC5/USBFS_std.c ****                     USBFS_ARB_EP_BASE.arbEp[curEp].rwRaMsb = HI8(USBFS_EP[curEp].buffOffset);
 916:.\Generated_Source\PSoC5/USBFS_std.c ****                     USBFS_ARB_EP_BASE.arbEp[curEp].rwWa    = LO8(USBFS_EP[curEp].buffOffset);
 917:.\Generated_Source\PSoC5/USBFS_std.c ****                     USBFS_ARB_EP_BASE.arbEp[curEp].rwWaMsb = HI8(USBFS_EP[curEp].buffOffset);
 918:.\Generated_Source\PSoC5/USBFS_std.c ****                 #endif /* (CY_PSOC4) */                
 919:.\Generated_Source\PSoC5/USBFS_std.c ****             #endif /* (USBFS_EP_MANAGEMENT_DMA_AUTO) */
 920:.\Generated_Source\PSoC5/USBFS_std.c ****             }
 921:.\Generated_Source\PSoC5/USBFS_std.c ****             
 922:.\Generated_Source\PSoC5/USBFS_std.c ****             pEP = &pEP[1u]; /* Get next EP element */
 923:.\Generated_Source\PSoC5/USBFS_std.c ****         }
 924:.\Generated_Source\PSoC5/USBFS_std.c ****         
 925:.\Generated_Source\PSoC5/USBFS_std.c ****         /* The main loop has to re-enable DMA and OUT endpoint */
 926:.\Generated_Source\PSoC5/USBFS_std.c ****     }
 927:.\Generated_Source\PSoC5/USBFS_std.c **** }
 928:.\Generated_Source\PSoC5/USBFS_std.c **** 
 929:.\Generated_Source\PSoC5/USBFS_std.c **** 
 930:.\Generated_Source\PSoC5/USBFS_std.c **** /*******************************************************************************
 931:.\Generated_Source\PSoC5/USBFS_std.c **** * Function Name: USBFS_GetConfigTablePtr
 932:.\Generated_Source\PSoC5/USBFS_std.c **** ****************************************************************************//**
 933:.\Generated_Source\PSoC5/USBFS_std.c **** *
 934:.\Generated_Source\PSoC5/USBFS_std.c **** *  This routine returns a pointer a configuration table entry
 935:.\Generated_Source\PSoC5/USBFS_std.c **** *
ARM GAS  C:\Users\LAIR\AppData\Local\Temp\cc5n6lZj.s 			page 23


 936:.\Generated_Source\PSoC5/USBFS_std.c **** *  \param confIndex:  Configuration Index
 937:.\Generated_Source\PSoC5/USBFS_std.c **** *
 938:.\Generated_Source\PSoC5/USBFS_std.c **** * \return
 939:.\Generated_Source\PSoC5/USBFS_std.c **** *  Device Descriptor pointer or NULL when descriptor does not exist.
 940:.\Generated_Source\PSoC5/USBFS_std.c **** *
 941:.\Generated_Source\PSoC5/USBFS_std.c **** *******************************************************************************/
 942:.\Generated_Source\PSoC5/USBFS_std.c **** const T_USBFS_LUT CYCODE *USBFS_GetConfigTablePtr(uint8 confIndex)
 943:.\Generated_Source\PSoC5/USBFS_std.c ****                                                         
 944:.\Generated_Source\PSoC5/USBFS_std.c **** {
 313              		.loc 1 944 0
 314              		.cfi_startproc
 315              		@ args = 0, pretend = 0, frame = 0
 316              		@ frame_needed = 0, uses_anonymous_args = 0
 317              		@ link register save eliminated.
 318              	.LVL20:
 945:.\Generated_Source\PSoC5/USBFS_std.c ****     /* Device Table */
 946:.\Generated_Source\PSoC5/USBFS_std.c ****     const T_USBFS_LUT CYCODE *pTmp;
 947:.\Generated_Source\PSoC5/USBFS_std.c **** 
 948:.\Generated_Source\PSoC5/USBFS_std.c ****     pTmp = (const T_USBFS_LUT CYCODE *) USBFS_TABLE[USBFS_device].p_list;
 319              		.loc 1 948 0
 320 0000 074B     		ldr	r3, .L27
 321 0002 1B78     		ldrb	r3, [r3]	@ zero_extendqisi2
 322 0004 074A     		ldr	r2, .L27+4
 323 0006 02EBC302 		add	r2, r2, r3, lsl #3
 324 000a 5368     		ldr	r3, [r2, #4]
 325              	.LVL21:
 949:.\Generated_Source\PSoC5/USBFS_std.c **** 
 950:.\Generated_Source\PSoC5/USBFS_std.c ****     /* The first entry points to the Device Descriptor,
 951:.\Generated_Source\PSoC5/USBFS_std.c ****     *  the second entry point to the BOS Descriptor
 952:.\Generated_Source\PSoC5/USBFS_std.c ****     *  the rest configuration entries.
 953:.\Generated_Source\PSoC5/USBFS_std.c ****     *  Set pointer to the first Configuration Descriptor
 954:.\Generated_Source\PSoC5/USBFS_std.c ****     */
 955:.\Generated_Source\PSoC5/USBFS_std.c ****     pTmp = &pTmp[2u];
 956:.\Generated_Source\PSoC5/USBFS_std.c ****     /* For this table, c is the number of configuration descriptors  */
 957:.\Generated_Source\PSoC5/USBFS_std.c ****     if(confIndex >= pTmp->c)   /* Verify that required configuration descriptor exists */
 326              		.loc 1 957 0
 327 000c 1A7C     		ldrb	r2, [r3, #16]	@ zero_extendqisi2
 328 000e 8242     		cmp	r2, r0
 329 0010 03D9     		bls	.L26
 330 0012 03EBC003 		add	r3, r3, r0, lsl #3
 331              	.LVL22:
 958:.\Generated_Source\PSoC5/USBFS_std.c ****     {
 959:.\Generated_Source\PSoC5/USBFS_std.c ****         pTmp = (const T_USBFS_LUT CYCODE *) NULL;
 960:.\Generated_Source\PSoC5/USBFS_std.c ****     }
 961:.\Generated_Source\PSoC5/USBFS_std.c ****     else
 962:.\Generated_Source\PSoC5/USBFS_std.c ****     {
 963:.\Generated_Source\PSoC5/USBFS_std.c ****         pTmp = (const T_USBFS_LUT CYCODE *) pTmp[confIndex].p_list;
 332              		.loc 1 963 0
 333 0016 5869     		ldr	r0, [r3, #20]
 334              	.LVL23:
 335 0018 7047     		bx	lr
 336              	.LVL24:
 337              	.L26:
 959:.\Generated_Source\PSoC5/USBFS_std.c ****     }
 338              		.loc 1 959 0
 339 001a 0020     		movs	r0, #0
 340              	.LVL25:
ARM GAS  C:\Users\LAIR\AppData\Local\Temp\cc5n6lZj.s 			page 24


 964:.\Generated_Source\PSoC5/USBFS_std.c ****     }
 965:.\Generated_Source\PSoC5/USBFS_std.c **** 
 966:.\Generated_Source\PSoC5/USBFS_std.c ****     return (pTmp);
 967:.\Generated_Source\PSoC5/USBFS_std.c **** }
 341              		.loc 1 967 0
 342 001c 7047     		bx	lr
 343              	.L28:
 344 001e 00BF     		.align	2
 345              	.L27:
 346 0020 00000000 		.word	USBFS_device
 347 0024 00000000 		.word	USBFS_TABLE
 348              		.cfi_endproc
 349              	.LFE6:
 350              		.size	USBFS_GetConfigTablePtr, .-USBFS_GetConfigTablePtr
 351              		.section	.text.USBFS_ConfigAltChanged,"ax",%progbits
 352              		.align	2
 353              		.global	USBFS_ConfigAltChanged
 354              		.thumb
 355              		.thumb_func
 356              		.type	USBFS_ConfigAltChanged, %function
 357              	USBFS_ConfigAltChanged:
 358              	.LFB5:
 806:.\Generated_Source\PSoC5/USBFS_std.c ****     uint8 ep;
 359              		.loc 1 806 0
 360              		.cfi_startproc
 361              		@ args = 0, pretend = 0, frame = 0
 362              		@ frame_needed = 0, uses_anonymous_args = 0
 363 0000 F8B5     		push	{r3, r4, r5, r6, r7, lr}
 364              		.cfi_def_cfa_offset 24
 365              		.cfi_offset 3, -24
 366              		.cfi_offset 4, -20
 367              		.cfi_offset 5, -16
 368              		.cfi_offset 6, -12
 369              		.cfi_offset 7, -8
 370              		.cfi_offset 14, -4
 817:.\Generated_Source\PSoC5/USBFS_std.c ****     {
 371              		.loc 1 817 0
 372 0002 404B     		ldr	r3, .L41
 373 0004 1B78     		ldrb	r3, [r3]	@ zero_extendqisi2
 374 0006 13F0FF0F 		tst	r3, #255
 375 000a 79D0     		beq	.L29
 820:.\Generated_Source\PSoC5/USBFS_std.c ****         pTmp = &pTmp[1u];
 376              		.loc 1 820 0
 377 000c 3D4B     		ldr	r3, .L41
 378 000e 1878     		ldrb	r0, [r3]	@ zero_extendqisi2
 379 0010 0138     		subs	r0, r0, #1
 380 0012 C0B2     		uxtb	r0, r0
 381 0014 FFF7FEFF 		bl	USBFS_GetConfigTablePtr
 382              	.LVL26:
 822:.\Generated_Source\PSoC5/USBFS_std.c **** 
 383              		.loc 1 822 0
 384 0018 047A     		ldrb	r4, [r0, #8]	@ zero_extendqisi2
 385              	.LVL27:
 825:.\Generated_Source\PSoC5/USBFS_std.c ****         
 386              		.loc 1 825 0
 387 001a C268     		ldr	r2, [r0, #12]
 388              	.LVL28:
ARM GAS  C:\Users\LAIR\AppData\Local\Temp\cc5n6lZj.s 			page 25


 831:.\Generated_Source\PSoC5/USBFS_std.c ****         for (i = 0u; i < ep; i++)
 389              		.loc 1 831 0
 390 001c 3A4B     		ldr	r3, .L41+4
 391 001e 1878     		ldrb	r0, [r3]	@ zero_extendqisi2
 392              	.LVL29:
 393 0020 C0B2     		uxtb	r0, r0
 394              	.LVL30:
 832:.\Generated_Source\PSoC5/USBFS_std.c ****         {
 395              		.loc 1 832 0
 396 0022 0023     		movs	r3, #0
 397 0024 6AE0     		b	.L31
 398              	.LVL31:
 399              	.L37:
 835:.\Generated_Source\PSoC5/USBFS_std.c ****                 (USBFS_interfaceSetting[interfaceNum] == pEP->altSetting))
 400              		.loc 1 835 0
 401 0026 1178     		ldrb	r1, [r2]	@ zero_extendqisi2
 402 0028 8142     		cmp	r1, r0
 403 002a 64D1     		bne	.L32
 836:.\Generated_Source\PSoC5/USBFS_std.c ****             {
 404              		.loc 1 836 0 discriminator 1
 405 002c 3749     		ldr	r1, .L41+8
 406 002e 095C     		ldrb	r1, [r1, r0]	@ zero_extendqisi2
 407 0030 C9B2     		uxtb	r1, r1
 408 0032 5578     		ldrb	r5, [r2, #1]	@ zero_extendqisi2
 835:.\Generated_Source\PSoC5/USBFS_std.c ****                 (USBFS_interfaceSetting[interfaceNum] == pEP->altSetting))
 409              		.loc 1 835 0 discriminator 1
 410 0034 A942     		cmp	r1, r5
 411 0036 5ED1     		bne	.L32
 838:.\Generated_Source\PSoC5/USBFS_std.c ****                 epType = ((uint8) pEP->attributes & USBFS_EP_TYPE_MASK);
 412              		.loc 1 838 0
 413 0038 9178     		ldrb	r1, [r2, #2]	@ zero_extendqisi2
 414 003a 01F07F01 		and	r1, r1, #127
 415              	.LVL32:
 839:.\Generated_Source\PSoC5/USBFS_std.c ****                 
 416              		.loc 1 839 0
 417 003e D678     		ldrb	r6, [r2, #3]	@ zero_extendqisi2
 418 0040 06F00306 		and	r6, r6, #3
 419              	.LVL33:
 842:.\Generated_Source\PSoC5/USBFS_std.c ****                 USBFS_EP[curEp].addr       = pEP->addr;
 420              		.loc 1 842 0
 421 0044 DFF8C8E0 		ldr	lr, .L41+12
 422 0048 4D00     		lsls	r5, r1, #1
 423 004a 0D44     		add	r5, r5, r1
 424 004c AD00     		lsls	r5, r5, #2
 425 004e 0EEB0507 		add	r7, lr, r5
 426 0052 4FF0000C 		mov	ip, #0
 427 0056 87F803C0 		strb	ip, [r7, #3]
 843:.\Generated_Source\PSoC5/USBFS_std.c ****                 USBFS_EP[curEp].attrib     = pEP->attributes;
 428              		.loc 1 843 0
 429 005a 92F802C0 		ldrb	ip, [r2, #2]	@ zero_extendqisi2
 430 005e 87F804C0 		strb	ip, [r7, #4]
 844:.\Generated_Source\PSoC5/USBFS_std.c ****                 USBFS_EP[curEp].bufferSize = pEP->bufferSize;
 431              		.loc 1 844 0
 432 0062 92F803C0 		ldrb	ip, [r2, #3]	@ zero_extendqisi2
 433 0066 0EF805C0 		strb	ip, [lr, r5]
 845:.\Generated_Source\PSoC5/USBFS_std.c **** 
 434              		.loc 1 845 0
ARM GAS  C:\Users\LAIR\AppData\Local\Temp\cc5n6lZj.s 			page 26


 435 006a 9588     		ldrh	r5, [r2, #4]
 436 006c 3D81     		strh	r5, [r7, #8]	@ movhi
 847:.\Generated_Source\PSoC5/USBFS_std.c ****                 {
 437              		.loc 1 847 0
 438 006e 92F90250 		ldrsb	r5, [r2, #2]
 439 0072 002D     		cmp	r5, #0
 440 0074 0DDA     		bge	.L33
 850:.\Generated_Source\PSoC5/USBFS_std.c ****                     USBFS_EP[curEp].apiEpState = USBFS_EVENT_PENDING;
 441              		.loc 1 850 0
 442 0076 012E     		cmp	r6, #1
 443 0078 01D1     		bne	.L38
 444 007a 0727     		movs	r7, #7
 445 007c 00E0     		b	.L34
 446              	.L38:
 447 007e 0D27     		movs	r7, #13
 448              	.L34:
 850:.\Generated_Source\PSoC5/USBFS_std.c ****                     USBFS_EP[curEp].apiEpState = USBFS_EVENT_PENDING;
 449              		.loc 1 850 0 is_stmt 0 discriminator 4
 450 0080 4D00     		lsls	r5, r1, #1
 451 0082 0D44     		add	r5, r5, r1
 452 0084 AD00     		lsls	r5, r5, #2
 453 0086 224E     		ldr	r6, .L41+12
 454              	.LVL34:
 455 0088 3544     		add	r5, r5, r6
 456 008a 6F71     		strb	r7, [r5, #5]
 851:.\Generated_Source\PSoC5/USBFS_std.c ****                 }
 457              		.loc 1 851 0 is_stmt 1 discriminator 4
 458 008c 0126     		movs	r6, #1
 459 008e 6E70     		strb	r6, [r5, #1]
 460 0090 0CE0     		b	.L35
 461              	.LVL35:
 462              	.L33:
 856:.\Generated_Source\PSoC5/USBFS_std.c ****                     USBFS_EP[curEp].apiEpState = USBFS_NO_EVENT_PENDING;
 463              		.loc 1 856 0
 464 0092 012E     		cmp	r6, #1
 465 0094 01D1     		bne	.L39
 466 0096 0527     		movs	r7, #5
 467 0098 00E0     		b	.L36
 468              	.L39:
 469 009a 0927     		movs	r7, #9
 470              	.L36:
 856:.\Generated_Source\PSoC5/USBFS_std.c ****                     USBFS_EP[curEp].apiEpState = USBFS_NO_EVENT_PENDING;
 471              		.loc 1 856 0 is_stmt 0 discriminator 4
 472 009c 4D00     		lsls	r5, r1, #1
 473 009e 0D44     		add	r5, r5, r1
 474 00a0 AD00     		lsls	r5, r5, #2
 475 00a2 1B4E     		ldr	r6, .L41+12
 476              	.LVL36:
 477 00a4 3544     		add	r5, r5, r6
 478 00a6 6F71     		strb	r7, [r5, #5]
 857:.\Generated_Source\PSoC5/USBFS_std.c ****                 }
 479              		.loc 1 857 0 is_stmt 1 discriminator 4
 480 00a8 0026     		movs	r6, #0
 481 00aa 6E70     		strb	r6, [r5, #1]
 482              	.L35:
 861:.\Generated_Source\PSoC5/USBFS_std.c **** 
 483              		.loc 1 861 0
ARM GAS  C:\Users\LAIR\AppData\Local\Temp\cc5n6lZj.s 			page 27


 484 00ac DFF868E0 		ldr	lr, .L41+20
 485 00b0 0F01     		lsls	r7, r1, #4
 486 00b2 0EEB0706 		add	r6, lr, r7
 487 00b6 0125     		movs	r5, #1
 488 00b8 B570     		strb	r5, [r6, #2]
 907:.\Generated_Source\PSoC5/USBFS_std.c ****                 USBFS_SIE_EP_BASE.sieEp[curEp].epCnt1 = LO8(USBFS_EP[curEp].bufferSize);
 489              		.loc 1 907 0
 490 00ba 01FA05F5 		lsl	r5, r1, r5
 491 00be 2944     		add	r1, r1, r5
 492              	.LVL37:
 493 00c0 8900     		lsls	r1, r1, #2
 494 00c2 134D     		ldr	r5, .L41+12
 495 00c4 2944     		add	r1, r1, r5
 496 00c6 0D89     		ldrh	r5, [r1, #8]
 497 00c8 C5F30725 		ubfx	r5, r5, #8, #8
 498 00cc 0EF80750 		strb	r5, [lr, r7]
 908:.\Generated_Source\PSoC5/USBFS_std.c ****                 
 499              		.loc 1 908 0
 500 00d0 0D89     		ldrh	r5, [r1, #8]
 501 00d2 EDB2     		uxtb	r5, r5
 502 00d4 7570     		strb	r5, [r6, #1]
 914:.\Generated_Source\PSoC5/USBFS_std.c ****                     USBFS_ARB_EP_BASE.arbEp[curEp].rwRaMsb = HI8(USBFS_EP[curEp].buffOffset);
 503              		.loc 1 914 0
 504 00d6 CE88     		ldrh	r6, [r1, #6]
 505 00d8 F6B2     		uxtb	r6, r6
 506 00da 0E4D     		ldr	r5, .L41+16
 507 00dc 3D44     		add	r5, r5, r7
 508 00de AE71     		strb	r6, [r5, #6]
 915:.\Generated_Source\PSoC5/USBFS_std.c ****                     USBFS_ARB_EP_BASE.arbEp[curEp].rwWa    = LO8(USBFS_EP[curEp].buffOffset);
 509              		.loc 1 915 0
 510 00e0 CE88     		ldrh	r6, [r1, #6]
 511 00e2 C6F30726 		ubfx	r6, r6, #8, #8
 512 00e6 EE71     		strb	r6, [r5, #7]
 916:.\Generated_Source\PSoC5/USBFS_std.c ****                     USBFS_ARB_EP_BASE.arbEp[curEp].rwWaMsb = HI8(USBFS_EP[curEp].buffOffset);
 513              		.loc 1 916 0
 514 00e8 CE88     		ldrh	r6, [r1, #6]
 515 00ea F6B2     		uxtb	r6, r6
 516 00ec 2E71     		strb	r6, [r5, #4]
 917:.\Generated_Source\PSoC5/USBFS_std.c ****                 #endif /* (CY_PSOC4) */                
 517              		.loc 1 917 0
 518 00ee C988     		ldrh	r1, [r1, #6]
 519 00f0 C1F30721 		ubfx	r1, r1, #8, #8
 520 00f4 6971     		strb	r1, [r5, #5]
 521              	.L32:
 922:.\Generated_Source\PSoC5/USBFS_std.c ****         }
 522              		.loc 1 922 0 discriminator 2
 523 00f6 0832     		adds	r2, r2, #8
 524              	.LVL38:
 832:.\Generated_Source\PSoC5/USBFS_std.c ****         {
 525              		.loc 1 832 0 discriminator 2
 526 00f8 0133     		adds	r3, r3, #1
 527              	.LVL39:
 528 00fa DBB2     		uxtb	r3, r3
 529              	.LVL40:
 530              	.L31:
 832:.\Generated_Source\PSoC5/USBFS_std.c ****         {
 531              		.loc 1 832 0 is_stmt 0 discriminator 1
ARM GAS  C:\Users\LAIR\AppData\Local\Temp\cc5n6lZj.s 			page 28


 532 00fc A342     		cmp	r3, r4
 533 00fe 92D3     		bcc	.L37
 534              	.LVL41:
 535              	.L29:
 536 0100 F8BD     		pop	{r3, r4, r5, r6, r7, pc}
 537              	.L42:
 538 0102 00BF     		.align	2
 539              	.L41:
 540 0104 00000000 		.word	USBFS_configuration
 541 0108 00000000 		.word	USBFS_interfaceNumber
 542 010c 00000000 		.word	USBFS_interfaceSetting
 543 0110 00000000 		.word	USBFS_EP
 544 0114 70600040 		.word	1073766512
 545 0118 FC5F0040 		.word	1073766396
 546              		.cfi_endproc
 547              	.LFE5:
 548              		.size	USBFS_ConfigAltChanged, .-USBFS_ConfigAltChanged
 549              		.section	.text.USBFS_GetDeviceTablePtr,"ax",%progbits
 550              		.align	2
 551              		.global	USBFS_GetDeviceTablePtr
 552              		.thumb
 553              		.thumb_func
 554              		.type	USBFS_GetDeviceTablePtr, %function
 555              	USBFS_GetDeviceTablePtr:
 556              	.LFB7:
 968:.\Generated_Source\PSoC5/USBFS_std.c **** 
 969:.\Generated_Source\PSoC5/USBFS_std.c **** 
 970:.\Generated_Source\PSoC5/USBFS_std.c **** #if (USBFS_BOS_ENABLE)
 971:.\Generated_Source\PSoC5/USBFS_std.c ****     /*******************************************************************************
 972:.\Generated_Source\PSoC5/USBFS_std.c ****     * Function Name: USBFS_GetBOSPtr
 973:.\Generated_Source\PSoC5/USBFS_std.c ****     ****************************************************************************//**
 974:.\Generated_Source\PSoC5/USBFS_std.c ****     *
 975:.\Generated_Source\PSoC5/USBFS_std.c ****     *  This routine returns a pointer a BOS table entry
 976:.\Generated_Source\PSoC5/USBFS_std.c ****     *
 977:.\Generated_Source\PSoC5/USBFS_std.c ****     *  
 978:.\Generated_Source\PSoC5/USBFS_std.c ****     *
 979:.\Generated_Source\PSoC5/USBFS_std.c ****     * \return
 980:.\Generated_Source\PSoC5/USBFS_std.c ****     *  BOS Descriptor pointer or NULL when descriptor does not exist.
 981:.\Generated_Source\PSoC5/USBFS_std.c ****     *
 982:.\Generated_Source\PSoC5/USBFS_std.c ****     *******************************************************************************/
 983:.\Generated_Source\PSoC5/USBFS_std.c ****     const T_USBFS_LUT CYCODE *USBFS_GetBOSPtr(void)
 984:.\Generated_Source\PSoC5/USBFS_std.c ****                                                             
 985:.\Generated_Source\PSoC5/USBFS_std.c ****     {
 986:.\Generated_Source\PSoC5/USBFS_std.c ****         /* Device Table */
 987:.\Generated_Source\PSoC5/USBFS_std.c ****         const T_USBFS_LUT CYCODE *pTmp;
 988:.\Generated_Source\PSoC5/USBFS_std.c **** 
 989:.\Generated_Source\PSoC5/USBFS_std.c ****         pTmp = (const T_USBFS_LUT CYCODE *) USBFS_TABLE[USBFS_device].p_list;
 990:.\Generated_Source\PSoC5/USBFS_std.c **** 
 991:.\Generated_Source\PSoC5/USBFS_std.c ****         /* The first entry points to the Device Descriptor,
 992:.\Generated_Source\PSoC5/USBFS_std.c ****         *  the second entry points to the BOS Descriptor
 993:.\Generated_Source\PSoC5/USBFS_std.c ****         */
 994:.\Generated_Source\PSoC5/USBFS_std.c ****         pTmp = &pTmp[1u];
 995:.\Generated_Source\PSoC5/USBFS_std.c ****         pTmp = (const T_USBFS_LUT CYCODE *) pTmp->p_list;
 996:.\Generated_Source\PSoC5/USBFS_std.c ****         return (pTmp);
 997:.\Generated_Source\PSoC5/USBFS_std.c ****     }
 998:.\Generated_Source\PSoC5/USBFS_std.c **** #endif /* (USBFS_BOS_ENABLE) */
 999:.\Generated_Source\PSoC5/USBFS_std.c **** 
ARM GAS  C:\Users\LAIR\AppData\Local\Temp\cc5n6lZj.s 			page 29


1000:.\Generated_Source\PSoC5/USBFS_std.c **** 
1001:.\Generated_Source\PSoC5/USBFS_std.c **** /*******************************************************************************
1002:.\Generated_Source\PSoC5/USBFS_std.c **** * Function Name: USBFS_GetDeviceTablePtr
1003:.\Generated_Source\PSoC5/USBFS_std.c **** ****************************************************************************//**
1004:.\Generated_Source\PSoC5/USBFS_std.c **** *
1005:.\Generated_Source\PSoC5/USBFS_std.c **** *  This routine returns a pointer to the Device table
1006:.\Generated_Source\PSoC5/USBFS_std.c **** *
1007:.\Generated_Source\PSoC5/USBFS_std.c **** * \return
1008:.\Generated_Source\PSoC5/USBFS_std.c **** *  Device Table pointer
1009:.\Generated_Source\PSoC5/USBFS_std.c **** *
1010:.\Generated_Source\PSoC5/USBFS_std.c **** *******************************************************************************/
1011:.\Generated_Source\PSoC5/USBFS_std.c **** const T_USBFS_LUT CYCODE *USBFS_GetDeviceTablePtr(void)
1012:.\Generated_Source\PSoC5/USBFS_std.c ****                                                             
1013:.\Generated_Source\PSoC5/USBFS_std.c **** {
 557              		.loc 1 1013 0 is_stmt 1
 558              		.cfi_startproc
 559              		@ args = 0, pretend = 0, frame = 0
 560              		@ frame_needed = 0, uses_anonymous_args = 0
 561              		@ link register save eliminated.
1014:.\Generated_Source\PSoC5/USBFS_std.c ****     /* Device Table */
1015:.\Generated_Source\PSoC5/USBFS_std.c ****     return( (const T_USBFS_LUT CYCODE *) USBFS_TABLE[USBFS_device].p_list );
 562              		.loc 1 1015 0
 563 0000 034B     		ldr	r3, .L44
 564 0002 1A78     		ldrb	r2, [r3]	@ zero_extendqisi2
 565 0004 034B     		ldr	r3, .L44+4
 566 0006 03EBC203 		add	r3, r3, r2, lsl #3
1016:.\Generated_Source\PSoC5/USBFS_std.c **** }
 567              		.loc 1 1016 0
 568 000a 5868     		ldr	r0, [r3, #4]
 569 000c 7047     		bx	lr
 570              	.L45:
 571 000e 00BF     		.align	2
 572              	.L44:
 573 0010 00000000 		.word	USBFS_device
 574 0014 00000000 		.word	USBFS_TABLE
 575              		.cfi_endproc
 576              	.LFE7:
 577              		.size	USBFS_GetDeviceTablePtr, .-USBFS_GetDeviceTablePtr
 578              		.section	.text.USBFS_GetInterfaceClassTablePtr,"ax",%progbits
 579              		.align	2
 580              		.global	USBFS_GetInterfaceClassTablePtr
 581              		.thumb
 582              		.thumb_func
 583              		.type	USBFS_GetInterfaceClassTablePtr, %function
 584              	USBFS_GetInterfaceClassTablePtr:
 585              	.LFB8:
1017:.\Generated_Source\PSoC5/USBFS_std.c **** 
1018:.\Generated_Source\PSoC5/USBFS_std.c **** 
1019:.\Generated_Source\PSoC5/USBFS_std.c **** /*******************************************************************************
1020:.\Generated_Source\PSoC5/USBFS_std.c **** * Function Name: USB_GetInterfaceClassTablePtr
1021:.\Generated_Source\PSoC5/USBFS_std.c **** ****************************************************************************//**
1022:.\Generated_Source\PSoC5/USBFS_std.c **** *
1023:.\Generated_Source\PSoC5/USBFS_std.c **** *  This routine returns Interface Class table pointer, which contains
1024:.\Generated_Source\PSoC5/USBFS_std.c **** *  the relation between interface number and interface class.
1025:.\Generated_Source\PSoC5/USBFS_std.c **** *
1026:.\Generated_Source\PSoC5/USBFS_std.c **** * \return
1027:.\Generated_Source\PSoC5/USBFS_std.c **** *  Interface Class table pointer.
ARM GAS  C:\Users\LAIR\AppData\Local\Temp\cc5n6lZj.s 			page 30


1028:.\Generated_Source\PSoC5/USBFS_std.c **** *
1029:.\Generated_Source\PSoC5/USBFS_std.c **** *******************************************************************************/
1030:.\Generated_Source\PSoC5/USBFS_std.c **** const uint8 CYCODE *USBFS_GetInterfaceClassTablePtr(void)
1031:.\Generated_Source\PSoC5/USBFS_std.c ****                                                         
1032:.\Generated_Source\PSoC5/USBFS_std.c **** {
 586              		.loc 1 1032 0
 587              		.cfi_startproc
 588              		@ args = 0, pretend = 0, frame = 0
 589              		@ frame_needed = 0, uses_anonymous_args = 0
 590 0000 08B5     		push	{r3, lr}
 591              		.cfi_def_cfa_offset 8
 592              		.cfi_offset 3, -8
 593              		.cfi_offset 14, -4
1033:.\Generated_Source\PSoC5/USBFS_std.c ****     const T_USBFS_LUT CYCODE *pTmp;
1034:.\Generated_Source\PSoC5/USBFS_std.c ****     const uint8 CYCODE *pInterfaceClass;
1035:.\Generated_Source\PSoC5/USBFS_std.c ****     uint8 currentInterfacesNum;
1036:.\Generated_Source\PSoC5/USBFS_std.c **** 
1037:.\Generated_Source\PSoC5/USBFS_std.c ****     pTmp = USBFS_GetConfigTablePtr(USBFS_configuration - 1u);
 594              		.loc 1 1037 0
 595 0002 074B     		ldr	r3, .L50
 596 0004 1878     		ldrb	r0, [r3]	@ zero_extendqisi2
 597 0006 0138     		subs	r0, r0, #1
 598 0008 C0B2     		uxtb	r0, r0
 599 000a FFF7FEFF 		bl	USBFS_GetConfigTablePtr
 600              	.LVL42:
1038:.\Generated_Source\PSoC5/USBFS_std.c ****     if (pTmp != NULL)
 601              		.loc 1 1038 0
 602 000e 28B1     		cbz	r0, .L48
1039:.\Generated_Source\PSoC5/USBFS_std.c ****     {
1040:.\Generated_Source\PSoC5/USBFS_std.c ****         currentInterfacesNum  = ((const uint8 *) pTmp->p_list)[USBFS_CONFIG_DESCR_NUM_INTERFACES];
 603              		.loc 1 1040 0
 604 0010 4268     		ldr	r2, [r0, #4]
 605 0012 1279     		ldrb	r2, [r2, #4]	@ zero_extendqisi2
 606              	.LVL43:
1041:.\Generated_Source\PSoC5/USBFS_std.c ****         /* Third entry in the LUT starts the Interface Table pointers */
1042:.\Generated_Source\PSoC5/USBFS_std.c ****         /* The INTERFACE_CLASS table is located after all interfaces */
1043:.\Generated_Source\PSoC5/USBFS_std.c ****         pTmp = &pTmp[currentInterfacesNum + 2u];
 607              		.loc 1 1043 0
 608 0014 00EBC203 		add	r3, r0, r2, lsl #3
 609              	.LVL44:
1044:.\Generated_Source\PSoC5/USBFS_std.c ****         pInterfaceClass = (const uint8 CYCODE *) pTmp->p_list;
 610              		.loc 1 1044 0
 611 0018 5869     		ldr	r0, [r3, #20]
 612              	.LVL45:
 613 001a 08BD     		pop	{r3, pc}
 614              	.LVL46:
 615              	.L48:
1045:.\Generated_Source\PSoC5/USBFS_std.c ****     }
1046:.\Generated_Source\PSoC5/USBFS_std.c ****     else
1047:.\Generated_Source\PSoC5/USBFS_std.c ****     {
1048:.\Generated_Source\PSoC5/USBFS_std.c ****         pInterfaceClass = (const uint8 CYCODE *) NULL;
 616              		.loc 1 1048 0
 617 001c 0020     		movs	r0, #0
 618              	.LVL47:
1049:.\Generated_Source\PSoC5/USBFS_std.c ****     }
1050:.\Generated_Source\PSoC5/USBFS_std.c **** 
1051:.\Generated_Source\PSoC5/USBFS_std.c ****     return (pInterfaceClass);
ARM GAS  C:\Users\LAIR\AppData\Local\Temp\cc5n6lZj.s 			page 31


1052:.\Generated_Source\PSoC5/USBFS_std.c **** }
 619              		.loc 1 1052 0
 620 001e 08BD     		pop	{r3, pc}
 621              	.L51:
 622              		.align	2
 623              	.L50:
 624 0020 00000000 		.word	USBFS_configuration
 625              		.cfi_endproc
 626              	.LFE8:
 627              		.size	USBFS_GetInterfaceClassTablePtr, .-USBFS_GetInterfaceClassTablePtr
 628              		.section	.text.USBFS_Config,"ax",%progbits
 629              		.align	2
 630              		.global	USBFS_Config
 631              		.thumb
 632              		.thumb_func
 633              		.type	USBFS_Config, %function
 634              	USBFS_Config:
 635              	.LFB4:
 571:.\Generated_Source\PSoC5/USBFS_std.c ****     uint8 ep;
 636              		.loc 1 571 0
 637              		.cfi_startproc
 638              		@ args = 0, pretend = 0, frame = 0
 639              		@ frame_needed = 0, uses_anonymous_args = 0
 640              	.LVL48:
 641 0000 F8B5     		push	{r3, r4, r5, r6, r7, lr}
 642              		.cfi_def_cfa_offset 24
 643              		.cfi_offset 3, -24
 644              		.cfi_offset 4, -20
 645              		.cfi_offset 5, -16
 646              		.cfi_offset 6, -12
 647              		.cfi_offset 7, -8
 648              		.cfi_offset 14, -4
 649              	.LVL49:
 586:.\Generated_Source\PSoC5/USBFS_std.c ****     {
 650              		.loc 1 586 0
 651 0002 0022     		movs	r2, #0
 652 0004 0EE0     		b	.L53
 653              	.LVL50:
 654              	.L54:
 588:.\Generated_Source\PSoC5/USBFS_std.c ****         USBFS_EP[ep].hwEpState  = 0u;
 655              		.loc 1 588 0 discriminator 3
 656 0006 674E     		ldr	r6, .L78
 657 0008 5300     		lsls	r3, r2, #1
 658 000a 9D18     		adds	r5, r3, r2
 659 000c AD00     		lsls	r5, r5, #2
 660 000e 7419     		adds	r4, r6, r5
 661 0010 0021     		movs	r1, #0
 662 0012 7155     		strb	r1, [r6, r5]
 589:.\Generated_Source\PSoC5/USBFS_std.c ****         USBFS_EP[ep].epToggle   = 0u;
 663              		.loc 1 589 0 discriminator 3
 664 0014 A170     		strb	r1, [r4, #2]
 590:.\Generated_Source\PSoC5/USBFS_std.c ****         USBFS_EP[ep].bufferSize = 0u;
 665              		.loc 1 590 0 discriminator 3
 666 0016 E170     		strb	r1, [r4, #3]
 591:.\Generated_Source\PSoC5/USBFS_std.c ****         USBFS_EP[ep].interface  = 0u;
 667              		.loc 1 591 0 discriminator 3
 668 0018 2181     		strh	r1, [r4, #8]	@ movhi
ARM GAS  C:\Users\LAIR\AppData\Local\Temp\cc5n6lZj.s 			page 32


 592:.\Generated_Source\PSoC5/USBFS_std.c ****         USBFS_EP[ep].apiEpState = USBFS_NO_EVENT_PENDING;
 669              		.loc 1 592 0 discriminator 3
 670 001a A172     		strb	r1, [r4, #10]
 593:.\Generated_Source\PSoC5/USBFS_std.c ****         USBFS_EP[ep].epMode     = USBFS_MODE_DISABLE;   
 671              		.loc 1 593 0 discriminator 3
 672 001c 6170     		strb	r1, [r4, #1]
 594:.\Generated_Source\PSoC5/USBFS_std.c ****     }
 673              		.loc 1 594 0 discriminator 3
 674 001e 6171     		strb	r1, [r4, #5]
 586:.\Generated_Source\PSoC5/USBFS_std.c ****     {
 675              		.loc 1 586 0 discriminator 3
 676 0020 0132     		adds	r2, r2, #1
 677              	.LVL51:
 678 0022 D2B2     		uxtb	r2, r2
 679              	.LVL52:
 680              	.L53:
 586:.\Generated_Source\PSoC5/USBFS_std.c ****     {
 681              		.loc 1 586 0 is_stmt 0 discriminator 1
 682 0024 082A     		cmp	r2, #8
 683 0026 EED9     		bls	.L54
 598:.\Generated_Source\PSoC5/USBFS_std.c ****     {
 684              		.loc 1 598 0 is_stmt 1
 685 0028 40B9     		cbnz	r0, .L74
 686 002a 0AE0     		b	.L56
 687              	.LVL53:
 688              	.L57:
 602:.\Generated_Source\PSoC5/USBFS_std.c ****             USBFS_interfaceSettingLast[i] = 0u;
 689              		.loc 1 602 0 discriminator 3
 690 002c 0022     		movs	r2, #0
 691 002e 5E49     		ldr	r1, .L78+4
 692 0030 CA54     		strb	r2, [r1, r3]
 603:.\Generated_Source\PSoC5/USBFS_std.c ****         }
 693              		.loc 1 603 0 discriminator 3
 694 0032 5E49     		ldr	r1, .L78+8
 695 0034 CA54     		strb	r2, [r1, r3]
 600:.\Generated_Source\PSoC5/USBFS_std.c ****         {
 696              		.loc 1 600 0 discriminator 3
 697 0036 0133     		adds	r3, r3, #1
 698              	.LVL54:
 699 0038 DBB2     		uxtb	r3, r3
 700              	.LVL55:
 701 003a 00E0     		b	.L55
 702              	.LVL56:
 703              	.L74:
 704 003c 0023     		movs	r3, #0
 705              	.LVL57:
 706              	.L55:
 600:.\Generated_Source\PSoC5/USBFS_std.c ****         {
 707              		.loc 1 600 0 is_stmt 0 discriminator 1
 708 003e 002B     		cmp	r3, #0
 709 0040 F4D0     		beq	.L57
 710              	.LVL58:
 711              	.L56:
 608:.\Generated_Source\PSoC5/USBFS_std.c ****     {
 712              		.loc 1 608 0 is_stmt 1
 713 0042 5B4B     		ldr	r3, .L78+12
 714 0044 1B78     		ldrb	r3, [r3]	@ zero_extendqisi2
ARM GAS  C:\Users\LAIR\AppData\Local\Temp\cc5n6lZj.s 			page 33


 715 0046 13F0FF0F 		tst	r3, #255
 716 004a 00F0A980 		beq	.L52
 614:.\Generated_Source\PSoC5/USBFS_std.c ****         
 717              		.loc 1 614 0
 718 004e 584B     		ldr	r3, .L78+12
 719 0050 1878     		ldrb	r0, [r3]	@ zero_extendqisi2
 720              	.LVL59:
 721 0052 0138     		subs	r0, r0, #1
 722 0054 C0B2     		uxtb	r0, r0
 723 0056 FFF7FEFF 		bl	USBFS_GetConfigTablePtr
 724              	.LVL60:
 617:.\Generated_Source\PSoC5/USBFS_std.c ****         if ((pDescr[USBFS_CONFIG_DESCR_ATTRIB] & USBFS_CONFIG_DESCR_ATTRIB_SELF_POWERED) != 0u)
 725              		.loc 1 617 0
 726 005a 4368     		ldr	r3, [r0, #4]
 727              	.LVL61:
 618:.\Generated_Source\PSoC5/USBFS_std.c ****         {
 728              		.loc 1 618 0
 729 005c DB79     		ldrb	r3, [r3, #7]	@ zero_extendqisi2
 730              	.LVL62:
 731 005e 13F0400F 		tst	r3, #64
 732 0062 05D0     		beq	.L59
 620:.\Generated_Source\PSoC5/USBFS_std.c ****         }
 733              		.loc 1 620 0
 734 0064 534A     		ldr	r2, .L78+16
 735 0066 1378     		ldrb	r3, [r2]	@ zero_extendqisi2
 736 0068 43F00103 		orr	r3, r3, #1
 737 006c 1370     		strb	r3, [r2]
 738 006e 04E0     		b	.L60
 739              	.L59:
 624:.\Generated_Source\PSoC5/USBFS_std.c ****         }
 740              		.loc 1 624 0
 741 0070 504A     		ldr	r2, .L78+16
 742 0072 1378     		ldrb	r3, [r2]	@ zero_extendqisi2
 743 0074 03F0FE03 		and	r3, r3, #254
 744 0078 1370     		strb	r3, [r2]
 745              	.L60:
 746              	.LVL63:
 629:.\Generated_Source\PSoC5/USBFS_std.c **** 
 747              		.loc 1 629 0
 748 007a 057A     		ldrb	r5, [r0, #8]	@ zero_extendqisi2
 749              	.LVL64:
 687:.\Generated_Source\PSoC5/USBFS_std.c ****             {
 750              		.loc 1 687 0
 751 007c 0124     		movs	r4, #1
 752 007e 61E0     		b	.L61
 753              	.LVL65:
 754              	.L69:
 690:.\Generated_Source\PSoC5/USBFS_std.c ****                 /* Find max length for each EP and select it (length could be different in differen
 755              		.loc 1 690 0
 756 0080 C168     		ldr	r1, [r0, #12]
 757              	.LVL66:
 694:.\Generated_Source\PSoC5/USBFS_std.c ****                 {
 758              		.loc 1 694 0
 759 0082 0023     		movs	r3, #0
 760 0084 5AE0     		b	.L62
 761              	.LVL67:
 762              	.L68:
ARM GAS  C:\Users\LAIR\AppData\Local\Temp\cc5n6lZj.s 			page 34


 696:.\Generated_Source\PSoC5/USBFS_std.c ****                     {
 763              		.loc 1 696 0
 764 0086 8A78     		ldrb	r2, [r1, #2]	@ zero_extendqisi2
 765 0088 02F07F02 		and	r2, r2, #127
 766 008c 9442     		cmp	r4, r2
 767 008e 52D1     		bne	.L63
 699:.\Generated_Source\PSoC5/USBFS_std.c ****                         {
 768              		.loc 1 699 0
 769 0090 2646     		mov	r6, r4
 770 0092 04EB4402 		add	r2, r4, r4, lsl #1
 771 0096 9200     		lsls	r2, r2, #2
 772 0098 424F     		ldr	r7, .L78
 773 009a 3A44     		add	r2, r2, r7
 774 009c 1289     		ldrh	r2, [r2, #8]
 775 009e 92B2     		uxth	r2, r2
 776 00a0 8F88     		ldrh	r7, [r1, #4]
 777 00a2 BA42     		cmp	r2, r7
 778 00a4 06D2     		bcs	.L64
 701:.\Generated_Source\PSoC5/USBFS_std.c ****                         }
 779              		.loc 1 701 0
 780 00a6 04EB4402 		add	r2, r4, r4, lsl #1
 781 00aa 9200     		lsls	r2, r2, #2
 782 00ac DFF8F4E0 		ldr	lr, .L78
 783 00b0 7244     		add	r2, r2, lr
 784 00b2 1781     		strh	r7, [r2, #8]	@ movhi
 785              	.L64:
 705:.\Generated_Source\PSoC5/USBFS_std.c ****                         {                            
 786              		.loc 1 705 0
 787 00b4 0A78     		ldrb	r2, [r1]	@ zero_extendqisi2
 788 00b6 3C4F     		ldr	r7, .L78+4
 789 00b8 BA5C     		ldrb	r2, [r7, r2]	@ zero_extendqisi2
 790 00ba D2B2     		uxtb	r2, r2
 791 00bc 4F78     		ldrb	r7, [r1, #1]	@ zero_extendqisi2
 792 00be BA42     		cmp	r2, r7
 793 00c0 39D1     		bne	.L63
 707:.\Generated_Source\PSoC5/USBFS_std.c ****                             USBFS_EP[i].attrib = pEP->attributes;
 794              		.loc 1 707 0
 795 00c2 91F802C0 		ldrb	ip, [r1, #2]	@ zero_extendqisi2
 796 00c6 374F     		ldr	r7, .L78
 797 00c8 7200     		lsls	r2, r6, #1
 798 00ca 3244     		add	r2, r2, r6
 799 00cc 9200     		lsls	r2, r2, #2
 800 00ce 07EB020E 		add	lr, r7, r2
 801 00d2 8EF804C0 		strb	ip, [lr, #4]
 708:.\Generated_Source\PSoC5/USBFS_std.c ****                             
 802              		.loc 1 708 0
 803 00d6 91F803E0 		ldrb	lr, [r1, #3]	@ zero_extendqisi2
 804 00da 07F802E0 		strb	lr, [r7, r2]
 710:.\Generated_Source\PSoC5/USBFS_std.c ****                             
 805              		.loc 1 710 0
 806 00de CA78     		ldrb	r2, [r1, #3]	@ zero_extendqisi2
 807 00e0 02F00302 		and	r2, r2, #3
 808              	.LVL68:
 712:.\Generated_Source\PSoC5/USBFS_std.c ****                             {
 809              		.loc 1 712 0
 810 00e4 91F90270 		ldrsb	r7, [r1, #2]
 811 00e8 002F     		cmp	r7, #0
ARM GAS  C:\Users\LAIR\AppData\Local\Temp\cc5n6lZj.s 			page 35


 812 00ea 11DA     		bge	.L65
 715:.\Generated_Source\PSoC5/USBFS_std.c ****                                 USBFS_EP[i].apiEpState = USBFS_EVENT_PENDING;
 813              		.loc 1 715 0
 814 00ec 012A     		cmp	r2, #1
 815 00ee 02D1     		bne	.L75
 816 00f0 4FF0070C 		mov	ip, #7
 817 00f4 01E0     		b	.L66
 818              	.L75:
 819 00f6 4FF00D0C 		mov	ip, #13
 820              	.L66:
 715:.\Generated_Source\PSoC5/USBFS_std.c ****                                 USBFS_EP[i].apiEpState = USBFS_EVENT_PENDING;
 821              		.loc 1 715 0 is_stmt 0 discriminator 4
 822 00fa DFF8A8E0 		ldr	lr, .L78
 823 00fe 7200     		lsls	r2, r6, #1
 824              	.LVL69:
 825 0100 9719     		adds	r7, r2, r6
 826 0102 BF00     		lsls	r7, r7, #2
 827 0104 7744     		add	r7, r7, lr
 828 0106 87F805C0 		strb	ip, [r7, #5]
 829              	.LVL70:
 716:.\Generated_Source\PSoC5/USBFS_std.c ****                                 
 830              		.loc 1 716 0 is_stmt 1 discriminator 4
 831 010a 0122     		movs	r2, #1
 832 010c 7A70     		strb	r2, [r7, #1]
 833 010e 12E0     		b	.L63
 834              	.LVL71:
 835              	.L65:
 728:.\Generated_Source\PSoC5/USBFS_std.c ****                                 USBFS_EP[i].apiEpState = USBFS_NO_EVENT_PENDING;
 836              		.loc 1 728 0
 837 0110 012A     		cmp	r2, #1
 838 0112 02D1     		bne	.L76
 839 0114 4FF0050C 		mov	ip, #5
 840 0118 01E0     		b	.L67
 841              	.L76:
 842 011a 4FF0090C 		mov	ip, #9
 843              	.L67:
 728:.\Generated_Source\PSoC5/USBFS_std.c ****                                 USBFS_EP[i].apiEpState = USBFS_NO_EVENT_PENDING;
 844              		.loc 1 728 0 is_stmt 0 discriminator 4
 845 011e 214F     		ldr	r7, .L78
 846 0120 4FEA460E 		lsl	lr, r6, #1
 847 0124 0EEB0602 		add	r2, lr, r6
 848              	.LVL72:
 849 0128 9200     		lsls	r2, r2, #2
 850 012a 3A44     		add	r2, r2, r7
 851 012c 82F805C0 		strb	ip, [r2, #5]
 852              	.LVL73:
 729:.\Generated_Source\PSoC5/USBFS_std.c ****                                 
 853              		.loc 1 729 0 is_stmt 1 discriminator 4
 854 0130 1646     		mov	r6, r2
 855 0132 0022     		movs	r2, #0
 856 0134 7270     		strb	r2, [r6, #1]
 857              	.L63:
 752:.\Generated_Source\PSoC5/USBFS_std.c ****                 }
 858              		.loc 1 752 0 discriminator 2
 859 0136 0831     		adds	r1, r1, #8
 860              	.LVL74:
 694:.\Generated_Source\PSoC5/USBFS_std.c ****                 {
ARM GAS  C:\Users\LAIR\AppData\Local\Temp\cc5n6lZj.s 			page 36


 861              		.loc 1 694 0 discriminator 2
 862 0138 0133     		adds	r3, r3, #1
 863              	.LVL75:
 864 013a DBB2     		uxtb	r3, r3
 865              	.LVL76:
 866              	.L62:
 694:.\Generated_Source\PSoC5/USBFS_std.c ****                 {
 867              		.loc 1 694 0 is_stmt 0 discriminator 1
 868 013c AB42     		cmp	r3, r5
 869 013e A2D3     		bcc	.L68
 687:.\Generated_Source\PSoC5/USBFS_std.c ****             {
 870              		.loc 1 687 0 is_stmt 1 discriminator 2
 871 0140 0134     		adds	r4, r4, #1
 872              	.LVL77:
 873 0142 E4B2     		uxtb	r4, r4
 874              	.LVL78:
 875              	.L61:
 687:.\Generated_Source\PSoC5/USBFS_std.c ****             {
 876              		.loc 1 687 0 is_stmt 0 discriminator 1
 877 0144 082C     		cmp	r4, #8
 878 0146 9BD9     		bls	.L69
 762:.\Generated_Source\PSoC5/USBFS_std.c ****         for (i = 0u; i < ep; i++)
 879              		.loc 1 762 0 is_stmt 1
 880 0148 C068     		ldr	r0, [r0, #12]
 881              	.LVL79:
 763:.\Generated_Source\PSoC5/USBFS_std.c ****         {
 882              		.loc 1 763 0
 883 014a 0022     		movs	r2, #0
 884 014c 0CE0     		b	.L70
 885              	.LVL80:
 886              	.L71:
 766:.\Generated_Source\PSoC5/USBFS_std.c ****             pEP = &pEP[1u];
 887              		.loc 1 766 0 discriminator 3
 888 014e 8378     		ldrb	r3, [r0, #2]	@ zero_extendqisi2
 889 0150 03F07F03 		and	r3, r3, #127
 890 0154 10F8084B 		ldrb	r4, [r0], #8	@ zero_extendqisi2
 891              	.LVL81:
 892 0158 03EB4303 		add	r3, r3, r3, lsl #1
 893 015c 9B00     		lsls	r3, r3, #2
 894 015e 1649     		ldr	r1, .L78+20
 895 0160 0B44     		add	r3, r3, r1
 896 0162 9C70     		strb	r4, [r3, #2]
 897              	.LVL82:
 763:.\Generated_Source\PSoC5/USBFS_std.c ****         {
 898              		.loc 1 763 0 discriminator 3
 899 0164 0132     		adds	r2, r2, #1
 900              	.LVL83:
 901 0166 D2B2     		uxtb	r2, r2
 902              	.LVL84:
 903              	.L70:
 763:.\Generated_Source\PSoC5/USBFS_std.c ****         {
 904              		.loc 1 763 0 is_stmt 0 discriminator 1
 905 0168 AA42     		cmp	r2, r5
 906 016a F0D3     		bcc	.L71
 771:.\Generated_Source\PSoC5/USBFS_std.c ****         
 907              		.loc 1 771 0 is_stmt 1
 908 016c FFF7FEFF 		bl	USBFS_GetInterfaceClassTablePtr
ARM GAS  C:\Users\LAIR\AppData\Local\Temp\cc5n6lZj.s 			page 37


 909              	.LVL85:
 910 0170 124B     		ldr	r3, .L78+24
 911 0172 1860     		str	r0, [r3]
 912              	.LVL86:
 775:.\Generated_Source\PSoC5/USBFS_std.c ****         for (ep = USBFS_EP1; ep < USBFS_MAX_EP; ++ep)
 913              		.loc 1 775 0
 914 0174 0023     		movs	r3, #0
 776:.\Generated_Source\PSoC5/USBFS_std.c ****         {
 915              		.loc 1 776 0
 916 0176 0121     		movs	r1, #1
 917 0178 0EE0     		b	.L72
 918              	.LVL87:
 919              	.L73:
 778:.\Generated_Source\PSoC5/USBFS_std.c ****             buffCount += USBFS_EP[ep].bufferSize;
 920              		.loc 1 778 0 discriminator 3
 921 017a 0A4C     		ldr	r4, .L78
 922 017c 4A00     		lsls	r2, r1, #1
 923 017e 5018     		adds	r0, r2, r1
 924 0180 8000     		lsls	r0, r0, #2
 925 0182 2044     		add	r0, r0, r4
 926 0184 C380     		strh	r3, [r0, #6]	@ movhi
 779:.\Generated_Source\PSoC5/USBFS_std.c ****             
 927              		.loc 1 779 0 discriminator 3
 928 0186 0289     		ldrh	r2, [r0, #8]
 929 0188 1344     		add	r3, r3, r2
 930              	.LVL88:
 931 018a 9BB2     		uxth	r3, r3
 932              	.LVL89:
 783:.\Generated_Source\PSoC5/USBFS_std.c ****         #endif /* (USBFS_GEN_16BITS_EP_ACCESS) */            
 933              		.loc 1 783 0 discriminator 3
 934 018c 03F00102 		and	r2, r3, #1
 935 0190 1344     		add	r3, r3, r2
 936              	.LVL90:
 937 0192 9BB2     		uxth	r3, r3
 938              	.LVL91:
 776:.\Generated_Source\PSoC5/USBFS_std.c ****         {
 939              		.loc 1 776 0 discriminator 3
 940 0194 0131     		adds	r1, r1, #1
 941              	.LVL92:
 942 0196 C9B2     		uxtb	r1, r1
 943              	.LVL93:
 944              	.L72:
 776:.\Generated_Source\PSoC5/USBFS_std.c ****         {
 945              		.loc 1 776 0 is_stmt 0 discriminator 1
 946 0198 0829     		cmp	r1, #8
 947 019a EED9     		bls	.L73
 789:.\Generated_Source\PSoC5/USBFS_std.c ****     }
 948              		.loc 1 789 0 is_stmt 1
 949 019c FFF7FEFF 		bl	USBFS_ConfigReg
 950              	.LVL94:
 951              	.L52:
 952 01a0 F8BD     		pop	{r3, r4, r5, r6, r7, pc}
 953              	.L79:
 954 01a2 00BF     		.align	2
 955              	.L78:
 956 01a4 00000000 		.word	USBFS_EP
 957 01a8 00000000 		.word	USBFS_interfaceSetting
ARM GAS  C:\Users\LAIR\AppData\Local\Temp\cc5n6lZj.s 			page 38


 958 01ac 00000000 		.word	USBFS_interfaceSettingLast
 959 01b0 00000000 		.word	USBFS_configuration
 960 01b4 00000000 		.word	USBFS_deviceStatus
 961 01b8 08000000 		.word	USBFS_EP+8
 962 01bc 00000000 		.word	USBFS_interfaceClass
 963              		.cfi_endproc
 964              	.LFE4:
 965              		.size	USBFS_Config, .-USBFS_Config
 966              		.section	.text.USBFS_TerminateEP,"ax",%progbits
 967              		.align	2
 968              		.global	USBFS_TerminateEP
 969              		.thumb
 970              		.thumb_func
 971              		.type	USBFS_TerminateEP, %function
 972              	USBFS_TerminateEP:
 973              	.LFB9:
1053:.\Generated_Source\PSoC5/USBFS_std.c **** 
1054:.\Generated_Source\PSoC5/USBFS_std.c **** 
1055:.\Generated_Source\PSoC5/USBFS_std.c **** /*******************************************************************************
1056:.\Generated_Source\PSoC5/USBFS_std.c **** * Function Name: USBFS_TerminateEP
1057:.\Generated_Source\PSoC5/USBFS_std.c **** ****************************************************************************//**
1058:.\Generated_Source\PSoC5/USBFS_std.c **** *
1059:.\Generated_Source\PSoC5/USBFS_std.c **** *  This function terminates the specified USBFS endpoint.
1060:.\Generated_Source\PSoC5/USBFS_std.c **** *  This function should be used before endpoint reconfiguration.
1061:.\Generated_Source\PSoC5/USBFS_std.c **** *
1062:.\Generated_Source\PSoC5/USBFS_std.c **** *  \param ep Contains the data endpoint number.
1063:.\Generated_Source\PSoC5/USBFS_std.c **** *
1064:.\Generated_Source\PSoC5/USBFS_std.c **** *  \reentrant
1065:.\Generated_Source\PSoC5/USBFS_std.c **** *  No.
1066:.\Generated_Source\PSoC5/USBFS_std.c **** *
1067:.\Generated_Source\PSoC5/USBFS_std.c **** * \sideeffect
1068:.\Generated_Source\PSoC5/USBFS_std.c **** * 
1069:.\Generated_Source\PSoC5/USBFS_std.c **** * The device responds with a NAK for any transactions on the selected endpoint.
1070:.\Generated_Source\PSoC5/USBFS_std.c **** *   
1071:.\Generated_Source\PSoC5/USBFS_std.c **** *******************************************************************************/
1072:.\Generated_Source\PSoC5/USBFS_std.c **** void USBFS_TerminateEP(uint8 epNumber) 
1073:.\Generated_Source\PSoC5/USBFS_std.c **** {
 974              		.loc 1 1073 0
 975              		.cfi_startproc
 976              		@ args = 0, pretend = 0, frame = 0
 977              		@ frame_needed = 0, uses_anonymous_args = 0
 978              		@ link register save eliminated.
 979              	.LVL95:
1074:.\Generated_Source\PSoC5/USBFS_std.c ****     /* Get endpoint number */
1075:.\Generated_Source\PSoC5/USBFS_std.c ****     epNumber &= USBFS_DIR_UNUSED;
 980              		.loc 1 1075 0
 981 0000 00F07F00 		and	r0, r0, #127
 982              	.LVL96:
1076:.\Generated_Source\PSoC5/USBFS_std.c **** 
1077:.\Generated_Source\PSoC5/USBFS_std.c ****     if ((epNumber > USBFS_EP0) && (epNumber < USBFS_MAX_EP))
 983              		.loc 1 1077 0
 984 0004 431E     		subs	r3, r0, #1
 985 0006 DBB2     		uxtb	r3, r3
 986 0008 072B     		cmp	r3, #7
 987 000a 19D8     		bhi	.L80
1078:.\Generated_Source\PSoC5/USBFS_std.c ****     {
1079:.\Generated_Source\PSoC5/USBFS_std.c ****         /* Set the endpoint Halt */
ARM GAS  C:\Users\LAIR\AppData\Local\Temp\cc5n6lZj.s 			page 39


1080:.\Generated_Source\PSoC5/USBFS_std.c ****         USBFS_EP[epNumber].hwEpState |= USBFS_ENDPOINT_STATUS_HALT;
 988              		.loc 1 1080 0
 989 000c 4300     		lsls	r3, r0, #1
 990 000e 0344     		add	r3, r3, r0
 991 0010 9B00     		lsls	r3, r3, #2
 992 0012 0C4A     		ldr	r2, .L83
 993 0014 1344     		add	r3, r3, r2
 994 0016 9A78     		ldrb	r2, [r3, #2]	@ zero_extendqisi2
 995 0018 42F00102 		orr	r2, r2, #1
 996 001c 9A70     		strb	r2, [r3, #2]
1081:.\Generated_Source\PSoC5/USBFS_std.c **** 
1082:.\Generated_Source\PSoC5/USBFS_std.c ****         /* Clear the data toggle */
1083:.\Generated_Source\PSoC5/USBFS_std.c ****         USBFS_EP[epNumber].epToggle = 0u;
 997              		.loc 1 1083 0
 998 001e 0022     		movs	r2, #0
 999 0020 DA70     		strb	r2, [r3, #3]
1084:.\Generated_Source\PSoC5/USBFS_std.c ****         USBFS_EP[epNumber].apiEpState = USBFS_NO_EVENT_ALLOWED;
 1000              		.loc 1 1084 0
 1001 0022 0222     		movs	r2, #2
 1002 0024 5A70     		strb	r2, [r3, #1]
1085:.\Generated_Source\PSoC5/USBFS_std.c **** 
1086:.\Generated_Source\PSoC5/USBFS_std.c ****         if ((USBFS_EP[epNumber].addr & USBFS_DIR_IN) != 0u)
 1003              		.loc 1 1086 0
 1004 0026 1B79     		ldrb	r3, [r3, #4]	@ zero_extendqisi2
 1005 0028 13F0800F 		tst	r3, #128
 1006 002c 04D0     		beq	.L82
1087:.\Generated_Source\PSoC5/USBFS_std.c ****         {   
1088:.\Generated_Source\PSoC5/USBFS_std.c ****             /* IN Endpoint */
1089:.\Generated_Source\PSoC5/USBFS_std.c ****             USBFS_SIE_EP_BASE.sieEp[epNumber].epCr0 = USBFS_MODE_NAK_IN;
 1007              		.loc 1 1089 0
 1008 002e 0001     		lsls	r0, r0, #4
 1009              	.LVL97:
 1010 0030 054B     		ldr	r3, .L83+4
 1011 0032 0C22     		movs	r2, #12
 1012 0034 1A54     		strb	r2, [r3, r0]
 1013 0036 7047     		bx	lr
 1014              	.LVL98:
 1015              	.L82:
1090:.\Generated_Source\PSoC5/USBFS_std.c ****         }
1091:.\Generated_Source\PSoC5/USBFS_std.c ****         else
1092:.\Generated_Source\PSoC5/USBFS_std.c ****         {
1093:.\Generated_Source\PSoC5/USBFS_std.c ****             /* OUT Endpoint */
1094:.\Generated_Source\PSoC5/USBFS_std.c ****             USBFS_SIE_EP_BASE.sieEp[epNumber].epCr0 = USBFS_MODE_NAK_OUT;
 1016              		.loc 1 1094 0
 1017 0038 0001     		lsls	r0, r0, #4
 1018              	.LVL99:
 1019 003a 034B     		ldr	r3, .L83+4
 1020 003c 0822     		movs	r2, #8
 1021 003e 1A54     		strb	r2, [r3, r0]
 1022              	.L80:
 1023 0040 7047     		bx	lr
 1024              	.L84:
 1025 0042 00BF     		.align	2
 1026              	.L83:
 1027 0044 00000000 		.word	USBFS_EP
 1028 0048 FE5F0040 		.word	1073766398
 1029              		.cfi_endproc
ARM GAS  C:\Users\LAIR\AppData\Local\Temp\cc5n6lZj.s 			page 40


 1030              	.LFE9:
 1031              		.size	USBFS_TerminateEP, .-USBFS_TerminateEP
 1032              		.section	.text.USBFS_SetEndpointHalt,"ax",%progbits
 1033              		.align	2
 1034              		.global	USBFS_SetEndpointHalt
 1035              		.thumb
 1036              		.thumb_func
 1037              		.type	USBFS_SetEndpointHalt, %function
 1038              	USBFS_SetEndpointHalt:
 1039              	.LFB10:
1095:.\Generated_Source\PSoC5/USBFS_std.c ****         }
1096:.\Generated_Source\PSoC5/USBFS_std.c ****     }
1097:.\Generated_Source\PSoC5/USBFS_std.c **** }
1098:.\Generated_Source\PSoC5/USBFS_std.c **** 
1099:.\Generated_Source\PSoC5/USBFS_std.c **** 
1100:.\Generated_Source\PSoC5/USBFS_std.c **** /*******************************************************************************
1101:.\Generated_Source\PSoC5/USBFS_std.c **** * Function Name: USBFS_SetEndpointHalt
1102:.\Generated_Source\PSoC5/USBFS_std.c **** ****************************************************************************//**
1103:.\Generated_Source\PSoC5/USBFS_std.c **** *
1104:.\Generated_Source\PSoC5/USBFS_std.c **** *  This routine handles set endpoint halt.
1105:.\Generated_Source\PSoC5/USBFS_std.c **** *
1106:.\Generated_Source\PSoC5/USBFS_std.c **** * \return
1107:.\Generated_Source\PSoC5/USBFS_std.c **** *  requestHandled.
1108:.\Generated_Source\PSoC5/USBFS_std.c **** *
1109:.\Generated_Source\PSoC5/USBFS_std.c **** * \reentrant
1110:.\Generated_Source\PSoC5/USBFS_std.c **** *  No.
1111:.\Generated_Source\PSoC5/USBFS_std.c **** *
1112:.\Generated_Source\PSoC5/USBFS_std.c **** *******************************************************************************/
1113:.\Generated_Source\PSoC5/USBFS_std.c **** uint8 USBFS_SetEndpointHalt(void) 
1114:.\Generated_Source\PSoC5/USBFS_std.c **** {
 1040              		.loc 1 1114 0
 1041              		.cfi_startproc
 1042              		@ args = 0, pretend = 0, frame = 0
 1043              		@ frame_needed = 0, uses_anonymous_args = 0
 1044 0000 08B5     		push	{r3, lr}
 1045              		.cfi_def_cfa_offset 8
 1046              		.cfi_offset 3, -8
 1047              		.cfi_offset 14, -4
 1048              	.LVL100:
1115:.\Generated_Source\PSoC5/USBFS_std.c ****     uint8 requestHandled = USBFS_FALSE;
1116:.\Generated_Source\PSoC5/USBFS_std.c ****     uint8 ep;
1117:.\Generated_Source\PSoC5/USBFS_std.c ****     
1118:.\Generated_Source\PSoC5/USBFS_std.c ****     /* Set endpoint halt */
1119:.\Generated_Source\PSoC5/USBFS_std.c ****     ep = USBFS_wIndexLoReg & USBFS_DIR_UNUSED;
 1049              		.loc 1 1119 0
 1050 0002 154B     		ldr	r3, .L91
 1051 0004 1A79     		ldrb	r2, [r3, #4]	@ zero_extendqisi2
 1052 0006 02F07F02 		and	r2, r2, #127
 1053              	.LVL101:
1120:.\Generated_Source\PSoC5/USBFS_std.c **** 
1121:.\Generated_Source\PSoC5/USBFS_std.c ****     if ((ep > USBFS_EP0) && (ep < USBFS_MAX_EP))
 1054              		.loc 1 1121 0
 1055 000a 531E     		subs	r3, r2, #1
 1056 000c DBB2     		uxtb	r3, r3
 1057 000e 072B     		cmp	r3, #7
 1058 0010 20D8     		bhi	.L89
1122:.\Generated_Source\PSoC5/USBFS_std.c ****     {
ARM GAS  C:\Users\LAIR\AppData\Local\Temp\cc5n6lZj.s 			page 41


1123:.\Generated_Source\PSoC5/USBFS_std.c ****         /* Set the endpoint Halt */
1124:.\Generated_Source\PSoC5/USBFS_std.c ****         USBFS_EP[ep].hwEpState |= (USBFS_ENDPOINT_STATUS_HALT);
 1059              		.loc 1 1124 0
 1060 0012 5300     		lsls	r3, r2, #1
 1061 0014 1344     		add	r3, r3, r2
 1062 0016 9B00     		lsls	r3, r3, #2
 1063 0018 1049     		ldr	r1, .L91+4
 1064 001a 0B44     		add	r3, r3, r1
 1065 001c 9978     		ldrb	r1, [r3, #2]	@ zero_extendqisi2
 1066 001e 41F00101 		orr	r1, r1, #1
 1067 0022 9970     		strb	r1, [r3, #2]
1125:.\Generated_Source\PSoC5/USBFS_std.c **** 
1126:.\Generated_Source\PSoC5/USBFS_std.c ****         /* Clear the data toggle */
1127:.\Generated_Source\PSoC5/USBFS_std.c ****         USBFS_EP[ep].epToggle = 0u;
 1068              		.loc 1 1127 0
 1069 0024 0021     		movs	r1, #0
 1070 0026 D970     		strb	r1, [r3, #3]
1128:.\Generated_Source\PSoC5/USBFS_std.c ****         USBFS_EP[ep].apiEpState |= USBFS_NO_EVENT_ALLOWED;
 1071              		.loc 1 1128 0
 1072 0028 5978     		ldrb	r1, [r3, #1]	@ zero_extendqisi2
 1073 002a 41F00201 		orr	r1, r1, #2
 1074 002e 5970     		strb	r1, [r3, #1]
1129:.\Generated_Source\PSoC5/USBFS_std.c **** 
1130:.\Generated_Source\PSoC5/USBFS_std.c ****         if ((USBFS_EP[ep].addr & USBFS_DIR_IN) != 0u)
 1075              		.loc 1 1130 0
 1076 0030 1B79     		ldrb	r3, [r3, #4]	@ zero_extendqisi2
 1077 0032 13F0800F 		tst	r3, #128
 1078 0036 05D0     		beq	.L87
1131:.\Generated_Source\PSoC5/USBFS_std.c ****         {
1132:.\Generated_Source\PSoC5/USBFS_std.c ****             /* IN Endpoint */
1133:.\Generated_Source\PSoC5/USBFS_std.c ****             USBFS_SIE_EP_BASE.sieEp[ep].epCr0 = (USBFS_MODE_STALL_DATA_EP | 
 1079              		.loc 1 1133 0
 1080 0038 1201     		lsls	r2, r2, #4
 1081              	.LVL102:
 1082 003a 094B     		ldr	r3, .L91+8
 1083 003c 1344     		add	r3, r3, r2
 1084 003e 8D22     		movs	r2, #141
 1085 0040 9A70     		strb	r2, [r3, #2]
 1086 0042 04E0     		b	.L88
 1087              	.LVL103:
 1088              	.L87:
1134:.\Generated_Source\PSoC5/USBFS_std.c ****                                                             USBFS_MODE_ACK_IN);
1135:.\Generated_Source\PSoC5/USBFS_std.c ****         }
1136:.\Generated_Source\PSoC5/USBFS_std.c ****         else
1137:.\Generated_Source\PSoC5/USBFS_std.c ****         {
1138:.\Generated_Source\PSoC5/USBFS_std.c ****             /* OUT Endpoint */
1139:.\Generated_Source\PSoC5/USBFS_std.c ****             USBFS_SIE_EP_BASE.sieEp[ep].epCr0 = (USBFS_MODE_STALL_DATA_EP | 
 1089              		.loc 1 1139 0
 1090 0044 1201     		lsls	r2, r2, #4
 1091              	.LVL104:
 1092 0046 064B     		ldr	r3, .L91+8
 1093 0048 1344     		add	r3, r3, r2
 1094 004a 8922     		movs	r2, #137
 1095 004c 9A70     		strb	r2, [r3, #2]
 1096              	.L88:
1140:.\Generated_Source\PSoC5/USBFS_std.c ****                                                             USBFS_MODE_ACK_OUT);
1141:.\Generated_Source\PSoC5/USBFS_std.c ****         }
ARM GAS  C:\Users\LAIR\AppData\Local\Temp\cc5n6lZj.s 			page 42


1142:.\Generated_Source\PSoC5/USBFS_std.c ****         requestHandled = USBFS_InitNoDataControlTransfer();
 1097              		.loc 1 1142 0
 1098 004e FFF7FEFF 		bl	USBFS_InitNoDataControlTransfer
 1099              	.LVL105:
 1100 0052 08BD     		pop	{r3, pc}
 1101              	.LVL106:
 1102              	.L89:
1115:.\Generated_Source\PSoC5/USBFS_std.c ****     uint8 ep;
 1103              		.loc 1 1115 0
 1104 0054 0020     		movs	r0, #0
 1105              	.LVL107:
1143:.\Generated_Source\PSoC5/USBFS_std.c ****     }
1144:.\Generated_Source\PSoC5/USBFS_std.c **** 
1145:.\Generated_Source\PSoC5/USBFS_std.c ****     return (requestHandled);
1146:.\Generated_Source\PSoC5/USBFS_std.c **** }
 1106              		.loc 1 1146 0
 1107 0056 08BD     		pop	{r3, pc}
 1108              	.L92:
 1109              		.align	2
 1110              	.L91:
 1111 0058 00600040 		.word	1073766400
 1112 005c 00000000 		.word	USBFS_EP
 1113 0060 FC5F0040 		.word	1073766396
 1114              		.cfi_endproc
 1115              	.LFE10:
 1116              		.size	USBFS_SetEndpointHalt, .-USBFS_SetEndpointHalt
 1117              		.section	.text.USBFS_ClearEndpointHalt,"ax",%progbits
 1118              		.align	2
 1119              		.global	USBFS_ClearEndpointHalt
 1120              		.thumb
 1121              		.thumb_func
 1122              		.type	USBFS_ClearEndpointHalt, %function
 1123              	USBFS_ClearEndpointHalt:
 1124              	.LFB11:
1147:.\Generated_Source\PSoC5/USBFS_std.c **** 
1148:.\Generated_Source\PSoC5/USBFS_std.c **** 
1149:.\Generated_Source\PSoC5/USBFS_std.c **** /*******************************************************************************
1150:.\Generated_Source\PSoC5/USBFS_std.c **** * Function Name: USBFS_ClearEndpointHalt
1151:.\Generated_Source\PSoC5/USBFS_std.c **** ****************************************************************************//**
1152:.\Generated_Source\PSoC5/USBFS_std.c **** *
1153:.\Generated_Source\PSoC5/USBFS_std.c **** *  This routine handles clear endpoint halt.
1154:.\Generated_Source\PSoC5/USBFS_std.c **** *
1155:.\Generated_Source\PSoC5/USBFS_std.c **** * \return
1156:.\Generated_Source\PSoC5/USBFS_std.c **** *  requestHandled.
1157:.\Generated_Source\PSoC5/USBFS_std.c **** *
1158:.\Generated_Source\PSoC5/USBFS_std.c **** * \reentrant
1159:.\Generated_Source\PSoC5/USBFS_std.c **** *  No.
1160:.\Generated_Source\PSoC5/USBFS_std.c **** *
1161:.\Generated_Source\PSoC5/USBFS_std.c **** *******************************************************************************/
1162:.\Generated_Source\PSoC5/USBFS_std.c **** uint8 USBFS_ClearEndpointHalt(void) 
1163:.\Generated_Source\PSoC5/USBFS_std.c **** {
 1125              		.loc 1 1163 0
 1126              		.cfi_startproc
 1127              		@ args = 0, pretend = 0, frame = 0
 1128              		@ frame_needed = 0, uses_anonymous_args = 0
 1129              	.LVL108:
1164:.\Generated_Source\PSoC5/USBFS_std.c ****     uint8 requestHandled = USBFS_FALSE;
ARM GAS  C:\Users\LAIR\AppData\Local\Temp\cc5n6lZj.s 			page 43


1165:.\Generated_Source\PSoC5/USBFS_std.c ****     uint8 ep;
1166:.\Generated_Source\PSoC5/USBFS_std.c **** 
1167:.\Generated_Source\PSoC5/USBFS_std.c ****     /* Clear endpoint halt */
1168:.\Generated_Source\PSoC5/USBFS_std.c ****     ep = USBFS_wIndexLoReg & USBFS_DIR_UNUSED;
 1130              		.loc 1 1168 0
 1131 0000 264B     		ldr	r3, .L102
 1132 0002 1B79     		ldrb	r3, [r3, #4]	@ zero_extendqisi2
 1133 0004 03F07F03 		and	r3, r3, #127
 1134              	.LVL109:
1169:.\Generated_Source\PSoC5/USBFS_std.c **** 
1170:.\Generated_Source\PSoC5/USBFS_std.c ****     if ((ep > USBFS_EP0) && (ep < USBFS_MAX_EP))
 1135              		.loc 1 1170 0
 1136 0008 5A1E     		subs	r2, r3, #1
 1137 000a D2B2     		uxtb	r2, r2
 1138 000c 072A     		cmp	r2, #7
 1139 000e 43D8     		bhi	.L99
1163:.\Generated_Source\PSoC5/USBFS_std.c ****     uint8 requestHandled = USBFS_FALSE;
 1140              		.loc 1 1163 0
 1141 0010 10B5     		push	{r4, lr}
 1142              		.cfi_def_cfa_offset 8
 1143              		.cfi_offset 4, -8
 1144              		.cfi_offset 14, -4
1171:.\Generated_Source\PSoC5/USBFS_std.c ****     {
1172:.\Generated_Source\PSoC5/USBFS_std.c ****         /* Clear the endpoint Halt */
1173:.\Generated_Source\PSoC5/USBFS_std.c ****         USBFS_EP[ep].hwEpState &= (uint8) ~USBFS_ENDPOINT_STATUS_HALT;
 1145              		.loc 1 1173 0
 1146 0012 5A00     		lsls	r2, r3, #1
 1147 0014 1A44     		add	r2, r2, r3
 1148 0016 9200     		lsls	r2, r2, #2
 1149 0018 2149     		ldr	r1, .L102+4
 1150 001a 0A44     		add	r2, r2, r1
 1151 001c 9178     		ldrb	r1, [r2, #2]	@ zero_extendqisi2
 1152 001e 01F0FE01 		and	r1, r1, #254
 1153 0022 9170     		strb	r1, [r2, #2]
1174:.\Generated_Source\PSoC5/USBFS_std.c **** 
1175:.\Generated_Source\PSoC5/USBFS_std.c ****         /* Clear the data toggle */
1176:.\Generated_Source\PSoC5/USBFS_std.c ****         USBFS_EP[ep].epToggle = 0u;
 1154              		.loc 1 1176 0
 1155 0024 0021     		movs	r1, #0
 1156 0026 D170     		strb	r1, [r2, #3]
1177:.\Generated_Source\PSoC5/USBFS_std.c ****         
1178:.\Generated_Source\PSoC5/USBFS_std.c ****         /* Clear toggle bit for already armed packet */
1179:.\Generated_Source\PSoC5/USBFS_std.c ****         USBFS_SIE_EP_BASE.sieEp[ep].epCnt0 = (uint8) ~(uint8)USBFS_EPX_CNT_DATA_TOGGLE;
 1157              		.loc 1 1179 0
 1158 0028 1901     		lsls	r1, r3, #4
 1159 002a 7F24     		movs	r4, #127
 1160 002c 1D48     		ldr	r0, .L102+8
 1161 002e 4454     		strb	r4, [r0, r1]
1180:.\Generated_Source\PSoC5/USBFS_std.c ****         
1181:.\Generated_Source\PSoC5/USBFS_std.c ****         /* Return API State as it was defined before */
1182:.\Generated_Source\PSoC5/USBFS_std.c ****         USBFS_EP[ep].apiEpState &= (uint8) ~USBFS_NO_EVENT_ALLOWED;
 1162              		.loc 1 1182 0
 1163 0030 5178     		ldrb	r1, [r2, #1]	@ zero_extendqisi2
 1164 0032 01F0FD01 		and	r1, r1, #253
 1165 0036 5170     		strb	r1, [r2, #1]
1183:.\Generated_Source\PSoC5/USBFS_std.c **** 
1184:.\Generated_Source\PSoC5/USBFS_std.c ****         if ((USBFS_EP[ep].addr & USBFS_DIR_IN) != 0u)
ARM GAS  C:\Users\LAIR\AppData\Local\Temp\cc5n6lZj.s 			page 44


 1166              		.loc 1 1184 0
 1167 0038 1279     		ldrb	r2, [r2, #4]	@ zero_extendqisi2
 1168 003a 12F0800F 		tst	r2, #128
 1169 003e 14D0     		beq	.L95
1185:.\Generated_Source\PSoC5/USBFS_std.c ****         {
1186:.\Generated_Source\PSoC5/USBFS_std.c ****             /* IN Endpoint */
1187:.\Generated_Source\PSoC5/USBFS_std.c ****             if(USBFS_EP[ep].apiEpState == USBFS_IN_BUFFER_EMPTY)
 1170              		.loc 1 1187 0
 1171 0040 03EB4302 		add	r2, r3, r3, lsl #1
 1172 0044 9200     		lsls	r2, r2, #2
 1173 0046 1649     		ldr	r1, .L102+4
 1174 0048 0A44     		add	r2, r2, r1
 1175 004a 5278     		ldrb	r2, [r2, #1]	@ zero_extendqisi2
 1176 004c D2B2     		uxtb	r2, r2
 1177 004e 012A     		cmp	r2, #1
 1178 0050 05D1     		bne	.L96
1188:.\Generated_Source\PSoC5/USBFS_std.c ****             {       
1189:.\Generated_Source\PSoC5/USBFS_std.c ****                 /* Wait for next packet from application */
1190:.\Generated_Source\PSoC5/USBFS_std.c ****                 USBFS_SIE_EP_BASE.sieEp[ep].epCr0 = USBFS_MODE_NAK_IN;
 1179              		.loc 1 1190 0
 1180 0052 1B01     		lsls	r3, r3, #4
 1181              	.LVL110:
 1182 0054 0246     		mov	r2, r0
 1183 0056 1A44     		add	r2, r2, r3
 1184 0058 0C23     		movs	r3, #12
 1185 005a 9370     		strb	r3, [r2, #2]
 1186 005c 19E0     		b	.L97
 1187              	.LVL111:
 1188              	.L96:
1191:.\Generated_Source\PSoC5/USBFS_std.c ****             }
1192:.\Generated_Source\PSoC5/USBFS_std.c ****             else    /* Continue armed transfer */
1193:.\Generated_Source\PSoC5/USBFS_std.c ****             {
1194:.\Generated_Source\PSoC5/USBFS_std.c ****                 USBFS_SIE_EP_BASE.sieEp[ep].epCr0 = USBFS_MODE_ACK_IN;
 1189              		.loc 1 1194 0
 1190 005e 1B01     		lsls	r3, r3, #4
 1191              	.LVL112:
 1192 0060 104A     		ldr	r2, .L102+8
 1193 0062 1A44     		add	r2, r2, r3
 1194 0064 0D23     		movs	r3, #13
 1195 0066 9370     		strb	r3, [r2, #2]
 1196 0068 13E0     		b	.L97
 1197              	.LVL113:
 1198              	.L95:
1195:.\Generated_Source\PSoC5/USBFS_std.c ****             }
1196:.\Generated_Source\PSoC5/USBFS_std.c ****         }
1197:.\Generated_Source\PSoC5/USBFS_std.c ****         else
1198:.\Generated_Source\PSoC5/USBFS_std.c ****         {
1199:.\Generated_Source\PSoC5/USBFS_std.c ****             /* OUT Endpoint */
1200:.\Generated_Source\PSoC5/USBFS_std.c ****             if (USBFS_EP[ep].apiEpState == USBFS_OUT_BUFFER_FULL)
 1199              		.loc 1 1200 0
 1200 006a 03EB4302 		add	r2, r3, r3, lsl #1
 1201 006e 9200     		lsls	r2, r2, #2
 1202 0070 0B49     		ldr	r1, .L102+4
 1203 0072 0A44     		add	r2, r2, r1
 1204 0074 5278     		ldrb	r2, [r2, #1]	@ zero_extendqisi2
 1205 0076 D2B2     		uxtb	r2, r2
 1206 0078 012A     		cmp	r2, #1
ARM GAS  C:\Users\LAIR\AppData\Local\Temp\cc5n6lZj.s 			page 45


 1207 007a 05D1     		bne	.L98
1201:.\Generated_Source\PSoC5/USBFS_std.c ****             {       
1202:.\Generated_Source\PSoC5/USBFS_std.c ****                 /* Allow application to read full buffer */
1203:.\Generated_Source\PSoC5/USBFS_std.c ****                 USBFS_SIE_EP_BASE.sieEp[ep].epCr0 = USBFS_MODE_NAK_OUT;
 1208              		.loc 1 1203 0
 1209 007c 1B01     		lsls	r3, r3, #4
 1210              	.LVL114:
 1211 007e 094A     		ldr	r2, .L102+8
 1212 0080 1A44     		add	r2, r2, r3
 1213 0082 0823     		movs	r3, #8
 1214 0084 9370     		strb	r3, [r2, #2]
 1215 0086 04E0     		b	.L97
 1216              	.LVL115:
 1217              	.L98:
1204:.\Generated_Source\PSoC5/USBFS_std.c ****             }
1205:.\Generated_Source\PSoC5/USBFS_std.c ****             else    /* Mark endpoint as empty, so it will be reloaded */
1206:.\Generated_Source\PSoC5/USBFS_std.c ****             {
1207:.\Generated_Source\PSoC5/USBFS_std.c ****                 USBFS_SIE_EP_BASE.sieEp[ep].epCr0 = USBFS_MODE_ACK_OUT;
 1218              		.loc 1 1207 0
 1219 0088 1B01     		lsls	r3, r3, #4
 1220              	.LVL116:
 1221 008a 064A     		ldr	r2, .L102+8
 1222 008c 1A44     		add	r2, r2, r3
 1223 008e 0923     		movs	r3, #9
 1224 0090 9370     		strb	r3, [r2, #2]
 1225              	.L97:
1208:.\Generated_Source\PSoC5/USBFS_std.c ****             }
1209:.\Generated_Source\PSoC5/USBFS_std.c ****         }
1210:.\Generated_Source\PSoC5/USBFS_std.c ****         
1211:.\Generated_Source\PSoC5/USBFS_std.c ****         requestHandled = USBFS_InitNoDataControlTransfer();
 1226              		.loc 1 1211 0
 1227 0092 FFF7FEFF 		bl	USBFS_InitNoDataControlTransfer
 1228              	.LVL117:
 1229 0096 10BD     		pop	{r4, pc}
 1230              	.LVL118:
 1231              	.L99:
 1232              		.cfi_def_cfa_offset 0
 1233              		.cfi_restore 4
 1234              		.cfi_restore 14
1164:.\Generated_Source\PSoC5/USBFS_std.c ****     uint8 ep;
 1235              		.loc 1 1164 0
 1236 0098 0020     		movs	r0, #0
 1237 009a 7047     		bx	lr
 1238              	.L103:
 1239              		.align	2
 1240              	.L102:
 1241 009c 00600040 		.word	1073766400
 1242 00a0 00000000 		.word	USBFS_EP
 1243 00a4 FC5F0040 		.word	1073766396
 1244              		.cfi_endproc
 1245              	.LFE11:
 1246              		.size	USBFS_ClearEndpointHalt, .-USBFS_ClearEndpointHalt
 1247              		.section	.text.USBFS_ValidateAlternateSetting,"ax",%progbits
 1248              		.align	2
 1249              		.global	USBFS_ValidateAlternateSetting
 1250              		.thumb
 1251              		.thumb_func
ARM GAS  C:\Users\LAIR\AppData\Local\Temp\cc5n6lZj.s 			page 46


 1252              		.type	USBFS_ValidateAlternateSetting, %function
 1253              	USBFS_ValidateAlternateSetting:
 1254              	.LFB12:
1212:.\Generated_Source\PSoC5/USBFS_std.c ****     }
1213:.\Generated_Source\PSoC5/USBFS_std.c **** 
1214:.\Generated_Source\PSoC5/USBFS_std.c ****     return(requestHandled);
1215:.\Generated_Source\PSoC5/USBFS_std.c **** }
1216:.\Generated_Source\PSoC5/USBFS_std.c **** 
1217:.\Generated_Source\PSoC5/USBFS_std.c **** 
1218:.\Generated_Source\PSoC5/USBFS_std.c **** /*******************************************************************************
1219:.\Generated_Source\PSoC5/USBFS_std.c **** * Function Name: USBFS_ValidateAlternateSetting
1220:.\Generated_Source\PSoC5/USBFS_std.c **** ****************************************************************************//**
1221:.\Generated_Source\PSoC5/USBFS_std.c **** *
1222:.\Generated_Source\PSoC5/USBFS_std.c **** *  Validates (and records) a SET INTERFACE request.
1223:.\Generated_Source\PSoC5/USBFS_std.c **** *
1224:.\Generated_Source\PSoC5/USBFS_std.c **** * \return
1225:.\Generated_Source\PSoC5/USBFS_std.c **** *  requestHandled.
1226:.\Generated_Source\PSoC5/USBFS_std.c **** *
1227:.\Generated_Source\PSoC5/USBFS_std.c **** * \reentrant
1228:.\Generated_Source\PSoC5/USBFS_std.c **** *  No.
1229:.\Generated_Source\PSoC5/USBFS_std.c **** *
1230:.\Generated_Source\PSoC5/USBFS_std.c **** *******************************************************************************/
1231:.\Generated_Source\PSoC5/USBFS_std.c **** uint8 USBFS_ValidateAlternateSetting(void) 
1232:.\Generated_Source\PSoC5/USBFS_std.c **** {
 1255              		.loc 1 1232 0
 1256              		.cfi_startproc
 1257              		@ args = 0, pretend = 0, frame = 0
 1258              		@ frame_needed = 0, uses_anonymous_args = 0
 1259 0000 10B5     		push	{r4, lr}
 1260              		.cfi_def_cfa_offset 8
 1261              		.cfi_offset 4, -8
 1262              		.cfi_offset 14, -4
 1263              	.LVL119:
1233:.\Generated_Source\PSoC5/USBFS_std.c ****     uint8 requestHandled = USBFS_FALSE;
1234:.\Generated_Source\PSoC5/USBFS_std.c ****     
1235:.\Generated_Source\PSoC5/USBFS_std.c ****     uint8 interfaceNum;
1236:.\Generated_Source\PSoC5/USBFS_std.c ****     uint8 curInterfacesNum;
1237:.\Generated_Source\PSoC5/USBFS_std.c ****     const T_USBFS_LUT CYCODE *pTmp;
1238:.\Generated_Source\PSoC5/USBFS_std.c ****     
1239:.\Generated_Source\PSoC5/USBFS_std.c ****     /* Get interface number from the request. */
1240:.\Generated_Source\PSoC5/USBFS_std.c ****     interfaceNum = (uint8) USBFS_wIndexLoReg;
 1264              		.loc 1 1240 0
 1265 0002 0E4B     		ldr	r3, .L109
 1266 0004 1C79     		ldrb	r4, [r3, #4]	@ zero_extendqisi2
 1267 0006 E4B2     		uxtb	r4, r4
 1268              	.LVL120:
1241:.\Generated_Source\PSoC5/USBFS_std.c ****     
1242:.\Generated_Source\PSoC5/USBFS_std.c ****     /* Get number of interfaces for current configuration. */
1243:.\Generated_Source\PSoC5/USBFS_std.c ****     pTmp = USBFS_GetConfigTablePtr(USBFS_configuration - 1u);
 1269              		.loc 1 1243 0
 1270 0008 0D4B     		ldr	r3, .L109+4
 1271 000a 1878     		ldrb	r0, [r3]	@ zero_extendqisi2
 1272 000c 0138     		subs	r0, r0, #1
 1273 000e C0B2     		uxtb	r0, r0
 1274 0010 FFF7FEFF 		bl	USBFS_GetConfigTablePtr
 1275              	.LVL121:
1244:.\Generated_Source\PSoC5/USBFS_std.c ****     curInterfacesNum  = ((const uint8 *) pTmp->p_list)[USBFS_CONFIG_DESCR_NUM_INTERFACES];
ARM GAS  C:\Users\LAIR\AppData\Local\Temp\cc5n6lZj.s 			page 47


 1276              		.loc 1 1244 0
 1277 0014 4368     		ldr	r3, [r0, #4]
 1278 0016 1B79     		ldrb	r3, [r3, #4]	@ zero_extendqisi2
 1279              	.LVL122:
1245:.\Generated_Source\PSoC5/USBFS_std.c **** 
1246:.\Generated_Source\PSoC5/USBFS_std.c ****     /* Validate that interface number is within range. */
1247:.\Generated_Source\PSoC5/USBFS_std.c ****     if ((interfaceNum <= curInterfacesNum) || (interfaceNum <= USBFS_MAX_INTERFACES_NUMBER))
 1280              		.loc 1 1247 0
 1281 0018 9C42     		cmp	r4, r3
 1282 001a 01D9     		bls	.L105
 1283              		.loc 1 1247 0 is_stmt 0 discriminator 1
 1284 001c 012C     		cmp	r4, #1
 1285 001e 0AD8     		bhi	.L107
 1286              	.L105:
1248:.\Generated_Source\PSoC5/USBFS_std.c ****     {
1249:.\Generated_Source\PSoC5/USBFS_std.c ****         /* Save current and new alternate settings (come with request) to make 
1250:.\Generated_Source\PSoC5/USBFS_std.c ****         * desicion about following endpoint re-configuration.
1251:.\Generated_Source\PSoC5/USBFS_std.c ****         */
1252:.\Generated_Source\PSoC5/USBFS_std.c ****         USBFS_interfaceSettingLast[interfaceNum] = USBFS_interfaceSetting[interfaceNum];
 1287              		.loc 1 1252 0 is_stmt 1
 1288 0020 084A     		ldr	r2, .L109+8
 1289 0022 135D     		ldrb	r3, [r2, r4]	@ zero_extendqisi2
 1290              	.LVL123:
 1291 0024 DBB2     		uxtb	r3, r3
 1292 0026 0849     		ldr	r1, .L109+12
 1293 0028 0B55     		strb	r3, [r1, r4]
1253:.\Generated_Source\PSoC5/USBFS_std.c ****         USBFS_interfaceSetting[interfaceNum]     = (uint8) USBFS_wValueLoReg;
 1294              		.loc 1 1253 0
 1295 002a 044B     		ldr	r3, .L109
 1296 002c 9B78     		ldrb	r3, [r3, #2]	@ zero_extendqisi2
 1297 002e DBB2     		uxtb	r3, r3
 1298 0030 1355     		strb	r3, [r2, r4]
 1299              	.LVL124:
1254:.\Generated_Source\PSoC5/USBFS_std.c ****         
1255:.\Generated_Source\PSoC5/USBFS_std.c ****         requestHandled = USBFS_TRUE;
 1300              		.loc 1 1255 0
 1301 0032 0120     		movs	r0, #1
 1302              	.LVL125:
 1303 0034 10BD     		pop	{r4, pc}
 1304              	.LVL126:
 1305              	.L107:
1233:.\Generated_Source\PSoC5/USBFS_std.c ****     
 1306              		.loc 1 1233 0
 1307 0036 0020     		movs	r0, #0
 1308              	.LVL127:
1256:.\Generated_Source\PSoC5/USBFS_std.c ****     }
1257:.\Generated_Source\PSoC5/USBFS_std.c **** 
1258:.\Generated_Source\PSoC5/USBFS_std.c ****     return (requestHandled);
1259:.\Generated_Source\PSoC5/USBFS_std.c **** }
 1309              		.loc 1 1259 0
 1310 0038 10BD     		pop	{r4, pc}
 1311              	.LVL128:
 1312              	.L110:
 1313 003a 00BF     		.align	2
 1314              	.L109:
 1315 003c 00600040 		.word	1073766400
 1316 0040 00000000 		.word	USBFS_configuration
ARM GAS  C:\Users\LAIR\AppData\Local\Temp\cc5n6lZj.s 			page 48


 1317 0044 00000000 		.word	USBFS_interfaceSetting
 1318 0048 00000000 		.word	USBFS_interfaceSettingLast
 1319              		.cfi_endproc
 1320              	.LFE12:
 1321              		.size	USBFS_ValidateAlternateSetting, .-USBFS_ValidateAlternateSetting
 1322              		.section	.text.USBFS_HandleStandardRqst,"ax",%progbits
 1323              		.align	2
 1324              		.global	USBFS_HandleStandardRqst
 1325              		.thumb
 1326              		.thumb_func
 1327              		.type	USBFS_HandleStandardRqst, %function
 1328              	USBFS_HandleStandardRqst:
 1329              	.LFB0:
  85:.\Generated_Source\PSoC5/USBFS_std.c ****     uint8 requestHandled = USBFS_FALSE;
 1330              		.loc 1 85 0
 1331              		.cfi_startproc
 1332              		@ args = 0, pretend = 0, frame = 0
 1333              		@ frame_needed = 0, uses_anonymous_args = 0
 1334 0000 10B5     		push	{r4, lr}
 1335              		.cfi_def_cfa_offset 8
 1336              		.cfi_offset 4, -8
 1337              		.cfi_offset 14, -4
 1338              	.LVL129:
  89:.\Generated_Source\PSoC5/USBFS_std.c **** 
 1339              		.loc 1 89 0
 1340 0002 964B     		ldr	r3, .L168
 1341 0004 1B78     		ldrb	r3, [r3]	@ zero_extendqisi2
 1342 0006 DBB2     		uxtb	r3, r3
 1343              	.LVL130:
 102:.\Generated_Source\PSoC5/USBFS_std.c **** 
 1344              		.loc 1 102 0
 1345 0008 0021     		movs	r1, #0
 1346 000a 954A     		ldr	r2, .L168+4
 1347 000c 1180     		strh	r1, [r2]	@ movhi
 104:.\Generated_Source\PSoC5/USBFS_std.c ****     {
 1348              		.loc 1 104 0
 1349 000e 13F0800F 		tst	r3, #128
 1350 0012 00F0B380 		beq	.L112
 107:.\Generated_Source\PSoC5/USBFS_std.c ****         {
 1351              		.loc 1 107 0
 1352 0016 914A     		ldr	r2, .L168
 1353 0018 5278     		ldrb	r2, [r2, #1]	@ zero_extendqisi2
 1354 001a D2B2     		uxtb	r2, r2
 1355 001c 0A2A     		cmp	r2, #10
 1356 001e 00F27981 		bhi	.L146
 1357 0022 DFE812F0 		tbh	[pc, r2, lsl #1]
 1358              	.L115:
 1359 0026 6F00     		.2byte	(.L114-.L115)/2
 1360 0028 7701     		.2byte	(.L146-.L115)/2
 1361 002a 7701     		.2byte	(.L146-.L115)/2
 1362 002c 7701     		.2byte	(.L146-.L115)/2
 1363 002e 7701     		.2byte	(.L146-.L115)/2
 1364 0030 7701     		.2byte	(.L146-.L115)/2
 1365 0032 0B00     		.2byte	(.L116-.L115)/2
 1366 0034 7701     		.2byte	(.L146-.L115)/2
 1367 0036 9800     		.2byte	(.L117-.L115)/2
 1368 0038 7701     		.2byte	(.L146-.L115)/2
ARM GAS  C:\Users\LAIR\AppData\Local\Temp\cc5n6lZj.s 			page 49


 1369 003a A000     		.2byte	(.L118-.L115)/2
 1370              		.p2align 1
 1371              	.L116:
 110:.\Generated_Source\PSoC5/USBFS_std.c ****                 {
 1372              		.loc 1 110 0
 1373 003c 874B     		ldr	r3, .L168
 1374              	.LVL131:
 1375 003e DB78     		ldrb	r3, [r3, #3]	@ zero_extendqisi2
 1376 0040 DBB2     		uxtb	r3, r3
 1377 0042 012B     		cmp	r3, #1
 1378 0044 09D1     		bne	.L119
 112:.\Generated_Source\PSoC5/USBFS_std.c ****                     USBFS_currentTD.pData = (volatile uint8 *)pTmp->p_list;
 1379              		.loc 1 112 0
 1380 0046 FFF7FEFF 		bl	USBFS_GetDeviceTablePtr
 1381              	.LVL132:
 113:.\Generated_Source\PSoC5/USBFS_std.c ****                     USBFS_currentTD.count = USBFS_DEVICE_DESCR_LENGTH;
 1382              		.loc 1 113 0
 1383 004a 4268     		ldr	r2, [r0, #4]
 1384 004c 844B     		ldr	r3, .L168+4
 1385 004e 5A60     		str	r2, [r3, #4]
 114:.\Generated_Source\PSoC5/USBFS_std.c ****                     
 1386              		.loc 1 114 0
 1387 0050 1222     		movs	r2, #18
 1388 0052 1A80     		strh	r2, [r3]	@ movhi
 116:.\Generated_Source\PSoC5/USBFS_std.c ****                 }
 1389              		.loc 1 116 0
 1390 0054 FFF7FEFF 		bl	USBFS_InitControlRead
 1391              	.LVL133:
 1392 0058 10BD     		pop	{r4, pc}
 1393              	.LVL134:
 1394              	.L119:
 118:.\Generated_Source\PSoC5/USBFS_std.c ****                 {
 1395              		.loc 1 118 0
 1396 005a 804B     		ldr	r3, .L168
 1397 005c DB78     		ldrb	r3, [r3, #3]	@ zero_extendqisi2
 1398 005e DBB2     		uxtb	r3, r3
 1399 0060 022B     		cmp	r3, #2
 1400 0062 13D1     		bne	.L120
 120:.\Generated_Source\PSoC5/USBFS_std.c ****                     
 1401              		.loc 1 120 0
 1402 0064 7D4B     		ldr	r3, .L168
 1403 0066 9878     		ldrb	r0, [r3, #2]	@ zero_extendqisi2
 1404 0068 FFF7FEFF 		bl	USBFS_GetConfigTablePtr
 1405              	.LVL135:
 123:.\Generated_Source\PSoC5/USBFS_std.c ****                     {
 1406              		.loc 1 123 0
 1407 006c 0028     		cmp	r0, #0
 1408 006e 00F05381 		beq	.L147
 125:.\Generated_Source\PSoC5/USBFS_std.c ****                         USBFS_currentTD.count = (uint16)((uint16)(USBFS_currentTD.pData)[USBFS_CONF
 1409              		.loc 1 125 0
 1410 0072 4268     		ldr	r2, [r0, #4]
 1411 0074 7A4B     		ldr	r3, .L168+4
 1412 0076 5A60     		str	r2, [r3, #4]
 126:.\Generated_Source\PSoC5/USBFS_std.c ****                                                                             (USBFS_currentTD.pData)
 1413              		.loc 1 126 0
 1414 0078 5A68     		ldr	r2, [r3, #4]
 1415 007a D178     		ldrb	r1, [r2, #3]	@ zero_extendqisi2
ARM GAS  C:\Users\LAIR\AppData\Local\Temp\cc5n6lZj.s 			page 50


 127:.\Generated_Source\PSoC5/USBFS_std.c ****                         requestHandled  = USBFS_InitControlRead();
 1416              		.loc 1 127 0
 1417 007c 5A68     		ldr	r2, [r3, #4]
 1418 007e 9278     		ldrb	r2, [r2, #2]	@ zero_extendqisi2
 126:.\Generated_Source\PSoC5/USBFS_std.c ****                                                                             (USBFS_currentTD.pData)
 1419              		.loc 1 126 0
 1420 0080 42EA0122 		orr	r2, r2, r1, lsl #8
 1421 0084 1A80     		strh	r2, [r3]	@ movhi
 128:.\Generated_Source\PSoC5/USBFS_std.c ****                     }
 1422              		.loc 1 128 0
 1423 0086 FFF7FEFF 		bl	USBFS_InitControlRead
 1424              	.LVL136:
 1425 008a 10BD     		pop	{r4, pc}
 1426              	.LVL137:
 1427              	.L120:
 149:.\Generated_Source\PSoC5/USBFS_std.c ****                 {
 1428              		.loc 1 149 0
 1429 008c 734B     		ldr	r3, .L168
 1430 008e DB78     		ldrb	r3, [r3, #3]	@ zero_extendqisi2
 1431 0090 DBB2     		uxtb	r3, r3
 1432 0092 032B     		cmp	r3, #3
 1433 0094 05D0     		beq	.L148
 1434 0096 32E0     		b	.L163
 1435              	.LVL138:
 1436              	.L124:
 159:.\Generated_Source\PSoC5/USBFS_std.c ****                         /* Move to next string descriptor */
 1437              		.loc 1 159 0
 1438 0098 0A78     		ldrb	r2, [r1]	@ zero_extendqisi2
 1439              	.LVL139:
 161:.\Generated_Source\PSoC5/USBFS_std.c ****                         nStr++;
 1440              		.loc 1 161 0
 1441 009a 1144     		add	r1, r1, r2
 1442              	.LVL140:
 162:.\Generated_Source\PSoC5/USBFS_std.c ****                     }
 1443              		.loc 1 162 0
 1444 009c 0133     		adds	r3, r3, #1
 1445              	.LVL141:
 1446 009e DBB2     		uxtb	r3, r3
 1447              	.LVL142:
 1448 00a0 01E0     		b	.L121
 1449              	.LVL143:
 1450              	.L148:
 1451 00a2 0023     		movs	r3, #0
 1452 00a4 6F49     		ldr	r1, .L168+8
 1453              	.LVL144:
 1454              	.L121:
 156:.\Generated_Source\PSoC5/USBFS_std.c ****                     {
 1455              		.loc 1 156 0
 1456 00a6 6D4A     		ldr	r2, .L168
 1457 00a8 9278     		ldrb	r2, [r2, #2]	@ zero_extendqisi2
 1458 00aa D2B2     		uxtb	r2, r2
 1459 00ac 9A42     		cmp	r2, r3
 1460 00ae 03D9     		bls	.L123
 156:.\Generated_Source\PSoC5/USBFS_std.c ****                     {
 1461              		.loc 1 156 0 is_stmt 0 discriminator 1
 1462 00b0 0A78     		ldrb	r2, [r1]	@ zero_extendqisi2
 1463 00b2 12F0FF0F 		tst	r2, #255
ARM GAS  C:\Users\LAIR\AppData\Local\Temp\cc5n6lZj.s 			page 51


 1464 00b6 EFD1     		bne	.L124
 1465              	.L123:
 168:.\Generated_Source\PSoC5/USBFS_std.c ****                     {
 1466              		.loc 1 168 0 is_stmt 1
 1467 00b8 684B     		ldr	r3, .L168
 1468              	.LVL145:
 1469 00ba 9B78     		ldrb	r3, [r3, #2]	@ zero_extendqisi2
 1470 00bc DBB2     		uxtb	r3, r3
 1471 00be EE2B     		cmp	r3, #238
 1472 00c0 00D1     		bne	.L125
 170:.\Generated_Source\PSoC5/USBFS_std.c ****                     }
 1473              		.loc 1 170 0
 1474 00c2 6949     		ldr	r1, .L168+12
 1475              	.LVL146:
 1476              	.L125:
 176:.\Generated_Source\PSoC5/USBFS_std.c ****                         (USBFS_wValueLoReg == USBFS_DEVICE0_DESCR[USBFS_DEVICE_DESCR_SN_SHIFT]))
 1477              		.loc 1 176 0
 1478 00c4 654B     		ldr	r3, .L168
 1479 00c6 9B78     		ldrb	r3, [r3, #2]	@ zero_extendqisi2
 1480 00c8 13F0FF0F 		tst	r3, #255
 1481 00cc 0BD0     		beq	.L126
 177:.\Generated_Source\PSoC5/USBFS_std.c ****                     {
 1482              		.loc 1 177 0 discriminator 1
 1483 00ce 634B     		ldr	r3, .L168
 1484 00d0 9B78     		ldrb	r3, [r3, #2]	@ zero_extendqisi2
 1485 00d2 DBB2     		uxtb	r3, r3
 1486 00d4 654A     		ldr	r2, .L168+16
 1487 00d6 127C     		ldrb	r2, [r2, #16]	@ zero_extendqisi2
 176:.\Generated_Source\PSoC5/USBFS_std.c ****                         (USBFS_wValueLoReg == USBFS_DEVICE0_DESCR[USBFS_DEVICE_DESCR_SN_SHIFT]))
 1488              		.loc 1 176 0 discriminator 1
 1489 00d8 9342     		cmp	r3, r2
 1490 00da 04D1     		bne	.L126
 181:.\Generated_Source\PSoC5/USBFS_std.c ****                         pStr = USBFS_idSerialNumberStringDescriptor;
 1491              		.loc 1 181 0
 1492 00dc 644C     		ldr	r4, .L168+20
 1493 00de 2046     		mov	r0, r4
 1494 00e0 FFF7FEFF 		bl	USBFS_ReadDieID
 1495              	.LVL147:
 182:.\Generated_Source\PSoC5/USBFS_std.c ****                     #elif defined(USBFS_ENABLE_FWSN_STRING)
 1496              		.loc 1 182 0
 1497 00e4 2146     		mov	r1, r4
 1498              	.LVL148:
 1499              	.L126:
 199:.\Generated_Source\PSoC5/USBFS_std.c ****                     {
 1500              		.loc 1 199 0
 1501 00e6 0B78     		ldrb	r3, [r1]	@ zero_extendqisi2
 1502 00e8 13F0FF0F 		tst	r3, #255
 1503 00ec 00F01681 		beq	.L150
 201:.\Generated_Source\PSoC5/USBFS_std.c ****                         USBFS_currentTD.pData = pStr;
 1504              		.loc 1 201 0
 1505 00f0 0B78     		ldrb	r3, [r1]	@ zero_extendqisi2
 1506 00f2 5B4A     		ldr	r2, .L168+4
 1507 00f4 1380     		strh	r3, [r2]	@ movhi
 202:.\Generated_Source\PSoC5/USBFS_std.c ****                         requestHandled  = USBFS_InitControlRead();
 1508              		.loc 1 202 0
 1509 00f6 5160     		str	r1, [r2, #4]
 203:.\Generated_Source\PSoC5/USBFS_std.c ****                     }
ARM GAS  C:\Users\LAIR\AppData\Local\Temp\cc5n6lZj.s 			page 52


 1510              		.loc 1 203 0
 1511 00f8 FFF7FEFF 		bl	USBFS_InitControlRead
 1512              	.LVL149:
 1513 00fc 10BD     		pop	{r4, pc}
 1514              	.LVL150:
 1515              	.L163:
 209:.\Generated_Source\PSoC5/USBFS_std.c ****                 }
 1516              		.loc 1 209 0
 1517 00fe FFF7FEFF 		bl	USBFS_DispatchClassRqst
 1518              	.LVL151:
 1519 0102 10BD     		pop	{r4, pc}
 1520              	.LVL152:
 1521              	.L114:
 214:.\Generated_Source\PSoC5/USBFS_std.c ****                 {
 1522              		.loc 1 214 0
 1523 0104 13F00303 		ands	r3, r3, #3
 1524              	.LVL153:
 1525 0108 17D0     		beq	.L127
 1526 010a 022B     		cmp	r3, #2
 1527 010c 40F00881 		bne	.L164
 217:.\Generated_Source\PSoC5/USBFS_std.c ****                         USBFS_tBuffer[0u]     = USBFS_EP[USBFS_wIndexLoReg & USBFS_DIR_UNUSED].hwEp
 1528              		.loc 1 217 0
 1529 0110 5349     		ldr	r1, .L168+4
 1530 0112 0B80     		strh	r3, [r1]	@ movhi
 218:.\Generated_Source\PSoC5/USBFS_std.c ****                         USBFS_tBuffer[1u]     = 0u;
 1531              		.loc 1 218 0
 1532 0114 514B     		ldr	r3, .L168
 1533 0116 1B79     		ldrb	r3, [r3, #4]	@ zero_extendqisi2
 1534 0118 03F07F03 		and	r3, r3, #127
 1535 011c 03EB4303 		add	r3, r3, r3, lsl #1
 1536 0120 9B00     		lsls	r3, r3, #2
 1537 0122 544A     		ldr	r2, .L168+24
 1538 0124 1344     		add	r3, r3, r2
 1539 0126 9A78     		ldrb	r2, [r3, #2]	@ zero_extendqisi2
 1540 0128 D2B2     		uxtb	r2, r2
 1541 012a 534B     		ldr	r3, .L168+28
 1542 012c 1A70     		strb	r2, [r3]
 219:.\Generated_Source\PSoC5/USBFS_std.c ****                         USBFS_currentTD.pData = &USBFS_tBuffer[0u];
 1543              		.loc 1 219 0
 1544 012e 0022     		movs	r2, #0
 1545 0130 5A70     		strb	r2, [r3, #1]
 220:.\Generated_Source\PSoC5/USBFS_std.c ****                         
 1546              		.loc 1 220 0
 1547 0132 4B60     		str	r3, [r1, #4]
 222:.\Generated_Source\PSoC5/USBFS_std.c ****                         break;
 1548              		.loc 1 222 0
 1549 0134 FFF7FEFF 		bl	USBFS_InitControlRead
 1550              	.LVL154:
 223:.\Generated_Source\PSoC5/USBFS_std.c ****                     case USBFS_RQST_RCPT_DEV:
 1551              		.loc 1 223 0
 1552 0138 10BD     		pop	{r4, pc}
 1553              	.LVL155:
 1554              	.L127:
 225:.\Generated_Source\PSoC5/USBFS_std.c ****                         USBFS_tBuffer[0u]     = USBFS_deviceStatus;
 1555              		.loc 1 225 0
 1556 013a 4949     		ldr	r1, .L168+4
 1557 013c 0223     		movs	r3, #2
ARM GAS  C:\Users\LAIR\AppData\Local\Temp\cc5n6lZj.s 			page 53


 1558 013e 0B80     		strh	r3, [r1]	@ movhi
 226:.\Generated_Source\PSoC5/USBFS_std.c ****                         USBFS_tBuffer[1u]     = 0u;
 1559              		.loc 1 226 0
 1560 0140 4E4B     		ldr	r3, .L168+32
 1561 0142 1A78     		ldrb	r2, [r3]	@ zero_extendqisi2
 1562 0144 D2B2     		uxtb	r2, r2
 1563 0146 4C4B     		ldr	r3, .L168+28
 1564 0148 1A70     		strb	r2, [r3]
 227:.\Generated_Source\PSoC5/USBFS_std.c ****                         USBFS_currentTD.pData = &USBFS_tBuffer[0u];
 1565              		.loc 1 227 0
 1566 014a 0022     		movs	r2, #0
 1567 014c 5A70     		strb	r2, [r3, #1]
 228:.\Generated_Source\PSoC5/USBFS_std.c ****                         
 1568              		.loc 1 228 0
 1569 014e 4B60     		str	r3, [r1, #4]
 230:.\Generated_Source\PSoC5/USBFS_std.c ****                         break;
 1570              		.loc 1 230 0
 1571 0150 FFF7FEFF 		bl	USBFS_InitControlRead
 1572              	.LVL156:
 231:.\Generated_Source\PSoC5/USBFS_std.c ****                     default:    /* requestHandled is initialized as FALSE by default */
 1573              		.loc 1 231 0
 1574 0154 10BD     		pop	{r4, pc}
 1575              	.LVL157:
 1576              	.L117:
 238:.\Generated_Source\PSoC5/USBFS_std.c ****                 USBFS_currentTD.pData = (volatile uint8 *) &USBFS_configuration;
 1577              		.loc 1 238 0
 1578 0156 424B     		ldr	r3, .L168+4
 1579              	.LVL158:
 1580 0158 0122     		movs	r2, #1
 1581 015a 1A80     		strh	r2, [r3]	@ movhi
 239:.\Generated_Source\PSoC5/USBFS_std.c ****                 requestHandled  = USBFS_InitControlRead();
 1582              		.loc 1 239 0
 1583 015c 484A     		ldr	r2, .L168+36
 1584 015e 5A60     		str	r2, [r3, #4]
 240:.\Generated_Source\PSoC5/USBFS_std.c ****                 break;
 1585              		.loc 1 240 0
 1586 0160 FFF7FEFF 		bl	USBFS_InitControlRead
 1587              	.LVL159:
 241:.\Generated_Source\PSoC5/USBFS_std.c ****                 
 1588              		.loc 1 241 0
 1589 0164 10BD     		pop	{r4, pc}
 1590              	.LVL160:
 1591              	.L118:
 244:.\Generated_Source\PSoC5/USBFS_std.c ****                 USBFS_currentTD.pData = (volatile uint8 *) &USBFS_interfaceSetting[USBFS_wIndexLoRe
 1592              		.loc 1 244 0
 1593 0166 3E4A     		ldr	r2, .L168+4
 1594 0168 0123     		movs	r3, #1
 1595              	.LVL161:
 1596 016a 1380     		strh	r3, [r2]	@ movhi
 245:.\Generated_Source\PSoC5/USBFS_std.c ****                 requestHandled  = USBFS_InitControlRead();
 1597              		.loc 1 245 0
 1598 016c 3B4B     		ldr	r3, .L168
 1599 016e 1B79     		ldrb	r3, [r3, #4]	@ zero_extendqisi2
 1600 0170 4449     		ldr	r1, .L168+40
 1601 0172 0B44     		add	r3, r3, r1
 1602 0174 5360     		str	r3, [r2, #4]
 246:.\Generated_Source\PSoC5/USBFS_std.c ****                 break;
ARM GAS  C:\Users\LAIR\AppData\Local\Temp\cc5n6lZj.s 			page 54


 1603              		.loc 1 246 0
 1604 0176 FFF7FEFF 		bl	USBFS_InitControlRead
 1605              	.LVL162:
 247:.\Generated_Source\PSoC5/USBFS_std.c ****                 
 1606              		.loc 1 247 0
 1607 017a 10BD     		pop	{r4, pc}
 1608              	.LVL163:
 1609              	.L112:
 256:.\Generated_Source\PSoC5/USBFS_std.c ****         {
 1610              		.loc 1 256 0
 1611 017c 374A     		ldr	r2, .L168
 1612 017e 5278     		ldrb	r2, [r2, #1]	@ zero_extendqisi2
 1613 0180 013A     		subs	r2, r2, #1
 1614 0182 0A2A     		cmp	r2, #10
 1615 0184 00F2CE80 		bhi	.L152
 1616 0188 DFE812F0 		tbh	[pc, r2, lsl #1]
 1617              	.L130:
 1618 018c 4B00     		.2byte	(.L129-.L130)/2
 1619 018e CC00     		.2byte	(.L152-.L130)/2
 1620 0190 9700     		.2byte	(.L131-.L130)/2
 1621 0192 CC00     		.2byte	(.L152-.L130)/2
 1622 0194 0B00     		.2byte	(.L132-.L130)/2
 1623 0196 CC00     		.2byte	(.L152-.L130)/2
 1624 0198 CC00     		.2byte	(.L152-.L130)/2
 1625 019a CC00     		.2byte	(.L152-.L130)/2
 1626 019c 1300     		.2byte	(.L133-.L130)/2
 1627 019e CC00     		.2byte	(.L152-.L130)/2
 1628 01a0 3000     		.2byte	(.L134-.L130)/2
 1629              		.p2align 1
 1630              	.L132:
 260:.\Generated_Source\PSoC5/USBFS_std.c ****                 requestHandled = USBFS_InitNoDataControlTransfer();
 1631              		.loc 1 260 0
 1632 01a2 2E4B     		ldr	r3, .L168
 1633              	.LVL164:
 1634 01a4 9B78     		ldrb	r3, [r3, #2]	@ zero_extendqisi2
 1635 01a6 DBB2     		uxtb	r3, r3
 1636 01a8 374A     		ldr	r2, .L168+44
 1637 01aa 1370     		strb	r3, [r2]
 261:.\Generated_Source\PSoC5/USBFS_std.c ****                 break;
 1638              		.loc 1 261 0
 1639 01ac FFF7FEFF 		bl	USBFS_InitNoDataControlTransfer
 1640              	.LVL165:
 262:.\Generated_Source\PSoC5/USBFS_std.c ****                 
 1641              		.loc 1 262 0
 1642 01b0 10BD     		pop	{r4, pc}
 1643              	.LVL166:
 1644              	.L133:
 265:.\Generated_Source\PSoC5/USBFS_std.c ****                 
 1645              		.loc 1 265 0
 1646 01b2 2A4B     		ldr	r3, .L168
 1647              	.LVL167:
 1648 01b4 9B78     		ldrb	r3, [r3, #2]	@ zero_extendqisi2
 1649              	.LVL168:
 268:.\Generated_Source\PSoC5/USBFS_std.c ****                 {
 1650              		.loc 1 268 0
 1651 01b6 03F0FF04 		and	r4, r3, #255
 1652 01ba 1BB1     		cbz	r3, .L135
ARM GAS  C:\Users\LAIR\AppData\Local\Temp\cc5n6lZj.s 			page 55


 270:.\Generated_Source\PSoC5/USBFS_std.c ****                 }
 1653              		.loc 1 270 0
 1654 01bc 601E     		subs	r0, r4, #1
 1655 01be C0B2     		uxtb	r0, r0
 1656 01c0 FFF7FEFF 		bl	USBFS_GetConfigTablePtr
 1657              	.LVL169:
 1658              	.L135:
 274:.\Generated_Source\PSoC5/USBFS_std.c ****                 {
 1659              		.loc 1 274 0
 1660 01c4 04B1     		cbz	r4, .L136
 274:.\Generated_Source\PSoC5/USBFS_std.c ****                 {
 1661              		.loc 1 274 0 is_stmt 0 discriminator 1
 1662 01c6 10B9     		cbnz	r0, .L137
 1663              	.L136:
 274:.\Generated_Source\PSoC5/USBFS_std.c ****                 {
 1664              		.loc 1 274 0 discriminator 3
 1665 01c8 002C     		cmp	r4, #0
 1666 01ca 40F0AD80 		bne	.L153
 1667              	.L137:
 277:.\Generated_Source\PSoC5/USBFS_std.c ****                     {
 1668              		.loc 1 277 0 is_stmt 1
 1669 01ce 2C4B     		ldr	r3, .L168+36
 1670 01d0 1B78     		ldrb	r3, [r3]	@ zero_extendqisi2
 1671 01d2 DBB2     		uxtb	r3, r3
 1672 01d4 9C42     		cmp	r4, r3
 1673 01d6 06D0     		beq	.L138
 279:.\Generated_Source\PSoC5/USBFS_std.c ****                         USBFS_configurationChanged = USBFS_TRUE;
 1674              		.loc 1 279 0
 1675 01d8 294B     		ldr	r3, .L168+36
 1676 01da 1C70     		strb	r4, [r3]
 280:.\Generated_Source\PSoC5/USBFS_std.c ****                         USBFS_Config(USBFS_TRUE);
 1677              		.loc 1 280 0
 1678 01dc 0120     		movs	r0, #1
 1679              	.LVL170:
 1680 01de 2B4B     		ldr	r3, .L168+48
 1681 01e0 1870     		strb	r0, [r3]
 281:.\Generated_Source\PSoC5/USBFS_std.c ****                     }
 1682              		.loc 1 281 0
 1683 01e2 FFF7FEFF 		bl	USBFS_Config
 1684              	.LVL171:
 1685              	.L138:
 283:.\Generated_Source\PSoC5/USBFS_std.c ****                 }
 1686              		.loc 1 283 0
 1687 01e6 FFF7FEFF 		bl	USBFS_InitNoDataControlTransfer
 1688              	.LVL172:
 1689 01ea 10BD     		pop	{r4, pc}
 1690              	.LVL173:
 1691              	.L134:
 288:.\Generated_Source\PSoC5/USBFS_std.c ****                 {
 1692              		.loc 1 288 0
 1693 01ec FFF7FEFF 		bl	USBFS_ValidateAlternateSetting
 1694              	.LVL174:
 1695 01f0 0028     		cmp	r0, #0
 1696 01f2 00F09B80 		beq	.L154
 291:.\Generated_Source\PSoC5/USBFS_std.c ****                     USBFS_interfaceNumber = (uint8) USBFS_wIndexLoReg;
 1697              		.loc 1 291 0
 1698 01f6 194A     		ldr	r2, .L168
ARM GAS  C:\Users\LAIR\AppData\Local\Temp\cc5n6lZj.s 			page 56


 1699 01f8 1379     		ldrb	r3, [r2, #4]	@ zero_extendqisi2
 1700 01fa DBB2     		uxtb	r3, r3
 1701              	.LVL175:
 292:.\Generated_Source\PSoC5/USBFS_std.c ****                      
 1702              		.loc 1 292 0
 1703 01fc 1279     		ldrb	r2, [r2, #4]	@ zero_extendqisi2
 1704 01fe D2B2     		uxtb	r2, r2
 1705 0200 2349     		ldr	r1, .L168+52
 1706 0202 0A70     		strb	r2, [r1]
 295:.\Generated_Source\PSoC5/USBFS_std.c ****                     {
 1707              		.loc 1 295 0
 1708 0204 234A     		ldr	r2, .L168+56
 1709 0206 D25C     		ldrb	r2, [r2, r3]	@ zero_extendqisi2
 1710 0208 1E49     		ldr	r1, .L168+40
 1711 020a C95C     		ldrb	r1, [r1, r3]	@ zero_extendqisi2
 1712 020c D3B2     		uxtb	r3, r2
 1713              	.LVL176:
 1714 020e 8B42     		cmp	r3, r1
 1715 0210 04D0     		beq	.L139
 297:.\Generated_Source\PSoC5/USBFS_std.c ****                     
 1716              		.loc 1 297 0
 1717 0212 0122     		movs	r2, #1
 1718 0214 1D4B     		ldr	r3, .L168+48
 1719 0216 1A70     		strb	r2, [r3]
 303:.\Generated_Source\PSoC5/USBFS_std.c ****                     #endif /* (USBFS_EP_MANAGEMENT_MANUAL && USBFS_EP_ALLOC_DYNAMIC) */
 1720              		.loc 1 303 0
 1721 0218 FFF7FEFF 		bl	USBFS_ConfigAltChanged
 1722              	.LVL177:
 1723              	.L139:
 307:.\Generated_Source\PSoC5/USBFS_std.c ****                 }
 1724              		.loc 1 307 0
 1725 021c FFF7FEFF 		bl	USBFS_InitNoDataControlTransfer
 1726              	.LVL178:
 1727 0220 10BD     		pop	{r4, pc}
 1728              	.LVL179:
 1729              	.L129:
 312:.\Generated_Source\PSoC5/USBFS_std.c ****                 {
 1730              		.loc 1 312 0
 1731 0222 03F00303 		and	r3, r3, #3
 1732              	.LVL180:
 1733 0226 012B     		cmp	r3, #1
 1734 0228 36D0     		beq	.L140
 1735 022a 4BB1     		cbz	r3, .L141
 1736 022c 022B     		cmp	r3, #2
 1737 022e 7FD1     		bne	.L165
 315:.\Generated_Source\PSoC5/USBFS_std.c ****                         {
 1738              		.loc 1 315 0
 1739 0230 0A4B     		ldr	r3, .L168
 1740 0232 9B78     		ldrb	r3, [r3, #2]	@ zero_extendqisi2
 1741 0234 13F0FF0F 		tst	r3, #255
 1742 0238 7CD1     		bne	.L156
 317:.\Generated_Source\PSoC5/USBFS_std.c ****                         }
 1743              		.loc 1 317 0
 1744 023a FFF7FEFF 		bl	USBFS_ClearEndpointHalt
 1745              	.LVL181:
 1746 023e 10BD     		pop	{r4, pc}
 1747              	.LVL182:
ARM GAS  C:\Users\LAIR\AppData\Local\Temp\cc5n6lZj.s 			page 57


 1748              	.L141:
 322:.\Generated_Source\PSoC5/USBFS_std.c ****                         {
 1749              		.loc 1 322 0
 1750 0240 064B     		ldr	r3, .L168
 1751 0242 9B78     		ldrb	r3, [r3, #2]	@ zero_extendqisi2
 1752 0244 DBB2     		uxtb	r3, r3
 1753 0246 012B     		cmp	r3, #1
 1754 0248 76D1     		bne	.L157
 324:.\Generated_Source\PSoC5/USBFS_std.c ****                             requestHandled = USBFS_InitNoDataControlTransfer();
 1755              		.loc 1 324 0
 1756 024a 0C4A     		ldr	r2, .L168+32
 1757 024c 1378     		ldrb	r3, [r2]	@ zero_extendqisi2
 1758 024e 03F0FD03 		and	r3, r3, #253
 1759 0252 1370     		strb	r3, [r2]
 325:.\Generated_Source\PSoC5/USBFS_std.c ****                         }
 1760              		.loc 1 325 0
 1761 0254 FFF7FEFF 		bl	USBFS_InitNoDataControlTransfer
 1762              	.LVL183:
 1763 0258 10BD     		pop	{r4, pc}
 1764              	.L169:
 1765 025a 00BF     		.align	2
 1766              	.L168:
 1767 025c 00600040 		.word	1073766400
 1768 0260 00000000 		.word	USBFS_currentTD
 1769 0264 00000000 		.word	USBFS_STRING_DESCRIPTORS
 1770 0268 00000000 		.word	USBFS_MSOS_DESCRIPTOR
 1771 026c 00000000 		.word	USBFS_DEVICE0_DESCR
 1772 0270 00000000 		.word	USBFS_idSerialNumberStringDescriptor
 1773 0274 00000000 		.word	USBFS_EP
 1774 0278 00000000 		.word	.LANCHOR0
 1775 027c 00000000 		.word	USBFS_deviceStatus
 1776 0280 00000000 		.word	USBFS_configuration
 1777 0284 00000000 		.word	USBFS_interfaceSetting
 1778 0288 00000000 		.word	USBFS_deviceAddress
 1779 028c 00000000 		.word	USBFS_configurationChanged
 1780 0290 00000000 		.word	USBFS_interfaceNumber
 1781 0294 00000000 		.word	USBFS_interfaceSettingLast
 1782              	.LVL184:
 1783              	.L140:
 330:.\Generated_Source\PSoC5/USBFS_std.c ****                         {
 1784              		.loc 1 330 0
 1785 0298 2D4B     		ldr	r3, .L170
 1786 029a 1B79     		ldrb	r3, [r3, #4]	@ zero_extendqisi2
 1787 029c 13F0FF0F 		tst	r3, #255
 1788 02a0 4CD1     		bne	.L158
 332:.\Generated_Source\PSoC5/USBFS_std.c ****                             requestHandled = USBFS_InitNoDataControlTransfer();
 1789              		.loc 1 332 0
 1790 02a2 2B4B     		ldr	r3, .L170
 1791 02a4 9878     		ldrb	r0, [r3, #2]	@ zero_extendqisi2
 1792 02a6 1B79     		ldrb	r3, [r3, #4]	@ zero_extendqisi2
 1793 02a8 DBB2     		uxtb	r3, r3
 1794 02aa 2A49     		ldr	r1, .L170+4
 1795 02ac CA5C     		ldrb	r2, [r1, r3]	@ zero_extendqisi2
 1796 02ae 22EA0002 		bic	r2, r2, r0
 1797 02b2 CA54     		strb	r2, [r1, r3]
 333:.\Generated_Source\PSoC5/USBFS_std.c ****                         }
 1798              		.loc 1 333 0
ARM GAS  C:\Users\LAIR\AppData\Local\Temp\cc5n6lZj.s 			page 58


 1799 02b4 FFF7FEFF 		bl	USBFS_InitNoDataControlTransfer
 1800              	.LVL185:
 1801 02b8 10BD     		pop	{r4, pc}
 1802              	.LVL186:
 1803              	.L131:
 342:.\Generated_Source\PSoC5/USBFS_std.c ****                 {
 1804              		.loc 1 342 0
 1805 02ba 03F00303 		and	r3, r3, #3
 1806              	.LVL187:
 1807 02be 012B     		cmp	r3, #1
 1808 02c0 17D0     		beq	.L143
 1809 02c2 4BB1     		cbz	r3, .L144
 1810 02c4 022B     		cmp	r3, #2
 1811 02c6 3BD1     		bne	.L166
 345:.\Generated_Source\PSoC5/USBFS_std.c ****                         {
 1812              		.loc 1 345 0
 1813 02c8 214B     		ldr	r3, .L170
 1814 02ca 9B78     		ldrb	r3, [r3, #2]	@ zero_extendqisi2
 1815 02cc 13F0FF0F 		tst	r3, #255
 1816 02d0 38D1     		bne	.L160
 347:.\Generated_Source\PSoC5/USBFS_std.c ****                         }
 1817              		.loc 1 347 0
 1818 02d2 FFF7FEFF 		bl	USBFS_SetEndpointHalt
 1819              	.LVL188:
 1820 02d6 10BD     		pop	{r4, pc}
 1821              	.LVL189:
 1822              	.L144:
 353:.\Generated_Source\PSoC5/USBFS_std.c ****                         {
 1823              		.loc 1 353 0
 1824 02d8 1D4B     		ldr	r3, .L170
 1825 02da 9B78     		ldrb	r3, [r3, #2]	@ zero_extendqisi2
 1826 02dc DBB2     		uxtb	r3, r3
 1827 02de 012B     		cmp	r3, #1
 1828 02e0 32D1     		bne	.L161
 355:.\Generated_Source\PSoC5/USBFS_std.c ****                             requestHandled = USBFS_InitNoDataControlTransfer();
 1829              		.loc 1 355 0
 1830 02e2 1D4A     		ldr	r2, .L170+8
 1831 02e4 1378     		ldrb	r3, [r2]	@ zero_extendqisi2
 1832 02e6 43F00203 		orr	r3, r3, #2
 1833 02ea 1370     		strb	r3, [r2]
 356:.\Generated_Source\PSoC5/USBFS_std.c ****                         }
 1834              		.loc 1 356 0
 1835 02ec FFF7FEFF 		bl	USBFS_InitNoDataControlTransfer
 1836              	.LVL190:
 1837 02f0 10BD     		pop	{r4, pc}
 1838              	.LVL191:
 1839              	.L143:
 362:.\Generated_Source\PSoC5/USBFS_std.c ****                         {
 1840              		.loc 1 362 0
 1841 02f2 174B     		ldr	r3, .L170
 1842 02f4 1B79     		ldrb	r3, [r3, #4]	@ zero_extendqisi2
 1843 02f6 13F0FF0F 		tst	r3, #255
 1844 02fa 27D1     		bne	.L162
 364:.\Generated_Source\PSoC5/USBFS_std.c ****                             requestHandled = USBFS_InitNoDataControlTransfer();
 1845              		.loc 1 364 0
 1846 02fc 144B     		ldr	r3, .L170
 1847 02fe 9878     		ldrb	r0, [r3, #2]	@ zero_extendqisi2
ARM GAS  C:\Users\LAIR\AppData\Local\Temp\cc5n6lZj.s 			page 59


 1848 0300 1B79     		ldrb	r3, [r3, #4]	@ zero_extendqisi2
 1849 0302 DBB2     		uxtb	r3, r3
 1850 0304 1349     		ldr	r1, .L170+4
 1851 0306 CA5C     		ldrb	r2, [r1, r3]	@ zero_extendqisi2
 1852 0308 22EA0002 		bic	r2, r2, r0
 1853 030c CA54     		strb	r2, [r1, r3]
 365:.\Generated_Source\PSoC5/USBFS_std.c ****                         }
 1854              		.loc 1 365 0
 1855 030e FFF7FEFF 		bl	USBFS_InitNoDataControlTransfer
 1856              	.LVL192:
 1857 0312 10BD     		pop	{r4, pc}
 1858              	.LVL193:
 1859              	.L146:
  86:.\Generated_Source\PSoC5/USBFS_std.c ****     uint8 interfaceNumber;
 1860              		.loc 1 86 0
 1861 0314 0020     		movs	r0, #0
 1862 0316 10BD     		pop	{r4, pc}
 1863              	.LVL194:
 1864              	.L147:
 1865 0318 0020     		movs	r0, #0
 1866              	.LVL195:
 1867 031a 10BD     		pop	{r4, pc}
 1868              	.LVL196:
 1869              	.L150:
 1870 031c 0020     		movs	r0, #0
 1871 031e 10BD     		pop	{r4, pc}
 1872              	.LVL197:
 1873              	.L164:
 1874 0320 0020     		movs	r0, #0
 1875 0322 10BD     		pop	{r4, pc}
 1876              	.LVL198:
 1877              	.L152:
 1878 0324 0020     		movs	r0, #0
 1879 0326 10BD     		pop	{r4, pc}
 1880              	.LVL199:
 1881              	.L153:
 1882 0328 0020     		movs	r0, #0
 1883              	.LVL200:
 1884 032a 10BD     		pop	{r4, pc}
 1885              	.L154:
 1886 032c 0020     		movs	r0, #0
 1887 032e 10BD     		pop	{r4, pc}
 1888              	.L165:
 1889 0330 0020     		movs	r0, #0
 1890 0332 10BD     		pop	{r4, pc}
 1891              	.L156:
 1892 0334 0020     		movs	r0, #0
 1893 0336 10BD     		pop	{r4, pc}
 1894              	.L157:
 1895 0338 0020     		movs	r0, #0
 1896 033a 10BD     		pop	{r4, pc}
 1897              	.L158:
 1898 033c 0020     		movs	r0, #0
 1899 033e 10BD     		pop	{r4, pc}
 1900              	.L166:
 1901 0340 0020     		movs	r0, #0
 1902 0342 10BD     		pop	{r4, pc}
ARM GAS  C:\Users\LAIR\AppData\Local\Temp\cc5n6lZj.s 			page 60


 1903              	.L160:
 1904 0344 0020     		movs	r0, #0
 1905 0346 10BD     		pop	{r4, pc}
 1906              	.L161:
 1907 0348 0020     		movs	r0, #0
 1908 034a 10BD     		pop	{r4, pc}
 1909              	.L162:
 1910 034c 0020     		movs	r0, #0
 1911              	.LVL201:
 380:.\Generated_Source\PSoC5/USBFS_std.c **** 
 1912              		.loc 1 380 0
 1913 034e 10BD     		pop	{r4, pc}
 1914              	.L171:
 1915              		.align	2
 1916              	.L170:
 1917 0350 00600040 		.word	1073766400
 1918 0354 00000000 		.word	USBFS_interfaceStatus
 1919 0358 00000000 		.word	USBFS_deviceStatus
 1920              		.cfi_endproc
 1921              	.LFE0:
 1922              		.size	USBFS_HandleStandardRqst, .-USBFS_HandleStandardRqst
 1923              		.section	.rodata.str1.4,"aMS",%progbits,1
 1924              		.align	2
 1925              	.LC0:
 1926 0000 30313233 		.ascii	"0123456789ABCDEF\000"
 1926      34353637 
 1926      38394142 
 1926      43444546 
 1926      00
 1927 0011 000000   		.bss
 1928              		.align	2
 1929              		.set	.LANCHOR0,. + 0
 1930              		.type	USBFS_tBuffer.5155, %object
 1931              		.size	USBFS_tBuffer.5155, 2
 1932              	USBFS_tBuffer.5155:
 1933 0000 0000     		.space	2
 1934 0002 0000     		.text
 1935              	.Letext0:
 1936              		.file 2 ".\\Generated_Source\\PSoC5\\cytypes.h"
 1937              		.file 3 ".\\Generated_Source\\PSoC5\\USBFS.h"
 1938              		.file 4 ".\\Generated_Source\\PSoC5\\USBFS_pvt.h"
 1939              		.file 5 ".\\Generated_Source\\PSoC5\\CyLib.h"
 1940              		.section	.debug_info,"",%progbits
 1941              	.Ldebug_info0:
 1942 0000 F70A0000 		.4byte	0xaf7
 1943 0004 0400     		.2byte	0x4
 1944 0006 00000000 		.4byte	.Ldebug_abbrev0
 1945 000a 04       		.byte	0x4
 1946 000b 01       		.uleb128 0x1
 1947 000c 50060000 		.4byte	.LASF115
 1948 0010 01       		.byte	0x1
 1949 0011 CD040000 		.4byte	.LASF116
 1950 0015 20030000 		.4byte	.LASF117
 1951 0019 00000000 		.4byte	.Ldebug_ranges0+0
 1952 001d 00000000 		.4byte	0
 1953 0021 00000000 		.4byte	.Ldebug_line0
 1954 0025 02       		.uleb128 0x2
ARM GAS  C:\Users\LAIR\AppData\Local\Temp\cc5n6lZj.s 			page 61


 1955 0026 01       		.byte	0x1
 1956 0027 06       		.byte	0x6
 1957 0028 D5000000 		.4byte	.LASF0
 1958 002c 02       		.uleb128 0x2
 1959 002d 01       		.byte	0x1
 1960 002e 08       		.byte	0x8
 1961 002f 7B040000 		.4byte	.LASF1
 1962 0033 02       		.uleb128 0x2
 1963 0034 02       		.byte	0x2
 1964 0035 05       		.byte	0x5
 1965 0036 9B040000 		.4byte	.LASF2
 1966 003a 02       		.uleb128 0x2
 1967 003b 02       		.byte	0x2
 1968 003c 07       		.byte	0x7
 1969 003d 5E020000 		.4byte	.LASF3
 1970 0041 02       		.uleb128 0x2
 1971 0042 04       		.byte	0x4
 1972 0043 05       		.byte	0x5
 1973 0044 72010000 		.4byte	.LASF4
 1974 0048 02       		.uleb128 0x2
 1975 0049 04       		.byte	0x4
 1976 004a 07       		.byte	0x7
 1977 004b 2C020000 		.4byte	.LASF5
 1978 004f 02       		.uleb128 0x2
 1979 0050 08       		.byte	0x8
 1980 0051 05       		.byte	0x5
 1981 0052 C7000000 		.4byte	.LASF6
 1982 0056 02       		.uleb128 0x2
 1983 0057 08       		.byte	0x8
 1984 0058 07       		.byte	0x7
 1985 0059 5C000000 		.4byte	.LASF7
 1986 005d 03       		.uleb128 0x3
 1987 005e 04       		.byte	0x4
 1988 005f 05       		.byte	0x5
 1989 0060 696E7400 		.ascii	"int\000"
 1990 0064 02       		.uleb128 0x2
 1991 0065 04       		.byte	0x4
 1992 0066 07       		.byte	0x7
 1993 0067 1F020000 		.4byte	.LASF8
 1994 006b 04       		.uleb128 0x4
 1995 006c 7B010000 		.4byte	.LASF9
 1996 0070 02       		.byte	0x2
 1997 0071 9201     		.2byte	0x192
 1998 0073 2C000000 		.4byte	0x2c
 1999 0077 04       		.uleb128 0x4
 2000 0078 13000000 		.4byte	.LASF10
 2001 007c 02       		.byte	0x2
 2002 007d 9301     		.2byte	0x193
 2003 007f 3A000000 		.4byte	0x3a
 2004 0083 04       		.uleb128 0x4
 2005 0084 CB010000 		.4byte	.LASF11
 2006 0088 02       		.byte	0x2
 2007 0089 9401     		.2byte	0x194
 2008 008b 48000000 		.4byte	0x48
 2009 008f 02       		.uleb128 0x2
 2010 0090 04       		.byte	0x4
 2011 0091 04       		.byte	0x4
ARM GAS  C:\Users\LAIR\AppData\Local\Temp\cc5n6lZj.s 			page 62


 2012 0092 19040000 		.4byte	.LASF12
 2013 0096 02       		.uleb128 0x2
 2014 0097 08       		.byte	0x8
 2015 0098 04       		.byte	0x4
 2016 0099 8F010000 		.4byte	.LASF13
 2017 009d 04       		.uleb128 0x4
 2018 009e E6050000 		.4byte	.LASF14
 2019 00a2 02       		.byte	0x2
 2020 00a3 A301     		.2byte	0x1a3
 2021 00a5 A9000000 		.4byte	0xa9
 2022 00a9 02       		.uleb128 0x2
 2023 00aa 01       		.byte	0x1
 2024 00ab 08       		.byte	0x8
 2025 00ac A7050000 		.4byte	.LASF15
 2026 00b0 04       		.uleb128 0x4
 2027 00b1 70040000 		.4byte	.LASF16
 2028 00b5 02       		.byte	0x2
 2029 00b6 3C02     		.2byte	0x23c
 2030 00b8 BC000000 		.4byte	0xbc
 2031 00bc 05       		.uleb128 0x5
 2032 00bd 6B000000 		.4byte	0x6b
 2033 00c1 02       		.uleb128 0x2
 2034 00c2 04       		.byte	0x4
 2035 00c3 07       		.byte	0x7
 2036 00c4 17030000 		.4byte	.LASF17
 2037 00c8 06       		.uleb128 0x6
 2038 00c9 0C       		.byte	0xc
 2039 00ca 03       		.byte	0x3
 2040 00cb 8D       		.byte	0x8d
 2041 00cc 3D010000 		.4byte	0x13d
 2042 00d0 07       		.uleb128 0x7
 2043 00d1 98030000 		.4byte	.LASF18
 2044 00d5 03       		.byte	0x3
 2045 00d6 8F       		.byte	0x8f
 2046 00d7 6B000000 		.4byte	0x6b
 2047 00db 00       		.byte	0
 2048 00dc 07       		.uleb128 0x7
 2049 00dd 38040000 		.4byte	.LASF19
 2050 00e1 03       		.byte	0x3
 2051 00e2 90       		.byte	0x90
 2052 00e3 6B000000 		.4byte	0x6b
 2053 00e7 01       		.byte	0x1
 2054 00e8 07       		.uleb128 0x7
 2055 00e9 01030000 		.4byte	.LASF20
 2056 00ed 03       		.byte	0x3
 2057 00ee 91       		.byte	0x91
 2058 00ef 6B000000 		.4byte	0x6b
 2059 00f3 02       		.byte	0x2
 2060 00f4 07       		.uleb128 0x7
 2061 00f5 81010000 		.4byte	.LASF21
 2062 00f9 03       		.byte	0x3
 2063 00fa 92       		.byte	0x92
 2064 00fb 6B000000 		.4byte	0x6b
 2065 00ff 03       		.byte	0x3
 2066 0100 07       		.uleb128 0x7
 2067 0101 73000000 		.4byte	.LASF22
 2068 0105 03       		.byte	0x3
ARM GAS  C:\Users\LAIR\AppData\Local\Temp\cc5n6lZj.s 			page 63


 2069 0106 93       		.byte	0x93
 2070 0107 6B000000 		.4byte	0x6b
 2071 010b 04       		.byte	0x4
 2072 010c 07       		.uleb128 0x7
 2073 010d EC010000 		.4byte	.LASF23
 2074 0111 03       		.byte	0x3
 2075 0112 94       		.byte	0x94
 2076 0113 6B000000 		.4byte	0x6b
 2077 0117 05       		.byte	0x5
 2078 0118 07       		.uleb128 0x7
 2079 0119 DB050000 		.4byte	.LASF24
 2080 011d 03       		.byte	0x3
 2081 011e 95       		.byte	0x95
 2082 011f 77000000 		.4byte	0x77
 2083 0123 06       		.byte	0x6
 2084 0124 07       		.uleb128 0x7
 2085 0125 AC050000 		.4byte	.LASF25
 2086 0129 03       		.byte	0x3
 2087 012a 96       		.byte	0x96
 2088 012b 77000000 		.4byte	0x77
 2089 012f 08       		.byte	0x8
 2090 0130 07       		.uleb128 0x7
 2091 0131 A2020000 		.4byte	.LASF26
 2092 0135 03       		.byte	0x3
 2093 0136 97       		.byte	0x97
 2094 0137 6B000000 		.4byte	0x6b
 2095 013b 0A       		.byte	0xa
 2096 013c 00       		.byte	0
 2097 013d 08       		.uleb128 0x8
 2098 013e 21050000 		.4byte	.LASF27
 2099 0142 03       		.byte	0x3
 2100 0143 98       		.byte	0x98
 2101 0144 C8000000 		.4byte	0xc8
 2102 0148 06       		.uleb128 0x6
 2103 0149 08       		.byte	0x8
 2104 014a 03       		.byte	0x3
 2105 014b 9A       		.byte	0x9a
 2106 014c 99010000 		.4byte	0x199
 2107 0150 07       		.uleb128 0x7
 2108 0151 A2020000 		.4byte	.LASF26
 2109 0155 03       		.byte	0x3
 2110 0156 9C       		.byte	0x9c
 2111 0157 6B000000 		.4byte	0x6b
 2112 015b 00       		.byte	0
 2113 015c 07       		.uleb128 0x7
 2114 015d 9C050000 		.4byte	.LASF28
 2115 0161 03       		.byte	0x3
 2116 0162 9D       		.byte	0x9d
 2117 0163 6B000000 		.4byte	0x6b
 2118 0167 01       		.byte	0x1
 2119 0168 07       		.uleb128 0x7
 2120 0169 73000000 		.4byte	.LASF22
 2121 016d 03       		.byte	0x3
 2122 016e 9E       		.byte	0x9e
 2123 016f 6B000000 		.4byte	0x6b
 2124 0173 02       		.byte	0x2
 2125 0174 07       		.uleb128 0x7
ARM GAS  C:\Users\LAIR\AppData\Local\Temp\cc5n6lZj.s 			page 64


 2126 0175 63050000 		.4byte	.LASF29
 2127 0179 03       		.byte	0x3
 2128 017a 9F       		.byte	0x9f
 2129 017b 6B000000 		.4byte	0x6b
 2130 017f 03       		.byte	0x3
 2131 0180 07       		.uleb128 0x7
 2132 0181 AC050000 		.4byte	.LASF25
 2133 0185 03       		.byte	0x3
 2134 0186 A0       		.byte	0xa0
 2135 0187 77000000 		.4byte	0x77
 2136 018b 04       		.byte	0x4
 2137 018c 07       		.uleb128 0x7
 2138 018d FB060000 		.4byte	.LASF30
 2139 0191 03       		.byte	0x3
 2140 0192 A1       		.byte	0xa1
 2141 0193 6B000000 		.4byte	0x6b
 2142 0197 06       		.byte	0x6
 2143 0198 00       		.byte	0
 2144 0199 08       		.uleb128 0x8
 2145 019a 9B010000 		.4byte	.LASF31
 2146 019e 03       		.byte	0x3
 2147 019f A2       		.byte	0xa2
 2148 01a0 48010000 		.4byte	0x148
 2149 01a4 06       		.uleb128 0x6
 2150 01a5 04       		.byte	0x4
 2151 01a6 03       		.byte	0x3
 2152 01a7 A4       		.byte	0xa4
 2153 01a8 C5010000 		.4byte	0x1c5
 2154 01ac 07       		.uleb128 0x7
 2155 01ad 49060000 		.4byte	.LASF32
 2156 01b1 03       		.byte	0x3
 2157 01b2 A6       		.byte	0xa6
 2158 01b3 6B000000 		.4byte	0x6b
 2159 01b7 00       		.byte	0
 2160 01b8 07       		.uleb128 0x7
 2161 01b9 18060000 		.4byte	.LASF33
 2162 01bd 03       		.byte	0x3
 2163 01be A7       		.byte	0xa7
 2164 01bf 77000000 		.4byte	0x77
 2165 01c3 02       		.byte	0x2
 2166 01c4 00       		.byte	0
 2167 01c5 08       		.uleb128 0x8
 2168 01c6 D8030000 		.4byte	.LASF34
 2169 01ca 03       		.byte	0x3
 2170 01cb A8       		.byte	0xa8
 2171 01cc A4010000 		.4byte	0x1a4
 2172 01d0 06       		.uleb128 0x6
 2173 01d1 0C       		.byte	0xc
 2174 01d2 03       		.byte	0x3
 2175 01d3 AA       		.byte	0xaa
 2176 01d4 FD010000 		.4byte	0x1fd
 2177 01d8 07       		.uleb128 0x7
 2178 01d9 0D000000 		.4byte	.LASF35
 2179 01dd 03       		.byte	0x3
 2180 01de AC       		.byte	0xac
 2181 01df 77000000 		.4byte	0x77
 2182 01e3 00       		.byte	0
ARM GAS  C:\Users\LAIR\AppData\Local\Temp\cc5n6lZj.s 			page 65


 2183 01e4 07       		.uleb128 0x7
 2184 01e5 D2010000 		.4byte	.LASF36
 2185 01e9 03       		.byte	0x3
 2186 01ea AD       		.byte	0xad
 2187 01eb FD010000 		.4byte	0x1fd
 2188 01ef 04       		.byte	0x4
 2189 01f0 07       		.uleb128 0x7
 2190 01f1 00000000 		.4byte	.LASF37
 2191 01f5 03       		.byte	0x3
 2192 01f6 AE       		.byte	0xae
 2193 01f7 03020000 		.4byte	0x203
 2194 01fb 08       		.byte	0x8
 2195 01fc 00       		.byte	0
 2196 01fd 09       		.uleb128 0x9
 2197 01fe 04       		.byte	0x4
 2198 01ff BC000000 		.4byte	0xbc
 2199 0203 09       		.uleb128 0x9
 2200 0204 04       		.byte	0x4
 2201 0205 C5010000 		.4byte	0x1c5
 2202 0209 08       		.uleb128 0x8
 2203 020a A5040000 		.4byte	.LASF38
 2204 020e 03       		.byte	0x3
 2205 020f AF       		.byte	0xaf
 2206 0210 D0010000 		.4byte	0x1d0
 2207 0214 06       		.uleb128 0x6
 2208 0215 08       		.byte	0x8
 2209 0216 03       		.byte	0x3
 2210 0217 B1       		.byte	0xb1
 2211 0218 33020000 		.4byte	0x233
 2212 021c 0A       		.uleb128 0xa
 2213 021d 6300     		.ascii	"c\000"
 2214 021f 03       		.byte	0x3
 2215 0220 B3       		.byte	0xb3
 2216 0221 6B000000 		.4byte	0x6b
 2217 0225 00       		.byte	0
 2218 0226 07       		.uleb128 0x7
 2219 0227 87030000 		.4byte	.LASF39
 2220 022b 03       		.byte	0x3
 2221 022c B4       		.byte	0xb4
 2222 022d 33020000 		.4byte	0x233
 2223 0231 04       		.byte	0x4
 2224 0232 00       		.byte	0
 2225 0233 09       		.uleb128 0x9
 2226 0234 04       		.byte	0x4
 2227 0235 39020000 		.4byte	0x239
 2228 0239 0B       		.uleb128 0xb
 2229 023a 08       		.uleb128 0x8
 2230 023b 5B070000 		.4byte	.LASF40
 2231 023f 03       		.byte	0x3
 2232 0240 B5       		.byte	0xb5
 2233 0241 14020000 		.4byte	0x214
 2234 0245 06       		.uleb128 0x6
 2235 0246 08       		.byte	0x8
 2236 0247 03       		.byte	0x3
 2237 0248 C5       		.byte	0xc5
 2238 0249 5A020000 		.4byte	0x25a
 2239 024d 07       		.uleb128 0x7
ARM GAS  C:\Users\LAIR\AppData\Local\Temp\cc5n6lZj.s 			page 66


 2240 024e F4060000 		.4byte	.LASF41
 2241 0252 03       		.byte	0x3
 2242 0253 C7       		.byte	0xc7
 2243 0254 5A020000 		.4byte	0x25a
 2244 0258 00       		.byte	0
 2245 0259 00       		.byte	0
 2246 025a 0C       		.uleb128 0xc
 2247 025b 6B000000 		.4byte	0x6b
 2248 025f 6A020000 		.4byte	0x26a
 2249 0263 0D       		.uleb128 0xd
 2250 0264 C1000000 		.4byte	0xc1
 2251 0268 07       		.byte	0x7
 2252 0269 00       		.byte	0
 2253 026a 08       		.uleb128 0x8
 2254 026b 78000000 		.4byte	.LASF42
 2255 026f 03       		.byte	0x3
 2256 0270 C8       		.byte	0xc8
 2257 0271 45020000 		.4byte	0x245
 2258 0275 06       		.uleb128 0x6
 2259 0276 10       		.byte	0x10
 2260 0277 03       		.byte	0x3
 2261 0278 D4       		.byte	0xd4
 2262 0279 AE020000 		.4byte	0x2ae
 2263 027d 07       		.uleb128 0x7
 2264 027e B3030000 		.4byte	.LASF43
 2265 0282 03       		.byte	0x3
 2266 0283 D6       		.byte	0xd6
 2267 0284 6B000000 		.4byte	0x6b
 2268 0288 00       		.byte	0
 2269 0289 07       		.uleb128 0x7
 2270 028a BA030000 		.4byte	.LASF44
 2271 028e 03       		.byte	0x3
 2272 028f D7       		.byte	0xd7
 2273 0290 6B000000 		.4byte	0x6b
 2274 0294 01       		.byte	0x1
 2275 0295 07       		.uleb128 0x7
 2276 0296 F2030000 		.4byte	.LASF45
 2277 029a 03       		.byte	0x3
 2278 029b D8       		.byte	0xd8
 2279 029c 6B000000 		.4byte	0x6b
 2280 02a0 02       		.byte	0x2
 2281 02a1 0A       		.uleb128 0xa
 2282 02a2 67617000 		.ascii	"gap\000"
 2283 02a6 03       		.byte	0x3
 2284 02a7 D9       		.byte	0xd9
 2285 02a8 AE020000 		.4byte	0x2ae
 2286 02ac 03       		.byte	0x3
 2287 02ad 00       		.byte	0
 2288 02ae 0C       		.uleb128 0xc
 2289 02af 6B000000 		.4byte	0x6b
 2290 02b3 BE020000 		.4byte	0x2be
 2291 02b7 0D       		.uleb128 0xd
 2292 02b8 C1000000 		.4byte	0xc1
 2293 02bc 0C       		.byte	0xc
 2294 02bd 00       		.byte	0
 2295 02be 08       		.uleb128 0x8
 2296 02bf 78020000 		.4byte	.LASF46
ARM GAS  C:\Users\LAIR\AppData\Local\Temp\cc5n6lZj.s 			page 67


 2297 02c3 03       		.byte	0x3
 2298 02c4 DA       		.byte	0xda
 2299 02c5 75020000 		.4byte	0x275
 2300 02c9 06       		.uleb128 0x6
 2301 02ca 10       		.byte	0x10
 2302 02cb 03       		.byte	0x3
 2303 02cc E6       		.byte	0xe6
 2304 02cd 4A030000 		.4byte	0x34a
 2305 02d1 07       		.uleb128 0x7
 2306 02d2 8E000000 		.4byte	.LASF47
 2307 02d6 03       		.byte	0x3
 2308 02d7 E8       		.byte	0xe8
 2309 02d8 6B000000 		.4byte	0x6b
 2310 02dc 00       		.byte	0
 2311 02dd 07       		.uleb128 0x7
 2312 02de 1F070000 		.4byte	.LASF48
 2313 02e2 03       		.byte	0x3
 2314 02e3 E9       		.byte	0xe9
 2315 02e4 6B000000 		.4byte	0x6b
 2316 02e8 01       		.byte	0x1
 2317 02e9 07       		.uleb128 0x7
 2318 02ea 96010000 		.4byte	.LASF49
 2319 02ee 03       		.byte	0x3
 2320 02ef EA       		.byte	0xea
 2321 02f0 6B000000 		.4byte	0x6b
 2322 02f4 02       		.byte	0x2
 2323 02f5 07       		.uleb128 0x7
 2324 02f6 08020000 		.4byte	.LASF50
 2325 02fa 03       		.byte	0x3
 2326 02fb EB       		.byte	0xeb
 2327 02fc 6B000000 		.4byte	0x6b
 2328 0300 03       		.byte	0x3
 2329 0301 07       		.uleb128 0x7
 2330 0302 8A010000 		.4byte	.LASF51
 2331 0306 03       		.byte	0x3
 2332 0307 EC       		.byte	0xec
 2333 0308 6B000000 		.4byte	0x6b
 2334 030c 04       		.byte	0x4
 2335 030d 07       		.uleb128 0x7
 2336 030e 01070000 		.4byte	.LASF52
 2337 0312 03       		.byte	0x3
 2338 0313 ED       		.byte	0xed
 2339 0314 6B000000 		.4byte	0x6b
 2340 0318 05       		.byte	0x5
 2341 0319 07       		.uleb128 0x7
 2342 031a C8040000 		.4byte	.LASF53
 2343 031e 03       		.byte	0x3
 2344 031f EE       		.byte	0xee
 2345 0320 6B000000 		.4byte	0x6b
 2346 0324 06       		.byte	0x6
 2347 0325 07       		.uleb128 0x7
 2348 0326 AB030000 		.4byte	.LASF54
 2349 032a 03       		.byte	0x3
 2350 032b EF       		.byte	0xef
 2351 032c 6B000000 		.4byte	0x6b
 2352 0330 07       		.byte	0x7
 2353 0331 07       		.uleb128 0x7
ARM GAS  C:\Users\LAIR\AppData\Local\Temp\cc5n6lZj.s 			page 68


 2354 0332 DE060000 		.4byte	.LASF55
 2355 0336 03       		.byte	0x3
 2356 0337 F0       		.byte	0xf0
 2357 0338 6B000000 		.4byte	0x6b
 2358 033c 08       		.byte	0x8
 2359 033d 0A       		.uleb128 0xa
 2360 033e 67617000 		.ascii	"gap\000"
 2361 0342 03       		.byte	0x3
 2362 0343 F1       		.byte	0xf1
 2363 0344 4A030000 		.4byte	0x34a
 2364 0348 09       		.byte	0x9
 2365 0349 00       		.byte	0
 2366 034a 0C       		.uleb128 0xc
 2367 034b 6B000000 		.4byte	0x6b
 2368 034f 5A030000 		.4byte	0x35a
 2369 0353 0D       		.uleb128 0xd
 2370 0354 C1000000 		.4byte	0xc1
 2371 0358 06       		.byte	0x6
 2372 0359 00       		.byte	0
 2373 035a 08       		.uleb128 0x8
 2374 035b 4E010000 		.4byte	.LASF56
 2375 035f 03       		.byte	0x3
 2376 0360 F2       		.byte	0xf2
 2377 0361 C9020000 		.4byte	0x2c9
 2378 0365 0E       		.uleb128 0xe
 2379 0366 90       		.byte	0x90
 2380 0367 03       		.byte	0x3
 2381 0368 0E01     		.2byte	0x10e
 2382 036a 7C030000 		.4byte	0x37c
 2383 036e 0F       		.uleb128 0xf
 2384 036f 7C030000 		.4byte	.LASF57
 2385 0373 03       		.byte	0x3
 2386 0374 1001     		.2byte	0x110
 2387 0376 7C030000 		.4byte	0x37c
 2388 037a 00       		.byte	0
 2389 037b 00       		.byte	0
 2390 037c 0C       		.uleb128 0xc
 2391 037d BE020000 		.4byte	0x2be
 2392 0381 8C030000 		.4byte	0x38c
 2393 0385 0D       		.uleb128 0xd
 2394 0386 C1000000 		.4byte	0xc1
 2395 038a 08       		.byte	0x8
 2396 038b 00       		.byte	0
 2397 038c 04       		.uleb128 0x4
 2398 038d 94000000 		.4byte	.LASF58
 2399 0391 03       		.byte	0x3
 2400 0392 1101     		.2byte	0x111
 2401 0394 65030000 		.4byte	0x365
 2402 0398 0E       		.uleb128 0xe
 2403 0399 90       		.byte	0x90
 2404 039a 03       		.byte	0x3
 2405 039b 1401     		.2byte	0x114
 2406 039d AF030000 		.4byte	0x3af
 2407 03a1 0F       		.uleb128 0xf
 2408 03a2 9C020000 		.4byte	.LASF59
 2409 03a6 03       		.byte	0x3
 2410 03a7 1601     		.2byte	0x116
ARM GAS  C:\Users\LAIR\AppData\Local\Temp\cc5n6lZj.s 			page 69


 2411 03a9 AF030000 		.4byte	0x3af
 2412 03ad 00       		.byte	0
 2413 03ae 00       		.byte	0
 2414 03af 0C       		.uleb128 0xc
 2415 03b0 5A030000 		.4byte	0x35a
 2416 03b4 BF030000 		.4byte	0x3bf
 2417 03b8 0D       		.uleb128 0xd
 2418 03b9 C1000000 		.4byte	0xc1
 2419 03bd 08       		.byte	0x8
 2420 03be 00       		.byte	0
 2421 03bf 04       		.uleb128 0x4
 2422 03c0 A9000000 		.4byte	.LASF60
 2423 03c4 03       		.byte	0x3
 2424 03c5 1701     		.2byte	0x117
 2425 03c7 98030000 		.4byte	0x398
 2426 03cb 10       		.uleb128 0x10
 2427 03cc EF000000 		.4byte	.LASF62
 2428 03d0 01       		.byte	0x1
 2429 03d1 8E01     		.2byte	0x18e
 2430 03d3 00000000 		.4byte	.LFB1
 2431 03d7 6C000000 		.4byte	.LFE1-.LFB1
 2432 03db 01       		.uleb128 0x1
 2433 03dc 9C       		.byte	0x9c
 2434 03dd 3C040000 		.4byte	0x43c
 2435 03e1 11       		.uleb128 0x11
 2436 03e2 75040000 		.4byte	.LASF65
 2437 03e6 01       		.byte	0x1
 2438 03e7 8E01     		.2byte	0x18e
 2439 03e9 3C040000 		.4byte	0x43c
 2440 03ed 00000000 		.4byte	.LLST0
 2441 03f1 12       		.uleb128 0x12
 2442 03f2 68657800 		.ascii	"hex\000"
 2443 03f6 01       		.byte	0x1
 2444 03f7 9001     		.2byte	0x190
 2445 03f9 52040000 		.4byte	0x452
 2446 03fd 02       		.uleb128 0x2
 2447 03fe 91       		.byte	0x91
 2448 03ff 5C       		.sleb128 -36
 2449 0400 13       		.uleb128 0x13
 2450 0401 6900     		.ascii	"i\000"
 2451 0403 01       		.byte	0x1
 2452 0404 9101     		.2byte	0x191
 2453 0406 6B000000 		.4byte	0x6b
 2454 040a 2C000000 		.4byte	.LLST1
 2455 040e 13       		.uleb128 0x13
 2456 040f 6A00     		.ascii	"j\000"
 2457 0411 01       		.byte	0x1
 2458 0412 9201     		.2byte	0x192
 2459 0414 6B000000 		.4byte	0x6b
 2460 0418 56000000 		.4byte	.LLST2
 2461 041c 14       		.uleb128 0x14
 2462 041d EC050000 		.4byte	.LASF61
 2463 0421 01       		.byte	0x1
 2464 0422 9301     		.2byte	0x193
 2465 0424 5A020000 		.4byte	0x25a
 2466 0428 02       		.uleb128 0x2
 2467 0429 91       		.byte	0x91
ARM GAS  C:\Users\LAIR\AppData\Local\Temp\cc5n6lZj.s 			page 70


 2468 042a 54       		.sleb128 -44
 2469 042b 15       		.uleb128 0x15
 2470 042c 22000000 		.4byte	.LVL3
 2471 0430 C10A0000 		.4byte	0xac1
 2472 0434 16       		.uleb128 0x16
 2473 0435 01       		.uleb128 0x1
 2474 0436 50       		.byte	0x50
 2475 0437 02       		.uleb128 0x2
 2476 0438 91       		.byte	0x91
 2477 0439 54       		.sleb128 -44
 2478 043a 00       		.byte	0
 2479 043b 00       		.byte	0
 2480 043c 09       		.uleb128 0x9
 2481 043d 04       		.byte	0x4
 2482 043e 6B000000 		.4byte	0x6b
 2483 0442 0C       		.uleb128 0xc
 2484 0443 9D000000 		.4byte	0x9d
 2485 0447 52040000 		.4byte	0x452
 2486 044b 0D       		.uleb128 0xd
 2487 044c C1000000 		.4byte	0xc1
 2488 0450 10       		.byte	0x10
 2489 0451 00       		.byte	0
 2490 0452 17       		.uleb128 0x17
 2491 0453 42040000 		.4byte	0x442
 2492 0457 10       		.uleb128 0x10
 2493 0458 62010000 		.4byte	.LASF63
 2494 045c 01       		.byte	0x1
 2495 045d B501     		.2byte	0x1b5
 2496 045f 00000000 		.4byte	.LFB2
 2497 0463 A8000000 		.4byte	.LFE2-.LFB2
 2498 0467 01       		.uleb128 0x1
 2499 0468 9C       		.byte	0x9c
 2500 0469 7D040000 		.4byte	0x47d
 2501 046d 13       		.uleb128 0x13
 2502 046e 657000   		.ascii	"ep\000"
 2503 0471 01       		.byte	0x1
 2504 0472 B701     		.2byte	0x1b7
 2505 0474 6B000000 		.4byte	0x6b
 2506 0478 80000000 		.4byte	.LLST3
 2507 047c 00       		.byte	0
 2508 047d 10       		.uleb128 0x10
 2509 047e 89040000 		.4byte	.LASF64
 2510 0482 01       		.byte	0x1
 2511 0483 1402     		.2byte	0x214
 2512 0485 00000000 		.4byte	.LFB3
 2513 0489 40000000 		.4byte	.LFE3-.LFB3
 2514 048d 01       		.uleb128 0x1
 2515 048e 9C       		.byte	0x9c
 2516 048f A2040000 		.4byte	0x4a2
 2517 0493 13       		.uleb128 0x13
 2518 0494 6900     		.ascii	"i\000"
 2519 0496 01       		.byte	0x1
 2520 0497 1602     		.2byte	0x216
 2521 0499 6B000000 		.4byte	0x6b
 2522 049d AA000000 		.4byte	.LLST4
 2523 04a1 00       		.byte	0
 2524 04a2 18       		.uleb128 0x18
ARM GAS  C:\Users\LAIR\AppData\Local\Temp\cc5n6lZj.s 			page 71


 2525 04a3 B0040000 		.4byte	.LASF72
 2526 04a7 01       		.byte	0x1
 2527 04a8 AE03     		.2byte	0x3ae
 2528 04aa DD040000 		.4byte	0x4dd
 2529 04ae 00000000 		.4byte	.LFB6
 2530 04b2 28000000 		.4byte	.LFE6-.LFB6
 2531 04b6 01       		.uleb128 0x1
 2532 04b7 9C       		.byte	0x9c
 2533 04b8 DD040000 		.4byte	0x4dd
 2534 04bc 11       		.uleb128 0x11
 2535 04bd 52000000 		.4byte	.LASF66
 2536 04c1 01       		.byte	0x1
 2537 04c2 AE03     		.2byte	0x3ae
 2538 04c4 6B000000 		.4byte	0x6b
 2539 04c8 D4000000 		.4byte	.LLST5
 2540 04cc 19       		.uleb128 0x19
 2541 04cd 82030000 		.4byte	.LASF67
 2542 04d1 01       		.byte	0x1
 2543 04d2 B203     		.2byte	0x3b2
 2544 04d4 DD040000 		.4byte	0x4dd
 2545 04d8 0E010000 		.4byte	.LLST6
 2546 04dc 00       		.byte	0
 2547 04dd 09       		.uleb128 0x9
 2548 04de 04       		.byte	0x4
 2549 04df E3040000 		.4byte	0x4e3
 2550 04e3 17       		.uleb128 0x17
 2551 04e4 3A020000 		.4byte	0x23a
 2552 04e8 10       		.uleb128 0x10
 2553 04e9 C1030000 		.4byte	.LASF68
 2554 04ed 01       		.byte	0x1
 2555 04ee 2503     		.2byte	0x325
 2556 04f0 00000000 		.4byte	.LFB5
 2557 04f4 1C010000 		.4byte	.LFE5-.LFB5
 2558 04f8 01       		.uleb128 0x1
 2559 04f9 9C       		.byte	0x9c
 2560 04fa 75050000 		.4byte	0x575
 2561 04fe 13       		.uleb128 0x13
 2562 04ff 657000   		.ascii	"ep\000"
 2563 0502 01       		.byte	0x1
 2564 0503 2703     		.2byte	0x327
 2565 0505 6B000000 		.4byte	0x6b
 2566 0509 46010000 		.4byte	.LLST7
 2567 050d 19       		.uleb128 0x19
 2568 050e FB020000 		.4byte	.LASF69
 2569 0512 01       		.byte	0x1
 2570 0513 2803     		.2byte	0x328
 2571 0515 6B000000 		.4byte	0x6b
 2572 0519 59010000 		.4byte	.LLST8
 2573 051d 19       		.uleb128 0x19
 2574 051e F3010000 		.4byte	.LASF70
 2575 0522 01       		.byte	0x1
 2576 0523 2903     		.2byte	0x329
 2577 0525 6B000000 		.4byte	0x6b
 2578 0529 6C010000 		.4byte	.LLST9
 2579 052d 13       		.uleb128 0x13
 2580 052e 6900     		.ascii	"i\000"
 2581 0530 01       		.byte	0x1
ARM GAS  C:\Users\LAIR\AppData\Local\Temp\cc5n6lZj.s 			page 72


 2582 0531 2A03     		.2byte	0x32a
 2583 0533 6B000000 		.4byte	0x6b
 2584 0537 8A010000 		.4byte	.LLST10
 2585 053b 19       		.uleb128 0x19
 2586 053c F8030000 		.4byte	.LASF71
 2587 0540 01       		.byte	0x1
 2588 0541 2B03     		.2byte	0x32b
 2589 0543 6B000000 		.4byte	0x6b
 2590 0547 B4010000 		.4byte	.LLST11
 2591 054b 19       		.uleb128 0x19
 2592 054c 82030000 		.4byte	.LASF67
 2593 0550 01       		.byte	0x1
 2594 0551 2D03     		.2byte	0x32d
 2595 0553 DD040000 		.4byte	0x4dd
 2596 0557 C7010000 		.4byte	.LLST12
 2597 055b 13       		.uleb128 0x13
 2598 055c 70455000 		.ascii	"pEP\000"
 2599 0560 01       		.byte	0x1
 2600 0561 2E03     		.2byte	0x32e
 2601 0563 75050000 		.4byte	0x575
 2602 0567 DC010000 		.4byte	.LLST13
 2603 056b 1A       		.uleb128 0x1a
 2604 056c 18000000 		.4byte	.LVL26
 2605 0570 A2040000 		.4byte	0x4a2
 2606 0574 00       		.byte	0
 2607 0575 09       		.uleb128 0x9
 2608 0576 04       		.byte	0x4
 2609 0577 7B050000 		.4byte	0x57b
 2610 057b 17       		.uleb128 0x17
 2611 057c 99010000 		.4byte	0x199
 2612 0580 1B       		.uleb128 0x1b
 2613 0581 84050000 		.4byte	.LASF118
 2614 0585 01       		.byte	0x1
 2615 0586 F303     		.2byte	0x3f3
 2616 0588 DD040000 		.4byte	0x4dd
 2617 058c 00000000 		.4byte	.LFB7
 2618 0590 18000000 		.4byte	.LFE7-.LFB7
 2619 0594 01       		.uleb128 0x1
 2620 0595 9C       		.byte	0x9c
 2621 0596 18       		.uleb128 0x18
 2622 0597 3E020000 		.4byte	.LASF73
 2623 059b 01       		.byte	0x1
 2624 059c 0604     		.2byte	0x406
 2625 059e EA050000 		.4byte	0x5ea
 2626 05a2 00000000 		.4byte	.LFB8
 2627 05a6 24000000 		.4byte	.LFE8-.LFB8
 2628 05aa 01       		.uleb128 0x1
 2629 05ab 9C       		.byte	0x9c
 2630 05ac EA050000 		.4byte	0x5ea
 2631 05b0 19       		.uleb128 0x19
 2632 05b1 82030000 		.4byte	.LASF67
 2633 05b5 01       		.byte	0x1
 2634 05b6 0904     		.2byte	0x409
 2635 05b8 DD040000 		.4byte	0x4dd
 2636 05bc EF010000 		.4byte	.LLST14
 2637 05c0 19       		.uleb128 0x19
 2638 05c1 8C020000 		.4byte	.LASF74
ARM GAS  C:\Users\LAIR\AppData\Local\Temp\cc5n6lZj.s 			page 73


 2639 05c5 01       		.byte	0x1
 2640 05c6 0A04     		.2byte	0x40a
 2641 05c8 EA050000 		.4byte	0x5ea
 2642 05cc 1F020000 		.4byte	.LLST15
 2643 05d0 19       		.uleb128 0x19
 2644 05d1 C6050000 		.4byte	.LASF75
 2645 05d5 01       		.byte	0x1
 2646 05d6 0B04     		.2byte	0x40b
 2647 05d8 6B000000 		.4byte	0x6b
 2648 05dc 3D020000 		.4byte	.LLST16
 2649 05e0 1A       		.uleb128 0x1a
 2650 05e1 0E000000 		.4byte	.LVL42
 2651 05e5 A2040000 		.4byte	0x4a2
 2652 05e9 00       		.byte	0
 2653 05ea 09       		.uleb128 0x9
 2654 05eb 04       		.byte	0x4
 2655 05ec F0050000 		.4byte	0x5f0
 2656 05f0 17       		.uleb128 0x17
 2657 05f1 6B000000 		.4byte	0x6b
 2658 05f5 10       		.uleb128 0x10
 2659 05f6 41010000 		.4byte	.LASF76
 2660 05fa 01       		.byte	0x1
 2661 05fb 3A02     		.2byte	0x23a
 2662 05fd 00000000 		.4byte	.LFB4
 2663 0601 C0010000 		.4byte	.LFE4-.LFB4
 2664 0605 01       		.uleb128 0x1
 2665 0606 9C       		.byte	0x9c
 2666 0607 B4060000 		.4byte	0x6b4
 2667 060b 11       		.uleb128 0x11
 2668 060c 43040000 		.4byte	.LASF77
 2669 0610 01       		.byte	0x1
 2670 0611 3A02     		.2byte	0x23a
 2671 0613 6B000000 		.4byte	0x6b
 2672 0617 50020000 		.4byte	.LLST17
 2673 061b 13       		.uleb128 0x13
 2674 061c 657000   		.ascii	"ep\000"
 2675 061f 01       		.byte	0x1
 2676 0620 3C02     		.2byte	0x23c
 2677 0622 6B000000 		.4byte	0x6b
 2678 0626 71020000 		.4byte	.LLST18
 2679 062a 19       		.uleb128 0x19
 2680 062b FB020000 		.4byte	.LASF69
 2681 062f 01       		.byte	0x1
 2682 0630 3D02     		.2byte	0x23d
 2683 0632 6B000000 		.4byte	0x6b
 2684 0636 D3020000 		.4byte	.LLST19
 2685 063a 13       		.uleb128 0x13
 2686 063b 6900     		.ascii	"i\000"
 2687 063d 01       		.byte	0x1
 2688 063e 3E02     		.2byte	0x23e
 2689 0640 6B000000 		.4byte	0x6b
 2690 0644 FD020000 		.4byte	.LLST20
 2691 0648 19       		.uleb128 0x19
 2692 0649 F3010000 		.4byte	.LASF70
 2693 064d 01       		.byte	0x1
 2694 064e 3F02     		.2byte	0x23f
 2695 0650 6B000000 		.4byte	0x6b
ARM GAS  C:\Users\LAIR\AppData\Local\Temp\cc5n6lZj.s 			page 74


 2696 0654 6A030000 		.4byte	.LLST21
 2697 0658 19       		.uleb128 0x19
 2698 0659 71020000 		.4byte	.LASF78
 2699 065d 01       		.byte	0x1
 2700 065e 4002     		.2byte	0x240
 2701 0660 EA050000 		.4byte	0x5ea
 2702 0664 AA030000 		.4byte	.LLST22
 2703 0668 19       		.uleb128 0x19
 2704 0669 8E030000 		.4byte	.LASF79
 2705 066d 01       		.byte	0x1
 2706 066e 4302     		.2byte	0x243
 2707 0670 77000000 		.4byte	0x77
 2708 0674 C9030000 		.4byte	.LLST23
 2709 0678 19       		.uleb128 0x19
 2710 0679 82030000 		.4byte	.LASF67
 2711 067d 01       		.byte	0x1
 2712 067e 4602     		.2byte	0x246
 2713 0680 DD040000 		.4byte	0x4dd
 2714 0684 0A040000 		.4byte	.LLST24
 2715 0688 13       		.uleb128 0x13
 2716 0689 70455000 		.ascii	"pEP\000"
 2717 068d 01       		.byte	0x1
 2718 068e 4702     		.2byte	0x247
 2719 0690 75050000 		.4byte	0x575
 2720 0694 2A040000 		.4byte	.LLST25
 2721 0698 1A       		.uleb128 0x1a
 2722 0699 5A000000 		.4byte	.LVL60
 2723 069d A2040000 		.4byte	0x4a2
 2724 06a1 1A       		.uleb128 0x1a
 2725 06a2 70010000 		.4byte	.LVL85
 2726 06a6 96050000 		.4byte	0x596
 2727 06aa 1A       		.uleb128 0x1a
 2728 06ab A0010000 		.4byte	.LVL94
 2729 06af 57040000 		.4byte	0x457
 2730 06b3 00       		.byte	0
 2731 06b4 10       		.uleb128 0x10
 2732 06b5 1A000000 		.4byte	.LASF80
 2733 06b9 01       		.byte	0x1
 2734 06ba 3004     		.2byte	0x430
 2735 06bc 00000000 		.4byte	.LFB9
 2736 06c0 4C000000 		.4byte	.LFE9-.LFB9
 2737 06c4 01       		.uleb128 0x1
 2738 06c5 9C       		.byte	0x9c
 2739 06c6 DB060000 		.4byte	0x6db
 2740 06ca 11       		.uleb128 0x11
 2741 06cb BE000000 		.4byte	.LASF81
 2742 06cf 01       		.byte	0x1
 2743 06d0 3004     		.2byte	0x430
 2744 06d2 6B000000 		.4byte	0x6b
 2745 06d6 60040000 		.4byte	.LLST26
 2746 06da 00       		.byte	0
 2747 06db 18       		.uleb128 0x18
 2748 06dc B5010000 		.4byte	.LASF82
 2749 06e0 01       		.byte	0x1
 2750 06e1 5904     		.2byte	0x459
 2751 06e3 6B000000 		.4byte	0x6b
 2752 06e7 00000000 		.4byte	.LFB10
ARM GAS  C:\Users\LAIR\AppData\Local\Temp\cc5n6lZj.s 			page 75


 2753 06eb 64000000 		.4byte	.LFE10-.LFB10
 2754 06ef 01       		.uleb128 0x1
 2755 06f0 9C       		.byte	0x9c
 2756 06f1 1E070000 		.4byte	0x71e
 2757 06f5 19       		.uleb128 0x19
 2758 06f6 B7050000 		.4byte	.LASF83
 2759 06fa 01       		.byte	0x1
 2760 06fb 5B04     		.2byte	0x45b
 2761 06fd 6B000000 		.4byte	0x6b
 2762 0701 89040000 		.4byte	.LLST27
 2763 0705 13       		.uleb128 0x13
 2764 0706 657000   		.ascii	"ep\000"
 2765 0709 01       		.byte	0x1
 2766 070a 5C04     		.2byte	0x45c
 2767 070c 6B000000 		.4byte	0x6b
 2768 0710 BF040000 		.4byte	.LLST28
 2769 0714 1A       		.uleb128 0x1a
 2770 0715 52000000 		.4byte	.LVL105
 2771 0719 D80A0000 		.4byte	0xad8
 2772 071d 00       		.byte	0
 2773 071e 18       		.uleb128 0x18
 2774 071f 13010000 		.4byte	.LASF84
 2775 0723 01       		.byte	0x1
 2776 0724 8A04     		.2byte	0x48a
 2777 0726 6B000000 		.4byte	0x6b
 2778 072a 00000000 		.4byte	.LFB11
 2779 072e A8000000 		.4byte	.LFE11-.LFB11
 2780 0732 01       		.uleb128 0x1
 2781 0733 9C       		.byte	0x9c
 2782 0734 61070000 		.4byte	0x761
 2783 0738 19       		.uleb128 0x19
 2784 0739 B7050000 		.4byte	.LASF83
 2785 073d 01       		.byte	0x1
 2786 073e 8C04     		.2byte	0x48c
 2787 0740 6B000000 		.4byte	0x6b
 2788 0744 E8040000 		.4byte	.LLST29
 2789 0748 13       		.uleb128 0x13
 2790 0749 657000   		.ascii	"ep\000"
 2791 074c 01       		.byte	0x1
 2792 074d 8D04     		.2byte	0x48d
 2793 074f 6B000000 		.4byte	0x6b
 2794 0753 13050000 		.4byte	.LLST30
 2795 0757 1A       		.uleb128 0x1a
 2796 0758 96000000 		.4byte	.LVL117
 2797 075c D80A0000 		.4byte	0xad8
 2798 0760 00       		.byte	0
 2799 0761 18       		.uleb128 0x18
 2800 0762 AC020000 		.4byte	.LASF85
 2801 0766 01       		.byte	0x1
 2802 0767 CF04     		.2byte	0x4cf
 2803 0769 6B000000 		.4byte	0x6b
 2804 076d 00000000 		.4byte	.LFB12
 2805 0771 4C000000 		.4byte	.LFE12-.LFB12
 2806 0775 01       		.uleb128 0x1
 2807 0776 9C       		.byte	0x9c
 2808 0777 C5070000 		.4byte	0x7c5
 2809 077b 19       		.uleb128 0x19
ARM GAS  C:\Users\LAIR\AppData\Local\Temp\cc5n6lZj.s 			page 76


 2810 077c B7050000 		.4byte	.LASF83
 2811 0780 01       		.byte	0x1
 2812 0781 D104     		.2byte	0x4d1
 2813 0783 6B000000 		.4byte	0x6b
 2814 0787 52050000 		.4byte	.LLST31
 2815 078b 19       		.uleb128 0x19
 2816 078c F8030000 		.4byte	.LASF71
 2817 0790 01       		.byte	0x1
 2818 0791 D304     		.2byte	0x4d3
 2819 0793 6B000000 		.4byte	0x6b
 2820 0797 89050000 		.4byte	.LLST32
 2821 079b 19       		.uleb128 0x19
 2822 079c E3060000 		.4byte	.LASF86
 2823 07a0 01       		.byte	0x1
 2824 07a1 D404     		.2byte	0x4d4
 2825 07a3 6B000000 		.4byte	0x6b
 2826 07a7 9C050000 		.4byte	.LLST33
 2827 07ab 19       		.uleb128 0x19
 2828 07ac 82030000 		.4byte	.LASF67
 2829 07b0 01       		.byte	0x1
 2830 07b1 D504     		.2byte	0x4d5
 2831 07b3 DD040000 		.4byte	0x4dd
 2832 07b7 C9050000 		.4byte	.LLST34
 2833 07bb 1A       		.uleb128 0x1a
 2834 07bc 14000000 		.4byte	.LVL121
 2835 07c0 A2040000 		.4byte	0x4a2
 2836 07c4 00       		.byte	0
 2837 07c5 1C       		.uleb128 0x1c
 2838 07c6 42070000 		.4byte	.LASF87
 2839 07ca 01       		.byte	0x1
 2840 07cb 54       		.byte	0x54
 2841 07cc 6B000000 		.4byte	0x6b
 2842 07d0 00000000 		.4byte	.LFB0
 2843 07d4 5C030000 		.4byte	.LFE0-.LFB0
 2844 07d8 01       		.uleb128 0x1
 2845 07d9 9C       		.byte	0x9c
 2846 07da 60090000 		.4byte	0x960
 2847 07de 1D       		.uleb128 0x1d
 2848 07df B7050000 		.4byte	.LASF83
 2849 07e3 01       		.byte	0x1
 2850 07e4 56       		.byte	0x56
 2851 07e5 6B000000 		.4byte	0x6b
 2852 07e9 E7050000 		.4byte	.LLST35
 2853 07ed 1D       		.uleb128 0x1d
 2854 07ee F5050000 		.4byte	.LASF88
 2855 07f2 01       		.byte	0x1
 2856 07f3 57       		.byte	0x57
 2857 07f4 6B000000 		.4byte	0x6b
 2858 07f8 8D070000 		.4byte	.LLST36
 2859 07fc 1D       		.uleb128 0x1d
 2860 07fd 53040000 		.4byte	.LASF89
 2861 0801 01       		.byte	0x1
 2862 0802 58       		.byte	0x58
 2863 0803 6B000000 		.4byte	0x6b
 2864 0807 A0070000 		.4byte	.LLST37
 2865 080b 1D       		.uleb128 0x1d
 2866 080c FA010000 		.4byte	.LASF90
ARM GAS  C:\Users\LAIR\AppData\Local\Temp\cc5n6lZj.s 			page 77


 2867 0810 01       		.byte	0x1
 2868 0811 59       		.byte	0x59
 2869 0812 6B000000 		.4byte	0x6b
 2870 0816 B3070000 		.4byte	.LLST38
 2871 081a 1D       		.uleb128 0x1d
 2872 081b 6B040000 		.4byte	.LASF91
 2873 081f 01       		.byte	0x1
 2874 0820 5C       		.byte	0x5c
 2875 0821 FD010000 		.4byte	0x1fd
 2876 0825 34080000 		.4byte	.LLST39
 2877 0829 1D       		.uleb128 0x1d
 2878 082a 1F060000 		.4byte	.LASF92
 2879 082e 01       		.byte	0x1
 2880 082f 5E       		.byte	0x5e
 2881 0830 6B000000 		.4byte	0x6b
 2882 0834 98080000 		.4byte	.LLST40
 2883 0838 1D       		.uleb128 0x1d
 2884 0839 0B030000 		.4byte	.LASF93
 2885 083d 01       		.byte	0x1
 2886 083e 5F       		.byte	0x5f
 2887 083f 6B000000 		.4byte	0x6b
 2888 0843 C1080000 		.4byte	.LLST41
 2889 0847 1E       		.uleb128 0x1e
 2890 0848 E1000000 		.4byte	.LASF94
 2891 084c 01       		.byte	0x1
 2892 084d 63       		.byte	0x63
 2893 084e 70090000 		.4byte	0x970
 2894 0852 05       		.uleb128 0x5
 2895 0853 03       		.byte	0x3
 2896 0854 00000000 		.4byte	USBFS_tBuffer.5155
 2897 0858 1D       		.uleb128 0x1d
 2898 0859 82030000 		.4byte	.LASF67
 2899 085d 01       		.byte	0x1
 2900 085e 64       		.byte	0x64
 2901 085f DD040000 		.4byte	0x4dd
 2902 0863 D4080000 		.4byte	.LLST42
 2903 0867 1A       		.uleb128 0x1a
 2904 0868 4A000000 		.4byte	.LVL132
 2905 086c 80050000 		.4byte	0x580
 2906 0870 1A       		.uleb128 0x1a
 2907 0871 58000000 		.4byte	.LVL133
 2908 0875 E30A0000 		.4byte	0xae3
 2909 0879 1A       		.uleb128 0x1a
 2910 087a 6C000000 		.4byte	.LVL135
 2911 087e A2040000 		.4byte	0x4a2
 2912 0882 1A       		.uleb128 0x1a
 2913 0883 8A000000 		.4byte	.LVL136
 2914 0887 E30A0000 		.4byte	0xae3
 2915 088b 1F       		.uleb128 0x1f
 2916 088c E4000000 		.4byte	.LVL147
 2917 0890 CB030000 		.4byte	0x3cb
 2918 0894 9F080000 		.4byte	0x89f
 2919 0898 16       		.uleb128 0x16
 2920 0899 01       		.uleb128 0x1
 2921 089a 50       		.byte	0x50
 2922 089b 02       		.uleb128 0x2
 2923 089c 74       		.byte	0x74
ARM GAS  C:\Users\LAIR\AppData\Local\Temp\cc5n6lZj.s 			page 78


 2924 089d 00       		.sleb128 0
 2925 089e 00       		.byte	0
 2926 089f 1A       		.uleb128 0x1a
 2927 08a0 FC000000 		.4byte	.LVL149
 2928 08a4 E30A0000 		.4byte	0xae3
 2929 08a8 1A       		.uleb128 0x1a
 2930 08a9 02010000 		.4byte	.LVL151
 2931 08ad EE0A0000 		.4byte	0xaee
 2932 08b1 1A       		.uleb128 0x1a
 2933 08b2 38010000 		.4byte	.LVL154
 2934 08b6 E30A0000 		.4byte	0xae3
 2935 08ba 1A       		.uleb128 0x1a
 2936 08bb 54010000 		.4byte	.LVL156
 2937 08bf E30A0000 		.4byte	0xae3
 2938 08c3 1A       		.uleb128 0x1a
 2939 08c4 64010000 		.4byte	.LVL159
 2940 08c8 E30A0000 		.4byte	0xae3
 2941 08cc 1A       		.uleb128 0x1a
 2942 08cd 7A010000 		.4byte	.LVL162
 2943 08d1 E30A0000 		.4byte	0xae3
 2944 08d5 1A       		.uleb128 0x1a
 2945 08d6 B0010000 		.4byte	.LVL165
 2946 08da D80A0000 		.4byte	0xad8
 2947 08de 1F       		.uleb128 0x1f
 2948 08df C4010000 		.4byte	.LVL169
 2949 08e3 A2040000 		.4byte	0x4a2
 2950 08e7 F2080000 		.4byte	0x8f2
 2951 08eb 16       		.uleb128 0x16
 2952 08ec 01       		.uleb128 0x1
 2953 08ed 50       		.byte	0x50
 2954 08ee 02       		.uleb128 0x2
 2955 08ef 74       		.byte	0x74
 2956 08f0 7F       		.sleb128 -1
 2957 08f1 00       		.byte	0
 2958 08f2 1F       		.uleb128 0x1f
 2959 08f3 E6010000 		.4byte	.LVL171
 2960 08f7 F5050000 		.4byte	0x5f5
 2961 08fb 05090000 		.4byte	0x905
 2962 08ff 16       		.uleb128 0x16
 2963 0900 01       		.uleb128 0x1
 2964 0901 50       		.byte	0x50
 2965 0902 01       		.uleb128 0x1
 2966 0903 31       		.byte	0x31
 2967 0904 00       		.byte	0
 2968 0905 1A       		.uleb128 0x1a
 2969 0906 EA010000 		.4byte	.LVL172
 2970 090a D80A0000 		.4byte	0xad8
 2971 090e 1A       		.uleb128 0x1a
 2972 090f F0010000 		.4byte	.LVL174
 2973 0913 61070000 		.4byte	0x761
 2974 0917 1A       		.uleb128 0x1a
 2975 0918 1C020000 		.4byte	.LVL177
 2976 091c E8040000 		.4byte	0x4e8
 2977 0920 1A       		.uleb128 0x1a
 2978 0921 20020000 		.4byte	.LVL178
 2979 0925 D80A0000 		.4byte	0xad8
 2980 0929 1A       		.uleb128 0x1a
ARM GAS  C:\Users\LAIR\AppData\Local\Temp\cc5n6lZj.s 			page 79


 2981 092a 3E020000 		.4byte	.LVL181
 2982 092e 1E070000 		.4byte	0x71e
 2983 0932 1A       		.uleb128 0x1a
 2984 0933 58020000 		.4byte	.LVL183
 2985 0937 D80A0000 		.4byte	0xad8
 2986 093b 1A       		.uleb128 0x1a
 2987 093c B8020000 		.4byte	.LVL185
 2988 0940 D80A0000 		.4byte	0xad8
 2989 0944 1A       		.uleb128 0x1a
 2990 0945 D6020000 		.4byte	.LVL188
 2991 0949 DB060000 		.4byte	0x6db
 2992 094d 1A       		.uleb128 0x1a
 2993 094e F0020000 		.4byte	.LVL190
 2994 0952 D80A0000 		.4byte	0xad8
 2995 0956 1A       		.uleb128 0x1a
 2996 0957 12030000 		.4byte	.LVL192
 2997 095b D80A0000 		.4byte	0xad8
 2998 095f 00       		.byte	0
 2999 0960 0C       		.uleb128 0xc
 3000 0961 6B000000 		.4byte	0x6b
 3001 0965 70090000 		.4byte	0x970
 3002 0969 0D       		.uleb128 0xd
 3003 096a C1000000 		.4byte	0xc1
 3004 096e 01       		.byte	0x1
 3005 096f 00       		.byte	0
 3006 0970 05       		.uleb128 0x5
 3007 0971 60090000 		.4byte	0x960
 3008 0975 20       		.uleb128 0x20
 3009 0976 56050000 		.4byte	.LASF95
 3010 097a 03       		.byte	0x3
 3011 097b D202     		.2byte	0x2d2
 3012 097d BC000000 		.4byte	0xbc
 3013 0981 20       		.uleb128 0x20
 3014 0982 D8010000 		.4byte	.LASF96
 3015 0986 03       		.byte	0x3
 3016 0987 D402     		.2byte	0x2d4
 3017 0989 BC000000 		.4byte	0xbc
 3018 098d 20       		.uleb128 0x20
 3019 098e CB020000 		.4byte	.LASF97
 3020 0992 03       		.byte	0x3
 3021 0993 D502     		.2byte	0x2d5
 3022 0995 BC000000 		.4byte	0xbc
 3023 0999 20       		.uleb128 0x20
 3024 099a 05060000 		.4byte	.LASF98
 3025 099e 03       		.byte	0x3
 3026 099f D602     		.2byte	0x2d6
 3027 09a1 BC000000 		.4byte	0xbc
 3028 09a5 0C       		.uleb128 0xc
 3029 09a6 6B000000 		.4byte	0x6b
 3030 09aa B5090000 		.4byte	0x9b5
 3031 09ae 0D       		.uleb128 0xd
 3032 09af C1000000 		.4byte	0xc1
 3033 09b3 11       		.byte	0x11
 3034 09b4 00       		.byte	0
 3035 09b5 21       		.uleb128 0x21
 3036 09b6 05040000 		.4byte	.LASF99
 3037 09ba 04       		.byte	0x4
ARM GAS  C:\Users\LAIR\AppData\Local\Temp\cc5n6lZj.s 			page 80


 3038 09bb 61       		.byte	0x61
 3039 09bc C0090000 		.4byte	0x9c0
 3040 09c0 17       		.uleb128 0x17
 3041 09c1 A5090000 		.4byte	0x9a5
 3042 09c5 0C       		.uleb128 0xc
 3043 09c6 3A020000 		.4byte	0x23a
 3044 09ca D5090000 		.4byte	0x9d5
 3045 09ce 0D       		.uleb128 0xd
 3046 09cf C1000000 		.4byte	0xc1
 3047 09d3 00       		.byte	0
 3048 09d4 00       		.byte	0
 3049 09d5 21       		.uleb128 0x21
 3050 09d6 9F030000 		.4byte	.LASF100
 3051 09da 04       		.byte	0x4
 3052 09db 67       		.byte	0x67
 3053 09dc E0090000 		.4byte	0x9e0
 3054 09e0 17       		.uleb128 0x17
 3055 09e1 C5090000 		.4byte	0x9c5
 3056 09e5 0C       		.uleb128 0xc
 3057 09e6 6B000000 		.4byte	0x6b
 3058 09ea F5090000 		.4byte	0x9f5
 3059 09ee 0D       		.uleb128 0xd
 3060 09ef C1000000 		.4byte	0xc1
 3061 09f3 5C       		.byte	0x5c
 3062 09f4 00       		.byte	0
 3063 09f5 21       		.uleb128 0x21
 3064 09f6 1F040000 		.4byte	.LASF101
 3065 09fa 04       		.byte	0x4
 3066 09fb 69       		.byte	0x69
 3067 09fc 000A0000 		.4byte	0xa00
 3068 0a00 17       		.uleb128 0x17
 3069 0a01 E5090000 		.4byte	0x9e5
 3070 0a05 21       		.uleb128 0x21
 3071 0a06 6E050000 		.4byte	.LASF102
 3072 0a0a 04       		.byte	0x4
 3073 0a0b 6C       		.byte	0x6c
 3074 0a0c 100A0000 		.4byte	0xa10
 3075 0a10 17       		.uleb128 0x17
 3076 0a11 A5090000 		.4byte	0x9a5
 3077 0a15 0C       		.uleb128 0xc
 3078 0a16 6B000000 		.4byte	0x6b
 3079 0a1a 250A0000 		.4byte	0xa25
 3080 0a1e 0D       		.uleb128 0xd
 3081 0a1f C1000000 		.4byte	0xc1
 3082 0a23 21       		.byte	0x21
 3083 0a24 00       		.byte	0
 3084 0a25 21       		.uleb128 0x21
 3085 0a26 24060000 		.4byte	.LASF103
 3086 0a2a 04       		.byte	0x4
 3087 0a2b 6F       		.byte	0x6f
 3088 0a2c 150A0000 		.4byte	0xa15
 3089 0a30 21       		.uleb128 0x21
 3090 0a31 2B010000 		.4byte	.LASF104
 3091 0a35 04       		.byte	0x4
 3092 0a36 72       		.byte	0x72
 3093 0a37 BC000000 		.4byte	0xbc
 3094 0a3b 0C       		.uleb128 0xc
ARM GAS  C:\Users\LAIR\AppData\Local\Temp\cc5n6lZj.s 			page 81


 3095 0a3c 6B000000 		.4byte	0x6b
 3096 0a40 4B0A0000 		.4byte	0xa4b
 3097 0a44 0D       		.uleb128 0xd
 3098 0a45 C1000000 		.4byte	0xc1
 3099 0a49 00       		.byte	0
 3100 0a4a 00       		.byte	0
 3101 0a4b 21       		.uleb128 0x21
 3102 0a4c F2040000 		.4byte	.LASF105
 3103 0a50 04       		.byte	0x4
 3104 0a51 73       		.byte	0x73
 3105 0a52 560A0000 		.4byte	0xa56
 3106 0a56 05       		.uleb128 0x5
 3107 0a57 3B0A0000 		.4byte	0xa3b
 3108 0a5b 21       		.uleb128 0x21
 3109 0a5c 27070000 		.4byte	.LASF106
 3110 0a60 04       		.byte	0x4
 3111 0a61 74       		.byte	0x74
 3112 0a62 660A0000 		.4byte	0xa66
 3113 0a66 05       		.uleb128 0x5
 3114 0a67 3B0A0000 		.4byte	0xa3b
 3115 0a6b 21       		.uleb128 0x21
 3116 0a6c FF000000 		.4byte	.LASF107
 3117 0a70 04       		.byte	0x4
 3118 0a71 75       		.byte	0x75
 3119 0a72 BC000000 		.4byte	0xbc
 3120 0a76 21       		.uleb128 0x21
 3121 0a77 09070000 		.4byte	.LASF108
 3122 0a7b 04       		.byte	0x4
 3123 0a7c 76       		.byte	0x76
 3124 0a7d 810A0000 		.4byte	0xa81
 3125 0a81 05       		.uleb128 0x5
 3126 0a82 3B0A0000 		.4byte	0xa3b
 3127 0a86 21       		.uleb128 0x21
 3128 0a87 E6020000 		.4byte	.LASF109
 3129 0a8b 04       		.byte	0x4
 3130 0a8c 77       		.byte	0x77
 3131 0a8d EA050000 		.4byte	0x5ea
 3132 0a91 0C       		.uleb128 0xc
 3133 0a92 3D010000 		.4byte	0x13d
 3134 0a96 A10A0000 		.4byte	0xaa1
 3135 0a9a 0D       		.uleb128 0xd
 3136 0a9b C1000000 		.4byte	0xc1
 3137 0a9f 08       		.byte	0x8
 3138 0aa0 00       		.byte	0
 3139 0aa1 21       		.uleb128 0x21
 3140 0aa2 62040000 		.4byte	.LASF110
 3141 0aa6 04       		.byte	0x4
 3142 0aa7 79       		.byte	0x79
 3143 0aa8 AC0A0000 		.4byte	0xaac
 3144 0aac 05       		.uleb128 0x5
 3145 0aad 910A0000 		.4byte	0xa91
 3146 0ab1 21       		.uleb128 0x21
 3147 0ab2 2C000000 		.4byte	.LASF111
 3148 0ab6 04       		.byte	0x4
 3149 0ab7 7A       		.byte	0x7a
 3150 0ab8 BC0A0000 		.4byte	0xabc
 3151 0abc 05       		.uleb128 0x5
ARM GAS  C:\Users\LAIR\AppData\Local\Temp\cc5n6lZj.s 			page 82


 3152 0abd 09020000 		.4byte	0x209
 3153 0ac1 22       		.uleb128 0x22
 3154 0ac2 11020000 		.4byte	.LASF119
 3155 0ac6 05       		.byte	0x5
 3156 0ac7 BE       		.byte	0xbe
 3157 0ac8 D20A0000 		.4byte	0xad2
 3158 0acc 23       		.uleb128 0x23
 3159 0acd D20A0000 		.4byte	0xad2
 3160 0ad1 00       		.byte	0
 3161 0ad2 09       		.uleb128 0x9
 3162 0ad3 04       		.byte	0x4
 3163 0ad4 83000000 		.4byte	0x83
 3164 0ad8 24       		.uleb128 0x24
 3165 0ad9 36050000 		.4byte	.LASF112
 3166 0add 04       		.byte	0x4
 3167 0ade B3       		.byte	0xb3
 3168 0adf 6B000000 		.4byte	0x6b
 3169 0ae3 24       		.uleb128 0x24
 3170 0ae4 3C000000 		.4byte	.LASF113
 3171 0ae8 04       		.byte	0x4
 3172 0ae9 A9       		.byte	0xa9
 3173 0aea 6B000000 		.4byte	0x6b
 3174 0aee 25       		.uleb128 0x25
 3175 0aef 09050000 		.4byte	.LASF114
 3176 0af3 04       		.byte	0x4
 3177 0af4 4E01     		.2byte	0x14e
 3178 0af6 6B000000 		.4byte	0x6b
 3179 0afa 00       		.byte	0
 3180              		.section	.debug_abbrev,"",%progbits
 3181              	.Ldebug_abbrev0:
 3182 0000 01       		.uleb128 0x1
 3183 0001 11       		.uleb128 0x11
 3184 0002 01       		.byte	0x1
 3185 0003 25       		.uleb128 0x25
 3186 0004 0E       		.uleb128 0xe
 3187 0005 13       		.uleb128 0x13
 3188 0006 0B       		.uleb128 0xb
 3189 0007 03       		.uleb128 0x3
 3190 0008 0E       		.uleb128 0xe
 3191 0009 1B       		.uleb128 0x1b
 3192 000a 0E       		.uleb128 0xe
 3193 000b 55       		.uleb128 0x55
 3194 000c 17       		.uleb128 0x17
 3195 000d 11       		.uleb128 0x11
 3196 000e 01       		.uleb128 0x1
 3197 000f 10       		.uleb128 0x10
 3198 0010 17       		.uleb128 0x17
 3199 0011 00       		.byte	0
 3200 0012 00       		.byte	0
 3201 0013 02       		.uleb128 0x2
 3202 0014 24       		.uleb128 0x24
 3203 0015 00       		.byte	0
 3204 0016 0B       		.uleb128 0xb
 3205 0017 0B       		.uleb128 0xb
 3206 0018 3E       		.uleb128 0x3e
 3207 0019 0B       		.uleb128 0xb
 3208 001a 03       		.uleb128 0x3
ARM GAS  C:\Users\LAIR\AppData\Local\Temp\cc5n6lZj.s 			page 83


 3209 001b 0E       		.uleb128 0xe
 3210 001c 00       		.byte	0
 3211 001d 00       		.byte	0
 3212 001e 03       		.uleb128 0x3
 3213 001f 24       		.uleb128 0x24
 3214 0020 00       		.byte	0
 3215 0021 0B       		.uleb128 0xb
 3216 0022 0B       		.uleb128 0xb
 3217 0023 3E       		.uleb128 0x3e
 3218 0024 0B       		.uleb128 0xb
 3219 0025 03       		.uleb128 0x3
 3220 0026 08       		.uleb128 0x8
 3221 0027 00       		.byte	0
 3222 0028 00       		.byte	0
 3223 0029 04       		.uleb128 0x4
 3224 002a 16       		.uleb128 0x16
 3225 002b 00       		.byte	0
 3226 002c 03       		.uleb128 0x3
 3227 002d 0E       		.uleb128 0xe
 3228 002e 3A       		.uleb128 0x3a
 3229 002f 0B       		.uleb128 0xb
 3230 0030 3B       		.uleb128 0x3b
 3231 0031 05       		.uleb128 0x5
 3232 0032 49       		.uleb128 0x49
 3233 0033 13       		.uleb128 0x13
 3234 0034 00       		.byte	0
 3235 0035 00       		.byte	0
 3236 0036 05       		.uleb128 0x5
 3237 0037 35       		.uleb128 0x35
 3238 0038 00       		.byte	0
 3239 0039 49       		.uleb128 0x49
 3240 003a 13       		.uleb128 0x13
 3241 003b 00       		.byte	0
 3242 003c 00       		.byte	0
 3243 003d 06       		.uleb128 0x6
 3244 003e 13       		.uleb128 0x13
 3245 003f 01       		.byte	0x1
 3246 0040 0B       		.uleb128 0xb
 3247 0041 0B       		.uleb128 0xb
 3248 0042 3A       		.uleb128 0x3a
 3249 0043 0B       		.uleb128 0xb
 3250 0044 3B       		.uleb128 0x3b
 3251 0045 0B       		.uleb128 0xb
 3252 0046 01       		.uleb128 0x1
 3253 0047 13       		.uleb128 0x13
 3254 0048 00       		.byte	0
 3255 0049 00       		.byte	0
 3256 004a 07       		.uleb128 0x7
 3257 004b 0D       		.uleb128 0xd
 3258 004c 00       		.byte	0
 3259 004d 03       		.uleb128 0x3
 3260 004e 0E       		.uleb128 0xe
 3261 004f 3A       		.uleb128 0x3a
 3262 0050 0B       		.uleb128 0xb
 3263 0051 3B       		.uleb128 0x3b
 3264 0052 0B       		.uleb128 0xb
 3265 0053 49       		.uleb128 0x49
ARM GAS  C:\Users\LAIR\AppData\Local\Temp\cc5n6lZj.s 			page 84


 3266 0054 13       		.uleb128 0x13
 3267 0055 38       		.uleb128 0x38
 3268 0056 0B       		.uleb128 0xb
 3269 0057 00       		.byte	0
 3270 0058 00       		.byte	0
 3271 0059 08       		.uleb128 0x8
 3272 005a 16       		.uleb128 0x16
 3273 005b 00       		.byte	0
 3274 005c 03       		.uleb128 0x3
 3275 005d 0E       		.uleb128 0xe
 3276 005e 3A       		.uleb128 0x3a
 3277 005f 0B       		.uleb128 0xb
 3278 0060 3B       		.uleb128 0x3b
 3279 0061 0B       		.uleb128 0xb
 3280 0062 49       		.uleb128 0x49
 3281 0063 13       		.uleb128 0x13
 3282 0064 00       		.byte	0
 3283 0065 00       		.byte	0
 3284 0066 09       		.uleb128 0x9
 3285 0067 0F       		.uleb128 0xf
 3286 0068 00       		.byte	0
 3287 0069 0B       		.uleb128 0xb
 3288 006a 0B       		.uleb128 0xb
 3289 006b 49       		.uleb128 0x49
 3290 006c 13       		.uleb128 0x13
 3291 006d 00       		.byte	0
 3292 006e 00       		.byte	0
 3293 006f 0A       		.uleb128 0xa
 3294 0070 0D       		.uleb128 0xd
 3295 0071 00       		.byte	0
 3296 0072 03       		.uleb128 0x3
 3297 0073 08       		.uleb128 0x8
 3298 0074 3A       		.uleb128 0x3a
 3299 0075 0B       		.uleb128 0xb
 3300 0076 3B       		.uleb128 0x3b
 3301 0077 0B       		.uleb128 0xb
 3302 0078 49       		.uleb128 0x49
 3303 0079 13       		.uleb128 0x13
 3304 007a 38       		.uleb128 0x38
 3305 007b 0B       		.uleb128 0xb
 3306 007c 00       		.byte	0
 3307 007d 00       		.byte	0
 3308 007e 0B       		.uleb128 0xb
 3309 007f 26       		.uleb128 0x26
 3310 0080 00       		.byte	0
 3311 0081 00       		.byte	0
 3312 0082 00       		.byte	0
 3313 0083 0C       		.uleb128 0xc
 3314 0084 01       		.uleb128 0x1
 3315 0085 01       		.byte	0x1
 3316 0086 49       		.uleb128 0x49
 3317 0087 13       		.uleb128 0x13
 3318 0088 01       		.uleb128 0x1
 3319 0089 13       		.uleb128 0x13
 3320 008a 00       		.byte	0
 3321 008b 00       		.byte	0
 3322 008c 0D       		.uleb128 0xd
ARM GAS  C:\Users\LAIR\AppData\Local\Temp\cc5n6lZj.s 			page 85


 3323 008d 21       		.uleb128 0x21
 3324 008e 00       		.byte	0
 3325 008f 49       		.uleb128 0x49
 3326 0090 13       		.uleb128 0x13
 3327 0091 2F       		.uleb128 0x2f
 3328 0092 0B       		.uleb128 0xb
 3329 0093 00       		.byte	0
 3330 0094 00       		.byte	0
 3331 0095 0E       		.uleb128 0xe
 3332 0096 13       		.uleb128 0x13
 3333 0097 01       		.byte	0x1
 3334 0098 0B       		.uleb128 0xb
 3335 0099 0B       		.uleb128 0xb
 3336 009a 3A       		.uleb128 0x3a
 3337 009b 0B       		.uleb128 0xb
 3338 009c 3B       		.uleb128 0x3b
 3339 009d 05       		.uleb128 0x5
 3340 009e 01       		.uleb128 0x1
 3341 009f 13       		.uleb128 0x13
 3342 00a0 00       		.byte	0
 3343 00a1 00       		.byte	0
 3344 00a2 0F       		.uleb128 0xf
 3345 00a3 0D       		.uleb128 0xd
 3346 00a4 00       		.byte	0
 3347 00a5 03       		.uleb128 0x3
 3348 00a6 0E       		.uleb128 0xe
 3349 00a7 3A       		.uleb128 0x3a
 3350 00a8 0B       		.uleb128 0xb
 3351 00a9 3B       		.uleb128 0x3b
 3352 00aa 05       		.uleb128 0x5
 3353 00ab 49       		.uleb128 0x49
 3354 00ac 13       		.uleb128 0x13
 3355 00ad 38       		.uleb128 0x38
 3356 00ae 0B       		.uleb128 0xb
 3357 00af 00       		.byte	0
 3358 00b0 00       		.byte	0
 3359 00b1 10       		.uleb128 0x10
 3360 00b2 2E       		.uleb128 0x2e
 3361 00b3 01       		.byte	0x1
 3362 00b4 3F       		.uleb128 0x3f
 3363 00b5 19       		.uleb128 0x19
 3364 00b6 03       		.uleb128 0x3
 3365 00b7 0E       		.uleb128 0xe
 3366 00b8 3A       		.uleb128 0x3a
 3367 00b9 0B       		.uleb128 0xb
 3368 00ba 3B       		.uleb128 0x3b
 3369 00bb 05       		.uleb128 0x5
 3370 00bc 27       		.uleb128 0x27
 3371 00bd 19       		.uleb128 0x19
 3372 00be 11       		.uleb128 0x11
 3373 00bf 01       		.uleb128 0x1
 3374 00c0 12       		.uleb128 0x12
 3375 00c1 06       		.uleb128 0x6
 3376 00c2 40       		.uleb128 0x40
 3377 00c3 18       		.uleb128 0x18
 3378 00c4 9742     		.uleb128 0x2117
 3379 00c6 19       		.uleb128 0x19
ARM GAS  C:\Users\LAIR\AppData\Local\Temp\cc5n6lZj.s 			page 86


 3380 00c7 01       		.uleb128 0x1
 3381 00c8 13       		.uleb128 0x13
 3382 00c9 00       		.byte	0
 3383 00ca 00       		.byte	0
 3384 00cb 11       		.uleb128 0x11
 3385 00cc 05       		.uleb128 0x5
 3386 00cd 00       		.byte	0
 3387 00ce 03       		.uleb128 0x3
 3388 00cf 0E       		.uleb128 0xe
 3389 00d0 3A       		.uleb128 0x3a
 3390 00d1 0B       		.uleb128 0xb
 3391 00d2 3B       		.uleb128 0x3b
 3392 00d3 05       		.uleb128 0x5
 3393 00d4 49       		.uleb128 0x49
 3394 00d5 13       		.uleb128 0x13
 3395 00d6 02       		.uleb128 0x2
 3396 00d7 17       		.uleb128 0x17
 3397 00d8 00       		.byte	0
 3398 00d9 00       		.byte	0
 3399 00da 12       		.uleb128 0x12
 3400 00db 34       		.uleb128 0x34
 3401 00dc 00       		.byte	0
 3402 00dd 03       		.uleb128 0x3
 3403 00de 08       		.uleb128 0x8
 3404 00df 3A       		.uleb128 0x3a
 3405 00e0 0B       		.uleb128 0xb
 3406 00e1 3B       		.uleb128 0x3b
 3407 00e2 05       		.uleb128 0x5
 3408 00e3 49       		.uleb128 0x49
 3409 00e4 13       		.uleb128 0x13
 3410 00e5 02       		.uleb128 0x2
 3411 00e6 18       		.uleb128 0x18
 3412 00e7 00       		.byte	0
 3413 00e8 00       		.byte	0
 3414 00e9 13       		.uleb128 0x13
 3415 00ea 34       		.uleb128 0x34
 3416 00eb 00       		.byte	0
 3417 00ec 03       		.uleb128 0x3
 3418 00ed 08       		.uleb128 0x8
 3419 00ee 3A       		.uleb128 0x3a
 3420 00ef 0B       		.uleb128 0xb
 3421 00f0 3B       		.uleb128 0x3b
 3422 00f1 05       		.uleb128 0x5
 3423 00f2 49       		.uleb128 0x49
 3424 00f3 13       		.uleb128 0x13
 3425 00f4 02       		.uleb128 0x2
 3426 00f5 17       		.uleb128 0x17
 3427 00f6 00       		.byte	0
 3428 00f7 00       		.byte	0
 3429 00f8 14       		.uleb128 0x14
 3430 00f9 34       		.uleb128 0x34
 3431 00fa 00       		.byte	0
 3432 00fb 03       		.uleb128 0x3
 3433 00fc 0E       		.uleb128 0xe
 3434 00fd 3A       		.uleb128 0x3a
 3435 00fe 0B       		.uleb128 0xb
 3436 00ff 3B       		.uleb128 0x3b
ARM GAS  C:\Users\LAIR\AppData\Local\Temp\cc5n6lZj.s 			page 87


 3437 0100 05       		.uleb128 0x5
 3438 0101 49       		.uleb128 0x49
 3439 0102 13       		.uleb128 0x13
 3440 0103 02       		.uleb128 0x2
 3441 0104 18       		.uleb128 0x18
 3442 0105 00       		.byte	0
 3443 0106 00       		.byte	0
 3444 0107 15       		.uleb128 0x15
 3445 0108 898201   		.uleb128 0x4109
 3446 010b 01       		.byte	0x1
 3447 010c 11       		.uleb128 0x11
 3448 010d 01       		.uleb128 0x1
 3449 010e 31       		.uleb128 0x31
 3450 010f 13       		.uleb128 0x13
 3451 0110 00       		.byte	0
 3452 0111 00       		.byte	0
 3453 0112 16       		.uleb128 0x16
 3454 0113 8A8201   		.uleb128 0x410a
 3455 0116 00       		.byte	0
 3456 0117 02       		.uleb128 0x2
 3457 0118 18       		.uleb128 0x18
 3458 0119 9142     		.uleb128 0x2111
 3459 011b 18       		.uleb128 0x18
 3460 011c 00       		.byte	0
 3461 011d 00       		.byte	0
 3462 011e 17       		.uleb128 0x17
 3463 011f 26       		.uleb128 0x26
 3464 0120 00       		.byte	0
 3465 0121 49       		.uleb128 0x49
 3466 0122 13       		.uleb128 0x13
 3467 0123 00       		.byte	0
 3468 0124 00       		.byte	0
 3469 0125 18       		.uleb128 0x18
 3470 0126 2E       		.uleb128 0x2e
 3471 0127 01       		.byte	0x1
 3472 0128 3F       		.uleb128 0x3f
 3473 0129 19       		.uleb128 0x19
 3474 012a 03       		.uleb128 0x3
 3475 012b 0E       		.uleb128 0xe
 3476 012c 3A       		.uleb128 0x3a
 3477 012d 0B       		.uleb128 0xb
 3478 012e 3B       		.uleb128 0x3b
 3479 012f 05       		.uleb128 0x5
 3480 0130 27       		.uleb128 0x27
 3481 0131 19       		.uleb128 0x19
 3482 0132 49       		.uleb128 0x49
 3483 0133 13       		.uleb128 0x13
 3484 0134 11       		.uleb128 0x11
 3485 0135 01       		.uleb128 0x1
 3486 0136 12       		.uleb128 0x12
 3487 0137 06       		.uleb128 0x6
 3488 0138 40       		.uleb128 0x40
 3489 0139 18       		.uleb128 0x18
 3490 013a 9742     		.uleb128 0x2117
 3491 013c 19       		.uleb128 0x19
 3492 013d 01       		.uleb128 0x1
 3493 013e 13       		.uleb128 0x13
ARM GAS  C:\Users\LAIR\AppData\Local\Temp\cc5n6lZj.s 			page 88


 3494 013f 00       		.byte	0
 3495 0140 00       		.byte	0
 3496 0141 19       		.uleb128 0x19
 3497 0142 34       		.uleb128 0x34
 3498 0143 00       		.byte	0
 3499 0144 03       		.uleb128 0x3
 3500 0145 0E       		.uleb128 0xe
 3501 0146 3A       		.uleb128 0x3a
 3502 0147 0B       		.uleb128 0xb
 3503 0148 3B       		.uleb128 0x3b
 3504 0149 05       		.uleb128 0x5
 3505 014a 49       		.uleb128 0x49
 3506 014b 13       		.uleb128 0x13
 3507 014c 02       		.uleb128 0x2
 3508 014d 17       		.uleb128 0x17
 3509 014e 00       		.byte	0
 3510 014f 00       		.byte	0
 3511 0150 1A       		.uleb128 0x1a
 3512 0151 898201   		.uleb128 0x4109
 3513 0154 00       		.byte	0
 3514 0155 11       		.uleb128 0x11
 3515 0156 01       		.uleb128 0x1
 3516 0157 31       		.uleb128 0x31
 3517 0158 13       		.uleb128 0x13
 3518 0159 00       		.byte	0
 3519 015a 00       		.byte	0
 3520 015b 1B       		.uleb128 0x1b
 3521 015c 2E       		.uleb128 0x2e
 3522 015d 00       		.byte	0
 3523 015e 3F       		.uleb128 0x3f
 3524 015f 19       		.uleb128 0x19
 3525 0160 03       		.uleb128 0x3
 3526 0161 0E       		.uleb128 0xe
 3527 0162 3A       		.uleb128 0x3a
 3528 0163 0B       		.uleb128 0xb
 3529 0164 3B       		.uleb128 0x3b
 3530 0165 05       		.uleb128 0x5
 3531 0166 27       		.uleb128 0x27
 3532 0167 19       		.uleb128 0x19
 3533 0168 49       		.uleb128 0x49
 3534 0169 13       		.uleb128 0x13
 3535 016a 11       		.uleb128 0x11
 3536 016b 01       		.uleb128 0x1
 3537 016c 12       		.uleb128 0x12
 3538 016d 06       		.uleb128 0x6
 3539 016e 40       		.uleb128 0x40
 3540 016f 18       		.uleb128 0x18
 3541 0170 9742     		.uleb128 0x2117
 3542 0172 19       		.uleb128 0x19
 3543 0173 00       		.byte	0
 3544 0174 00       		.byte	0
 3545 0175 1C       		.uleb128 0x1c
 3546 0176 2E       		.uleb128 0x2e
 3547 0177 01       		.byte	0x1
 3548 0178 3F       		.uleb128 0x3f
 3549 0179 19       		.uleb128 0x19
 3550 017a 03       		.uleb128 0x3
ARM GAS  C:\Users\LAIR\AppData\Local\Temp\cc5n6lZj.s 			page 89


 3551 017b 0E       		.uleb128 0xe
 3552 017c 3A       		.uleb128 0x3a
 3553 017d 0B       		.uleb128 0xb
 3554 017e 3B       		.uleb128 0x3b
 3555 017f 0B       		.uleb128 0xb
 3556 0180 27       		.uleb128 0x27
 3557 0181 19       		.uleb128 0x19
 3558 0182 49       		.uleb128 0x49
 3559 0183 13       		.uleb128 0x13
 3560 0184 11       		.uleb128 0x11
 3561 0185 01       		.uleb128 0x1
 3562 0186 12       		.uleb128 0x12
 3563 0187 06       		.uleb128 0x6
 3564 0188 40       		.uleb128 0x40
 3565 0189 18       		.uleb128 0x18
 3566 018a 9742     		.uleb128 0x2117
 3567 018c 19       		.uleb128 0x19
 3568 018d 01       		.uleb128 0x1
 3569 018e 13       		.uleb128 0x13
 3570 018f 00       		.byte	0
 3571 0190 00       		.byte	0
 3572 0191 1D       		.uleb128 0x1d
 3573 0192 34       		.uleb128 0x34
 3574 0193 00       		.byte	0
 3575 0194 03       		.uleb128 0x3
 3576 0195 0E       		.uleb128 0xe
 3577 0196 3A       		.uleb128 0x3a
 3578 0197 0B       		.uleb128 0xb
 3579 0198 3B       		.uleb128 0x3b
 3580 0199 0B       		.uleb128 0xb
 3581 019a 49       		.uleb128 0x49
 3582 019b 13       		.uleb128 0x13
 3583 019c 02       		.uleb128 0x2
 3584 019d 17       		.uleb128 0x17
 3585 019e 00       		.byte	0
 3586 019f 00       		.byte	0
 3587 01a0 1E       		.uleb128 0x1e
 3588 01a1 34       		.uleb128 0x34
 3589 01a2 00       		.byte	0
 3590 01a3 03       		.uleb128 0x3
 3591 01a4 0E       		.uleb128 0xe
 3592 01a5 3A       		.uleb128 0x3a
 3593 01a6 0B       		.uleb128 0xb
 3594 01a7 3B       		.uleb128 0x3b
 3595 01a8 0B       		.uleb128 0xb
 3596 01a9 49       		.uleb128 0x49
 3597 01aa 13       		.uleb128 0x13
 3598 01ab 02       		.uleb128 0x2
 3599 01ac 18       		.uleb128 0x18
 3600 01ad 00       		.byte	0
 3601 01ae 00       		.byte	0
 3602 01af 1F       		.uleb128 0x1f
 3603 01b0 898201   		.uleb128 0x4109
 3604 01b3 01       		.byte	0x1
 3605 01b4 11       		.uleb128 0x11
 3606 01b5 01       		.uleb128 0x1
 3607 01b6 31       		.uleb128 0x31
ARM GAS  C:\Users\LAIR\AppData\Local\Temp\cc5n6lZj.s 			page 90


 3608 01b7 13       		.uleb128 0x13
 3609 01b8 01       		.uleb128 0x1
 3610 01b9 13       		.uleb128 0x13
 3611 01ba 00       		.byte	0
 3612 01bb 00       		.byte	0
 3613 01bc 20       		.uleb128 0x20
 3614 01bd 34       		.uleb128 0x34
 3615 01be 00       		.byte	0
 3616 01bf 03       		.uleb128 0x3
 3617 01c0 0E       		.uleb128 0xe
 3618 01c1 3A       		.uleb128 0x3a
 3619 01c2 0B       		.uleb128 0xb
 3620 01c3 3B       		.uleb128 0x3b
 3621 01c4 05       		.uleb128 0x5
 3622 01c5 49       		.uleb128 0x49
 3623 01c6 13       		.uleb128 0x13
 3624 01c7 3F       		.uleb128 0x3f
 3625 01c8 19       		.uleb128 0x19
 3626 01c9 3C       		.uleb128 0x3c
 3627 01ca 19       		.uleb128 0x19
 3628 01cb 00       		.byte	0
 3629 01cc 00       		.byte	0
 3630 01cd 21       		.uleb128 0x21
 3631 01ce 34       		.uleb128 0x34
 3632 01cf 00       		.byte	0
 3633 01d0 03       		.uleb128 0x3
 3634 01d1 0E       		.uleb128 0xe
 3635 01d2 3A       		.uleb128 0x3a
 3636 01d3 0B       		.uleb128 0xb
 3637 01d4 3B       		.uleb128 0x3b
 3638 01d5 0B       		.uleb128 0xb
 3639 01d6 49       		.uleb128 0x49
 3640 01d7 13       		.uleb128 0x13
 3641 01d8 3F       		.uleb128 0x3f
 3642 01d9 19       		.uleb128 0x19
 3643 01da 3C       		.uleb128 0x3c
 3644 01db 19       		.uleb128 0x19
 3645 01dc 00       		.byte	0
 3646 01dd 00       		.byte	0
 3647 01de 22       		.uleb128 0x22
 3648 01df 2E       		.uleb128 0x2e
 3649 01e0 01       		.byte	0x1
 3650 01e1 3F       		.uleb128 0x3f
 3651 01e2 19       		.uleb128 0x19
 3652 01e3 03       		.uleb128 0x3
 3653 01e4 0E       		.uleb128 0xe
 3654 01e5 3A       		.uleb128 0x3a
 3655 01e6 0B       		.uleb128 0xb
 3656 01e7 3B       		.uleb128 0x3b
 3657 01e8 0B       		.uleb128 0xb
 3658 01e9 27       		.uleb128 0x27
 3659 01ea 19       		.uleb128 0x19
 3660 01eb 3C       		.uleb128 0x3c
 3661 01ec 19       		.uleb128 0x19
 3662 01ed 01       		.uleb128 0x1
 3663 01ee 13       		.uleb128 0x13
 3664 01ef 00       		.byte	0
ARM GAS  C:\Users\LAIR\AppData\Local\Temp\cc5n6lZj.s 			page 91


 3665 01f0 00       		.byte	0
 3666 01f1 23       		.uleb128 0x23
 3667 01f2 05       		.uleb128 0x5
 3668 01f3 00       		.byte	0
 3669 01f4 49       		.uleb128 0x49
 3670 01f5 13       		.uleb128 0x13
 3671 01f6 00       		.byte	0
 3672 01f7 00       		.byte	0
 3673 01f8 24       		.uleb128 0x24
 3674 01f9 2E       		.uleb128 0x2e
 3675 01fa 00       		.byte	0
 3676 01fb 3F       		.uleb128 0x3f
 3677 01fc 19       		.uleb128 0x19
 3678 01fd 03       		.uleb128 0x3
 3679 01fe 0E       		.uleb128 0xe
 3680 01ff 3A       		.uleb128 0x3a
 3681 0200 0B       		.uleb128 0xb
 3682 0201 3B       		.uleb128 0x3b
 3683 0202 0B       		.uleb128 0xb
 3684 0203 27       		.uleb128 0x27
 3685 0204 19       		.uleb128 0x19
 3686 0205 49       		.uleb128 0x49
 3687 0206 13       		.uleb128 0x13
 3688 0207 3C       		.uleb128 0x3c
 3689 0208 19       		.uleb128 0x19
 3690 0209 00       		.byte	0
 3691 020a 00       		.byte	0
 3692 020b 25       		.uleb128 0x25
 3693 020c 2E       		.uleb128 0x2e
 3694 020d 00       		.byte	0
 3695 020e 3F       		.uleb128 0x3f
 3696 020f 19       		.uleb128 0x19
 3697 0210 03       		.uleb128 0x3
 3698 0211 0E       		.uleb128 0xe
 3699 0212 3A       		.uleb128 0x3a
 3700 0213 0B       		.uleb128 0xb
 3701 0214 3B       		.uleb128 0x3b
 3702 0215 05       		.uleb128 0x5
 3703 0216 27       		.uleb128 0x27
 3704 0217 19       		.uleb128 0x19
 3705 0218 49       		.uleb128 0x49
 3706 0219 13       		.uleb128 0x13
 3707 021a 3C       		.uleb128 0x3c
 3708 021b 19       		.uleb128 0x19
 3709 021c 00       		.byte	0
 3710 021d 00       		.byte	0
 3711 021e 00       		.byte	0
 3712              		.section	.debug_loc,"",%progbits
 3713              	.Ldebug_loc0:
 3714              	.LLST0:
 3715 0000 00000000 		.4byte	.LVL0
 3716 0004 0C000000 		.4byte	.LVL1
 3717 0008 0100     		.2byte	0x1
 3718 000a 50       		.byte	0x50
 3719 000b 0C000000 		.4byte	.LVL1
 3720 000f 66000000 		.4byte	.LVL10
 3721 0013 0100     		.2byte	0x1
ARM GAS  C:\Users\LAIR\AppData\Local\Temp\cc5n6lZj.s 			page 92


 3722 0015 55       		.byte	0x55
 3723 0016 66000000 		.4byte	.LVL10
 3724 001a 6C000000 		.4byte	.LFE1
 3725 001e 0400     		.2byte	0x4
 3726 0020 F3       		.byte	0xf3
 3727 0021 01       		.uleb128 0x1
 3728 0022 50       		.byte	0x50
 3729 0023 9F       		.byte	0x9f
 3730 0024 00000000 		.4byte	0
 3731 0028 00000000 		.4byte	0
 3732              	.LLST1:
 3733 002c 22000000 		.4byte	.LVL3
 3734 0030 28000000 		.4byte	.LVL4
 3735 0034 0200     		.2byte	0x2
 3736 0036 32       		.byte	0x32
 3737 0037 9F       		.byte	0x9f
 3738 0038 28000000 		.4byte	.LVL4
 3739 003c 5C000000 		.4byte	.LVL7
 3740 0040 0100     		.2byte	0x1
 3741 0042 53       		.byte	0x53
 3742 0043 5E000000 		.4byte	.LVL8
 3743 0047 62000000 		.4byte	.LVL9
 3744 004b 0100     		.2byte	0x1
 3745 004d 53       		.byte	0x53
 3746 004e 00000000 		.4byte	0
 3747 0052 00000000 		.4byte	0
 3748              	.LLST2:
 3749 0056 12000000 		.4byte	.LVL2
 3750 005a 28000000 		.4byte	.LVL4
 3751 005e 0200     		.2byte	0x2
 3752 0060 30       		.byte	0x30
 3753 0061 9F       		.byte	0x9f
 3754 0062 28000000 		.4byte	.LVL4
 3755 0066 58000000 		.4byte	.LVL5
 3756 006a 0100     		.2byte	0x1
 3757 006c 54       		.byte	0x54
 3758 006d 5A000000 		.4byte	.LVL6
 3759 0071 62000000 		.4byte	.LVL9
 3760 0075 0100     		.2byte	0x1
 3761 0077 54       		.byte	0x54
 3762 0078 00000000 		.4byte	0
 3763 007c 00000000 		.4byte	0
 3764              	.LLST3:
 3765 0080 02000000 		.4byte	.LVL11
 3766 0084 06000000 		.4byte	.LVL12
 3767 0088 0200     		.2byte	0x2
 3768 008a 31       		.byte	0x31
 3769 008b 9F       		.byte	0x9f
 3770 008c 06000000 		.4byte	.LVL12
 3771 0090 86000000 		.4byte	.LVL13
 3772 0094 0100     		.2byte	0x1
 3773 0096 52       		.byte	0x52
 3774 0097 88000000 		.4byte	.LVL14
 3775 009b 8E000000 		.4byte	.LVL15
 3776 009f 0100     		.2byte	0x1
 3777 00a1 52       		.byte	0x52
 3778 00a2 00000000 		.4byte	0
ARM GAS  C:\Users\LAIR\AppData\Local\Temp\cc5n6lZj.s 			page 93


 3779 00a6 00000000 		.4byte	0
 3780              	.LLST4:
 3781 00aa 00000000 		.4byte	.LVL16
 3782 00ae 04000000 		.4byte	.LVL17
 3783 00b2 0200     		.2byte	0x2
 3784 00b4 31       		.byte	0x31
 3785 00b5 9F       		.byte	0x9f
 3786 00b6 04000000 		.4byte	.LVL17
 3787 00ba 34000000 		.4byte	.LVL18
 3788 00be 0100     		.2byte	0x1
 3789 00c0 53       		.byte	0x53
 3790 00c1 36000000 		.4byte	.LVL19
 3791 00c5 40000000 		.4byte	.LFE3
 3792 00c9 0100     		.2byte	0x1
 3793 00cb 53       		.byte	0x53
 3794 00cc 00000000 		.4byte	0
 3795 00d0 00000000 		.4byte	0
 3796              	.LLST5:
 3797 00d4 00000000 		.4byte	.LVL20
 3798 00d8 18000000 		.4byte	.LVL23
 3799 00dc 0100     		.2byte	0x1
 3800 00de 50       		.byte	0x50
 3801 00df 18000000 		.4byte	.LVL23
 3802 00e3 1A000000 		.4byte	.LVL24
 3803 00e7 0400     		.2byte	0x4
 3804 00e9 F3       		.byte	0xf3
 3805 00ea 01       		.uleb128 0x1
 3806 00eb 50       		.byte	0x50
 3807 00ec 9F       		.byte	0x9f
 3808 00ed 1A000000 		.4byte	.LVL24
 3809 00f1 1C000000 		.4byte	.LVL25
 3810 00f5 0100     		.2byte	0x1
 3811 00f7 50       		.byte	0x50
 3812 00f8 1C000000 		.4byte	.LVL25
 3813 00fc 28000000 		.4byte	.LFE6
 3814 0100 0400     		.2byte	0x4
 3815 0102 F3       		.byte	0xf3
 3816 0103 01       		.uleb128 0x1
 3817 0104 50       		.byte	0x50
 3818 0105 9F       		.byte	0x9f
 3819 0106 00000000 		.4byte	0
 3820 010a 00000000 		.4byte	0
 3821              	.LLST6:
 3822 010e 0C000000 		.4byte	.LVL21
 3823 0112 16000000 		.4byte	.LVL22
 3824 0116 0300     		.2byte	0x3
 3825 0118 73       		.byte	0x73
 3826 0119 10       		.sleb128 16
 3827 011a 9F       		.byte	0x9f
 3828 011b 18000000 		.4byte	.LVL23
 3829 011f 1A000000 		.4byte	.LVL24
 3830 0123 0100     		.2byte	0x1
 3831 0125 50       		.byte	0x50
 3832 0126 1A000000 		.4byte	.LVL24
 3833 012a 1C000000 		.4byte	.LVL25
 3834 012e 0300     		.2byte	0x3
 3835 0130 73       		.byte	0x73
ARM GAS  C:\Users\LAIR\AppData\Local\Temp\cc5n6lZj.s 			page 94


 3836 0131 10       		.sleb128 16
 3837 0132 9F       		.byte	0x9f
 3838 0133 1C000000 		.4byte	.LVL25
 3839 0137 28000000 		.4byte	.LFE6
 3840 013b 0100     		.2byte	0x1
 3841 013d 50       		.byte	0x50
 3842 013e 00000000 		.4byte	0
 3843 0142 00000000 		.4byte	0
 3844              	.LLST7:
 3845 0146 1A000000 		.4byte	.LVL27
 3846 014a 00010000 		.4byte	.LVL41
 3847 014e 0100     		.2byte	0x1
 3848 0150 54       		.byte	0x54
 3849 0151 00000000 		.4byte	0
 3850 0155 00000000 		.4byte	0
 3851              	.LLST8:
 3852 0159 3E000000 		.4byte	.LVL32
 3853 015d C0000000 		.4byte	.LVL37
 3854 0161 0100     		.2byte	0x1
 3855 0163 51       		.byte	0x51
 3856 0164 00000000 		.4byte	0
 3857 0168 00000000 		.4byte	0
 3858              	.LLST9:
 3859 016c 44000000 		.4byte	.LVL33
 3860 0170 88000000 		.4byte	.LVL34
 3861 0174 0100     		.2byte	0x1
 3862 0176 56       		.byte	0x56
 3863 0177 92000000 		.4byte	.LVL35
 3864 017b A4000000 		.4byte	.LVL36
 3865 017f 0100     		.2byte	0x1
 3866 0181 56       		.byte	0x56
 3867 0182 00000000 		.4byte	0
 3868 0186 00000000 		.4byte	0
 3869              	.LLST10:
 3870 018a 22000000 		.4byte	.LVL30
 3871 018e 26000000 		.4byte	.LVL31
 3872 0192 0200     		.2byte	0x2
 3873 0194 30       		.byte	0x30
 3874 0195 9F       		.byte	0x9f
 3875 0196 26000000 		.4byte	.LVL31
 3876 019a FA000000 		.4byte	.LVL39
 3877 019e 0100     		.2byte	0x1
 3878 01a0 53       		.byte	0x53
 3879 01a1 FC000000 		.4byte	.LVL40
 3880 01a5 00010000 		.4byte	.LVL41
 3881 01a9 0100     		.2byte	0x1
 3882 01ab 53       		.byte	0x53
 3883 01ac 00000000 		.4byte	0
 3884 01b0 00000000 		.4byte	0
 3885              	.LLST11:
 3886 01b4 22000000 		.4byte	.LVL30
 3887 01b8 00010000 		.4byte	.LVL41
 3888 01bc 0100     		.2byte	0x1
 3889 01be 50       		.byte	0x50
 3890 01bf 00000000 		.4byte	0
 3891 01c3 00000000 		.4byte	0
 3892              	.LLST12:
ARM GAS  C:\Users\LAIR\AppData\Local\Temp\cc5n6lZj.s 			page 95


 3893 01c7 18000000 		.4byte	.LVL26
 3894 01cb 20000000 		.4byte	.LVL29
 3895 01cf 0300     		.2byte	0x3
 3896 01d1 70       		.byte	0x70
 3897 01d2 08       		.sleb128 8
 3898 01d3 9F       		.byte	0x9f
 3899 01d4 00000000 		.4byte	0
 3900 01d8 00000000 		.4byte	0
 3901              	.LLST13:
 3902 01dc 1C000000 		.4byte	.LVL28
 3903 01e0 00010000 		.4byte	.LVL41
 3904 01e4 0100     		.2byte	0x1
 3905 01e6 52       		.byte	0x52
 3906 01e7 00000000 		.4byte	0
 3907 01eb 00000000 		.4byte	0
 3908              	.LLST14:
 3909 01ef 0E000000 		.4byte	.LVL42
 3910 01f3 18000000 		.4byte	.LVL44
 3911 01f7 0100     		.2byte	0x1
 3912 01f9 50       		.byte	0x50
 3913 01fa 18000000 		.4byte	.LVL44
 3914 01fe 1A000000 		.4byte	.LVL45
 3915 0202 0800     		.2byte	0x8
 3916 0204 72       		.byte	0x72
 3917 0205 02       		.sleb128 2
 3918 0206 33       		.byte	0x33
 3919 0207 24       		.byte	0x24
 3920 0208 70       		.byte	0x70
 3921 0209 00       		.sleb128 0
 3922 020a 22       		.byte	0x22
 3923 020b 9F       		.byte	0x9f
 3924 020c 1C000000 		.4byte	.LVL46
 3925 0210 1E000000 		.4byte	.LVL47
 3926 0214 0100     		.2byte	0x1
 3927 0216 50       		.byte	0x50
 3928 0217 00000000 		.4byte	0
 3929 021b 00000000 		.4byte	0
 3930              	.LLST15:
 3931 021f 1A000000 		.4byte	.LVL45
 3932 0223 1C000000 		.4byte	.LVL46
 3933 0227 0100     		.2byte	0x1
 3934 0229 50       		.byte	0x50
 3935 022a 1E000000 		.4byte	.LVL47
 3936 022e 24000000 		.4byte	.LFE8
 3937 0232 0100     		.2byte	0x1
 3938 0234 50       		.byte	0x50
 3939 0235 00000000 		.4byte	0
 3940 0239 00000000 		.4byte	0
 3941              	.LLST16:
 3942 023d 14000000 		.4byte	.LVL43
 3943 0241 1C000000 		.4byte	.LVL46
 3944 0245 0100     		.2byte	0x1
 3945 0247 52       		.byte	0x52
 3946 0248 00000000 		.4byte	0
 3947 024c 00000000 		.4byte	0
 3948              	.LLST17:
 3949 0250 00000000 		.4byte	.LVL48
ARM GAS  C:\Users\LAIR\AppData\Local\Temp\cc5n6lZj.s 			page 96


 3950 0254 52000000 		.4byte	.LVL59
 3951 0258 0100     		.2byte	0x1
 3952 025a 50       		.byte	0x50
 3953 025b 52000000 		.4byte	.LVL59
 3954 025f C0010000 		.4byte	.LFE4
 3955 0263 0400     		.2byte	0x4
 3956 0265 F3       		.byte	0xf3
 3957 0266 01       		.uleb128 0x1
 3958 0267 50       		.byte	0x50
 3959 0268 9F       		.byte	0x9f
 3960 0269 00000000 		.4byte	0
 3961 026d 00000000 		.4byte	0
 3962              	.LLST18:
 3963 0271 02000000 		.4byte	.LVL49
 3964 0275 06000000 		.4byte	.LVL50
 3965 0279 0200     		.2byte	0x2
 3966 027b 30       		.byte	0x30
 3967 027c 9F       		.byte	0x9f
 3968 027d 06000000 		.4byte	.LVL50
 3969 0281 22000000 		.4byte	.LVL51
 3970 0285 0100     		.2byte	0x1
 3971 0287 52       		.byte	0x52
 3972 0288 24000000 		.4byte	.LVL52
 3973 028c 2C000000 		.4byte	.LVL53
 3974 0290 0100     		.2byte	0x1
 3975 0292 52       		.byte	0x52
 3976 0293 3C000000 		.4byte	.LVL56
 3977 0297 3E000000 		.4byte	.LVL57
 3978 029b 0100     		.2byte	0x1
 3979 029d 52       		.byte	0x52
 3980 029e 7C000000 		.4byte	.LVL64
 3981 02a2 74010000 		.4byte	.LVL86
 3982 02a6 0100     		.2byte	0x1
 3983 02a8 55       		.byte	0x55
 3984 02a9 74010000 		.4byte	.LVL86
 3985 02ad 7A010000 		.4byte	.LVL87
 3986 02b1 0200     		.2byte	0x2
 3987 02b3 31       		.byte	0x31
 3988 02b4 9F       		.byte	0x9f
 3989 02b5 7A010000 		.4byte	.LVL87
 3990 02b9 96010000 		.4byte	.LVL92
 3991 02bd 0100     		.2byte	0x1
 3992 02bf 51       		.byte	0x51
 3993 02c0 98010000 		.4byte	.LVL93
 3994 02c4 9F010000 		.4byte	.LVL94-1
 3995 02c8 0100     		.2byte	0x1
 3996 02ca 51       		.byte	0x51
 3997 02cb 00000000 		.4byte	0
 3998 02cf 00000000 		.4byte	0
 3999              	.LLST19:
 4000 02d3 82000000 		.4byte	.LVL66
 4001 02d7 86000000 		.4byte	.LVL67
 4002 02db 0200     		.2byte	0x2
 4003 02dd 30       		.byte	0x30
 4004 02de 9F       		.byte	0x9f
 4005 02df 86000000 		.4byte	.LVL67
 4006 02e3 3A010000 		.4byte	.LVL75
ARM GAS  C:\Users\LAIR\AppData\Local\Temp\cc5n6lZj.s 			page 97


 4007 02e7 0100     		.2byte	0x1
 4008 02e9 53       		.byte	0x53
 4009 02ea 3C010000 		.4byte	.LVL76
 4010 02ee 44010000 		.4byte	.LVL78
 4011 02f2 0100     		.2byte	0x1
 4012 02f4 53       		.byte	0x53
 4013 02f5 00000000 		.4byte	0
 4014 02f9 00000000 		.4byte	0
 4015              	.LLST20:
 4016 02fd 2C000000 		.4byte	.LVL53
 4017 0301 38000000 		.4byte	.LVL54
 4018 0305 0100     		.2byte	0x1
 4019 0307 53       		.byte	0x53
 4020 0308 3A000000 		.4byte	.LVL55
 4021 030c 3C000000 		.4byte	.LVL56
 4022 0310 0100     		.2byte	0x1
 4023 0312 53       		.byte	0x53
 4024 0313 3E000000 		.4byte	.LVL57
 4025 0317 42000000 		.4byte	.LVL58
 4026 031b 0100     		.2byte	0x1
 4027 031d 53       		.byte	0x53
 4028 031e 7C000000 		.4byte	.LVL64
 4029 0322 80000000 		.4byte	.LVL65
 4030 0326 0200     		.2byte	0x2
 4031 0328 31       		.byte	0x31
 4032 0329 9F       		.byte	0x9f
 4033 032a 80000000 		.4byte	.LVL65
 4034 032e 42010000 		.4byte	.LVL77
 4035 0332 0100     		.2byte	0x1
 4036 0334 54       		.byte	0x54
 4037 0335 44010000 		.4byte	.LVL78
 4038 0339 4A010000 		.4byte	.LVL79
 4039 033d 0100     		.2byte	0x1
 4040 033f 54       		.byte	0x54
 4041 0340 4A010000 		.4byte	.LVL79
 4042 0344 4E010000 		.4byte	.LVL80
 4043 0348 0200     		.2byte	0x2
 4044 034a 30       		.byte	0x30
 4045 034b 9F       		.byte	0x9f
 4046 034c 4E010000 		.4byte	.LVL80
 4047 0350 66010000 		.4byte	.LVL83
 4048 0354 0100     		.2byte	0x1
 4049 0356 52       		.byte	0x52
 4050 0357 68010000 		.4byte	.LVL84
 4051 035b 6F010000 		.4byte	.LVL85-1
 4052 035f 0100     		.2byte	0x1
 4053 0361 52       		.byte	0x52
 4054 0362 00000000 		.4byte	0
 4055 0366 00000000 		.4byte	0
 4056              	.LLST21:
 4057 036a E4000000 		.4byte	.LVL68
 4058 036e 00010000 		.4byte	.LVL69
 4059 0372 0100     		.2byte	0x1
 4060 0374 52       		.byte	0x52
 4061 0375 00010000 		.4byte	.LVL69
 4062 0379 0A010000 		.4byte	.LVL70
 4063 037d 0700     		.2byte	0x7
ARM GAS  C:\Users\LAIR\AppData\Local\Temp\cc5n6lZj.s 			page 98


 4064 037f 71       		.byte	0x71
 4065 0380 03       		.sleb128 3
 4066 0381 94       		.byte	0x94
 4067 0382 01       		.byte	0x1
 4068 0383 33       		.byte	0x33
 4069 0384 1A       		.byte	0x1a
 4070 0385 9F       		.byte	0x9f
 4071 0386 10010000 		.4byte	.LVL71
 4072 038a 28010000 		.4byte	.LVL72
 4073 038e 0100     		.2byte	0x1
 4074 0390 52       		.byte	0x52
 4075 0391 28010000 		.4byte	.LVL72
 4076 0395 30010000 		.4byte	.LVL73
 4077 0399 0700     		.2byte	0x7
 4078 039b 71       		.byte	0x71
 4079 039c 03       		.sleb128 3
 4080 039d 94       		.byte	0x94
 4081 039e 01       		.byte	0x1
 4082 039f 33       		.byte	0x33
 4083 03a0 1A       		.byte	0x1a
 4084 03a1 9F       		.byte	0x9f
 4085 03a2 00000000 		.4byte	0
 4086 03a6 00000000 		.4byte	0
 4087              	.LLST22:
 4088 03aa 5C000000 		.4byte	.LVL61
 4089 03ae 5E000000 		.4byte	.LVL62
 4090 03b2 0100     		.2byte	0x1
 4091 03b4 53       		.byte	0x53
 4092 03b5 5E000000 		.4byte	.LVL62
 4093 03b9 80000000 		.4byte	.LVL65
 4094 03bd 0200     		.2byte	0x2
 4095 03bf 70       		.byte	0x70
 4096 03c0 04       		.sleb128 4
 4097 03c1 00000000 		.4byte	0
 4098 03c5 00000000 		.4byte	0
 4099              	.LLST23:
 4100 03c9 02000000 		.4byte	.LVL49
 4101 03cd 7A010000 		.4byte	.LVL87
 4102 03d1 0200     		.2byte	0x2
 4103 03d3 30       		.byte	0x30
 4104 03d4 9F       		.byte	0x9f
 4105 03d5 7A010000 		.4byte	.LVL87
 4106 03d9 8A010000 		.4byte	.LVL88
 4107 03dd 0100     		.2byte	0x1
 4108 03df 53       		.byte	0x53
 4109 03e0 8A010000 		.4byte	.LVL88
 4110 03e4 8C010000 		.4byte	.LVL89
 4111 03e8 0200     		.2byte	0x2
 4112 03ea 70       		.byte	0x70
 4113 03eb 06       		.sleb128 6
 4114 03ec 8C010000 		.4byte	.LVL89
 4115 03f0 92010000 		.4byte	.LVL90
 4116 03f4 0100     		.2byte	0x1
 4117 03f6 53       		.byte	0x53
 4118 03f7 94010000 		.4byte	.LVL91
 4119 03fb 9F010000 		.4byte	.LVL94-1
 4120 03ff 0100     		.2byte	0x1
ARM GAS  C:\Users\LAIR\AppData\Local\Temp\cc5n6lZj.s 			page 99


 4121 0401 53       		.byte	0x53
 4122 0402 00000000 		.4byte	0
 4123 0406 00000000 		.4byte	0
 4124              	.LLST24:
 4125 040a 5A000000 		.4byte	.LVL60
 4126 040e 7A000000 		.4byte	.LVL63
 4127 0412 0100     		.2byte	0x1
 4128 0414 50       		.byte	0x50
 4129 0415 7A000000 		.4byte	.LVL63
 4130 0419 4A010000 		.4byte	.LVL79
 4131 041d 0300     		.2byte	0x3
 4132 041f 70       		.byte	0x70
 4133 0420 08       		.sleb128 8
 4134 0421 9F       		.byte	0x9f
 4135 0422 00000000 		.4byte	0
 4136 0426 00000000 		.4byte	0
 4137              	.LLST25:
 4138 042a 82000000 		.4byte	.LVL66
 4139 042e 44010000 		.4byte	.LVL78
 4140 0432 0100     		.2byte	0x1
 4141 0434 51       		.byte	0x51
 4142 0435 4A010000 		.4byte	.LVL79
 4143 0439 58010000 		.4byte	.LVL81
 4144 043d 0100     		.2byte	0x1
 4145 043f 50       		.byte	0x50
 4146 0440 58010000 		.4byte	.LVL81
 4147 0444 64010000 		.4byte	.LVL82
 4148 0448 0300     		.2byte	0x3
 4149 044a 70       		.byte	0x70
 4150 044b 78       		.sleb128 -8
 4151 044c 9F       		.byte	0x9f
 4152 044d 64010000 		.4byte	.LVL82
 4153 0451 6F010000 		.4byte	.LVL85-1
 4154 0455 0100     		.2byte	0x1
 4155 0457 50       		.byte	0x50
 4156 0458 00000000 		.4byte	0
 4157 045c 00000000 		.4byte	0
 4158              	.LLST26:
 4159 0460 00000000 		.4byte	.LVL95
 4160 0464 04000000 		.4byte	.LVL96
 4161 0468 0100     		.2byte	0x1
 4162 046a 50       		.byte	0x50
 4163 046b 04000000 		.4byte	.LVL96
 4164 046f 30000000 		.4byte	.LVL97
 4165 0473 0100     		.2byte	0x1
 4166 0475 50       		.byte	0x50
 4167 0476 38000000 		.4byte	.LVL98
 4168 047a 3A000000 		.4byte	.LVL99
 4169 047e 0100     		.2byte	0x1
 4170 0480 50       		.byte	0x50
 4171 0481 00000000 		.4byte	0
 4172 0485 00000000 		.4byte	0
 4173              	.LLST27:
 4174 0489 02000000 		.4byte	.LVL100
 4175 048d 52000000 		.4byte	.LVL105
 4176 0491 0200     		.2byte	0x2
 4177 0493 30       		.byte	0x30
ARM GAS  C:\Users\LAIR\AppData\Local\Temp\cc5n6lZj.s 			page 100


 4178 0494 9F       		.byte	0x9f
 4179 0495 52000000 		.4byte	.LVL105
 4180 0499 54000000 		.4byte	.LVL106
 4181 049d 0100     		.2byte	0x1
 4182 049f 50       		.byte	0x50
 4183 04a0 54000000 		.4byte	.LVL106
 4184 04a4 56000000 		.4byte	.LVL107
 4185 04a8 0200     		.2byte	0x2
 4186 04aa 30       		.byte	0x30
 4187 04ab 9F       		.byte	0x9f
 4188 04ac 56000000 		.4byte	.LVL107
 4189 04b0 64000000 		.4byte	.LFE10
 4190 04b4 0100     		.2byte	0x1
 4191 04b6 50       		.byte	0x50
 4192 04b7 00000000 		.4byte	0
 4193 04bb 00000000 		.4byte	0
 4194              	.LLST28:
 4195 04bf 0A000000 		.4byte	.LVL101
 4196 04c3 3A000000 		.4byte	.LVL102
 4197 04c7 0100     		.2byte	0x1
 4198 04c9 52       		.byte	0x52
 4199 04ca 44000000 		.4byte	.LVL103
 4200 04ce 46000000 		.4byte	.LVL104
 4201 04d2 0100     		.2byte	0x1
 4202 04d4 52       		.byte	0x52
 4203 04d5 54000000 		.4byte	.LVL106
 4204 04d9 64000000 		.4byte	.LFE10
 4205 04dd 0100     		.2byte	0x1
 4206 04df 52       		.byte	0x52
 4207 04e0 00000000 		.4byte	0
 4208 04e4 00000000 		.4byte	0
 4209              	.LLST29:
 4210 04e8 00000000 		.4byte	.LVL108
 4211 04ec 96000000 		.4byte	.LVL117
 4212 04f0 0200     		.2byte	0x2
 4213 04f2 30       		.byte	0x30
 4214 04f3 9F       		.byte	0x9f
 4215 04f4 96000000 		.4byte	.LVL117
 4216 04f8 98000000 		.4byte	.LVL118
 4217 04fc 0100     		.2byte	0x1
 4218 04fe 50       		.byte	0x50
 4219 04ff 98000000 		.4byte	.LVL118
 4220 0503 A8000000 		.4byte	.LFE11
 4221 0507 0200     		.2byte	0x2
 4222 0509 30       		.byte	0x30
 4223 050a 9F       		.byte	0x9f
 4224 050b 00000000 		.4byte	0
 4225 050f 00000000 		.4byte	0
 4226              	.LLST30:
 4227 0513 08000000 		.4byte	.LVL109
 4228 0517 54000000 		.4byte	.LVL110
 4229 051b 0100     		.2byte	0x1
 4230 051d 53       		.byte	0x53
 4231 051e 5E000000 		.4byte	.LVL111
 4232 0522 60000000 		.4byte	.LVL112
 4233 0526 0100     		.2byte	0x1
 4234 0528 53       		.byte	0x53
ARM GAS  C:\Users\LAIR\AppData\Local\Temp\cc5n6lZj.s 			page 101


 4235 0529 6A000000 		.4byte	.LVL113
 4236 052d 7E000000 		.4byte	.LVL114
 4237 0531 0100     		.2byte	0x1
 4238 0533 53       		.byte	0x53
 4239 0534 88000000 		.4byte	.LVL115
 4240 0538 8A000000 		.4byte	.LVL116
 4241 053c 0100     		.2byte	0x1
 4242 053e 53       		.byte	0x53
 4243 053f 98000000 		.4byte	.LVL118
 4244 0543 A8000000 		.4byte	.LFE11
 4245 0547 0100     		.2byte	0x1
 4246 0549 53       		.byte	0x53
 4247 054a 00000000 		.4byte	0
 4248 054e 00000000 		.4byte	0
 4249              	.LLST31:
 4250 0552 02000000 		.4byte	.LVL119
 4251 0556 32000000 		.4byte	.LVL124
 4252 055a 0200     		.2byte	0x2
 4253 055c 30       		.byte	0x30
 4254 055d 9F       		.byte	0x9f
 4255 055e 32000000 		.4byte	.LVL124
 4256 0562 36000000 		.4byte	.LVL126
 4257 0566 0200     		.2byte	0x2
 4258 0568 31       		.byte	0x31
 4259 0569 9F       		.byte	0x9f
 4260 056a 36000000 		.4byte	.LVL126
 4261 056e 38000000 		.4byte	.LVL127
 4262 0572 0200     		.2byte	0x2
 4263 0574 30       		.byte	0x30
 4264 0575 9F       		.byte	0x9f
 4265 0576 38000000 		.4byte	.LVL127
 4266 057a 4C000000 		.4byte	.LFE12
 4267 057e 0100     		.2byte	0x1
 4268 0580 50       		.byte	0x50
 4269 0581 00000000 		.4byte	0
 4270 0585 00000000 		.4byte	0
 4271              	.LLST32:
 4272 0589 08000000 		.4byte	.LVL120
 4273 058d 3A000000 		.4byte	.LVL128
 4274 0591 0100     		.2byte	0x1
 4275 0593 54       		.byte	0x54
 4276 0594 00000000 		.4byte	0
 4277 0598 00000000 		.4byte	0
 4278              	.LLST33:
 4279 059c 18000000 		.4byte	.LVL122
 4280 05a0 24000000 		.4byte	.LVL123
 4281 05a4 0100     		.2byte	0x1
 4282 05a6 53       		.byte	0x53
 4283 05a7 24000000 		.4byte	.LVL123
 4284 05ab 34000000 		.4byte	.LVL125
 4285 05af 0500     		.2byte	0x5
 4286 05b1 70       		.byte	0x70
 4287 05b2 04       		.sleb128 4
 4288 05b3 06       		.byte	0x6
 4289 05b4 23       		.byte	0x23
 4290 05b5 04       		.uleb128 0x4
 4291 05b6 36000000 		.4byte	.LVL126
ARM GAS  C:\Users\LAIR\AppData\Local\Temp\cc5n6lZj.s 			page 102


 4292 05ba 4C000000 		.4byte	.LFE12
 4293 05be 0100     		.2byte	0x1
 4294 05c0 53       		.byte	0x53
 4295 05c1 00000000 		.4byte	0
 4296 05c5 00000000 		.4byte	0
 4297              	.LLST34:
 4298 05c9 14000000 		.4byte	.LVL121
 4299 05cd 34000000 		.4byte	.LVL125
 4300 05d1 0100     		.2byte	0x1
 4301 05d3 50       		.byte	0x50
 4302 05d4 36000000 		.4byte	.LVL126
 4303 05d8 38000000 		.4byte	.LVL127
 4304 05dc 0100     		.2byte	0x1
 4305 05de 50       		.byte	0x50
 4306 05df 00000000 		.4byte	0
 4307 05e3 00000000 		.4byte	0
 4308              	.LLST35:
 4309 05e7 02000000 		.4byte	.LVL129
 4310 05eb 58000000 		.4byte	.LVL133
 4311 05ef 0200     		.2byte	0x2
 4312 05f1 30       		.byte	0x30
 4313 05f2 9F       		.byte	0x9f
 4314 05f3 58000000 		.4byte	.LVL133
 4315 05f7 5A000000 		.4byte	.LVL134
 4316 05fb 0100     		.2byte	0x1
 4317 05fd 50       		.byte	0x50
 4318 05fe 5A000000 		.4byte	.LVL134
 4319 0602 8A000000 		.4byte	.LVL136
 4320 0606 0200     		.2byte	0x2
 4321 0608 30       		.byte	0x30
 4322 0609 9F       		.byte	0x9f
 4323 060a 8A000000 		.4byte	.LVL136
 4324 060e 8C000000 		.4byte	.LVL137
 4325 0612 0100     		.2byte	0x1
 4326 0614 50       		.byte	0x50
 4327 0615 8C000000 		.4byte	.LVL137
 4328 0619 FC000000 		.4byte	.LVL149
 4329 061d 0200     		.2byte	0x2
 4330 061f 30       		.byte	0x30
 4331 0620 9F       		.byte	0x9f
 4332 0621 FC000000 		.4byte	.LVL149
 4333 0625 FE000000 		.4byte	.LVL150
 4334 0629 0100     		.2byte	0x1
 4335 062b 50       		.byte	0x50
 4336 062c FE000000 		.4byte	.LVL150
 4337 0630 02010000 		.4byte	.LVL151
 4338 0634 0200     		.2byte	0x2
 4339 0636 30       		.byte	0x30
 4340 0637 9F       		.byte	0x9f
 4341 0638 02010000 		.4byte	.LVL151
 4342 063c 04010000 		.4byte	.LVL152
 4343 0640 0100     		.2byte	0x1
 4344 0642 50       		.byte	0x50
 4345 0643 04010000 		.4byte	.LVL152
 4346 0647 38010000 		.4byte	.LVL154
 4347 064b 0200     		.2byte	0x2
 4348 064d 30       		.byte	0x30
ARM GAS  C:\Users\LAIR\AppData\Local\Temp\cc5n6lZj.s 			page 103


 4349 064e 9F       		.byte	0x9f
 4350 064f 38010000 		.4byte	.LVL154
 4351 0653 3A010000 		.4byte	.LVL155
 4352 0657 0100     		.2byte	0x1
 4353 0659 50       		.byte	0x50
 4354 065a 3A010000 		.4byte	.LVL155
 4355 065e 54010000 		.4byte	.LVL156
 4356 0662 0200     		.2byte	0x2
 4357 0664 30       		.byte	0x30
 4358 0665 9F       		.byte	0x9f
 4359 0666 54010000 		.4byte	.LVL156
 4360 066a 56010000 		.4byte	.LVL157
 4361 066e 0100     		.2byte	0x1
 4362 0670 50       		.byte	0x50
 4363 0671 56010000 		.4byte	.LVL157
 4364 0675 64010000 		.4byte	.LVL159
 4365 0679 0200     		.2byte	0x2
 4366 067b 30       		.byte	0x30
 4367 067c 9F       		.byte	0x9f
 4368 067d 64010000 		.4byte	.LVL159
 4369 0681 66010000 		.4byte	.LVL160
 4370 0685 0100     		.2byte	0x1
 4371 0687 50       		.byte	0x50
 4372 0688 66010000 		.4byte	.LVL160
 4373 068c 7A010000 		.4byte	.LVL162
 4374 0690 0200     		.2byte	0x2
 4375 0692 30       		.byte	0x30
 4376 0693 9F       		.byte	0x9f
 4377 0694 7A010000 		.4byte	.LVL162
 4378 0698 7C010000 		.4byte	.LVL163
 4379 069c 0100     		.2byte	0x1
 4380 069e 50       		.byte	0x50
 4381 069f 7C010000 		.4byte	.LVL163
 4382 06a3 B0010000 		.4byte	.LVL165
 4383 06a7 0200     		.2byte	0x2
 4384 06a9 30       		.byte	0x30
 4385 06aa 9F       		.byte	0x9f
 4386 06ab B0010000 		.4byte	.LVL165
 4387 06af B2010000 		.4byte	.LVL166
 4388 06b3 0100     		.2byte	0x1
 4389 06b5 50       		.byte	0x50
 4390 06b6 B2010000 		.4byte	.LVL166
 4391 06ba EA010000 		.4byte	.LVL172
 4392 06be 0200     		.2byte	0x2
 4393 06c0 30       		.byte	0x30
 4394 06c1 9F       		.byte	0x9f
 4395 06c2 EA010000 		.4byte	.LVL172
 4396 06c6 EC010000 		.4byte	.LVL173
 4397 06ca 0100     		.2byte	0x1
 4398 06cc 50       		.byte	0x50
 4399 06cd EC010000 		.4byte	.LVL173
 4400 06d1 20020000 		.4byte	.LVL178
 4401 06d5 0200     		.2byte	0x2
 4402 06d7 30       		.byte	0x30
 4403 06d8 9F       		.byte	0x9f
 4404 06d9 20020000 		.4byte	.LVL178
 4405 06dd 22020000 		.4byte	.LVL179
ARM GAS  C:\Users\LAIR\AppData\Local\Temp\cc5n6lZj.s 			page 104


 4406 06e1 0100     		.2byte	0x1
 4407 06e3 50       		.byte	0x50
 4408 06e4 22020000 		.4byte	.LVL179
 4409 06e8 3E020000 		.4byte	.LVL181
 4410 06ec 0200     		.2byte	0x2
 4411 06ee 30       		.byte	0x30
 4412 06ef 9F       		.byte	0x9f
 4413 06f0 3E020000 		.4byte	.LVL181
 4414 06f4 40020000 		.4byte	.LVL182
 4415 06f8 0100     		.2byte	0x1
 4416 06fa 50       		.byte	0x50
 4417 06fb 40020000 		.4byte	.LVL182
 4418 06ff 58020000 		.4byte	.LVL183
 4419 0703 0200     		.2byte	0x2
 4420 0705 30       		.byte	0x30
 4421 0706 9F       		.byte	0x9f
 4422 0707 58020000 		.4byte	.LVL183
 4423 070b 98020000 		.4byte	.LVL184
 4424 070f 0100     		.2byte	0x1
 4425 0711 50       		.byte	0x50
 4426 0712 98020000 		.4byte	.LVL184
 4427 0716 B8020000 		.4byte	.LVL185
 4428 071a 0200     		.2byte	0x2
 4429 071c 30       		.byte	0x30
 4430 071d 9F       		.byte	0x9f
 4431 071e B8020000 		.4byte	.LVL185
 4432 0722 BA020000 		.4byte	.LVL186
 4433 0726 0100     		.2byte	0x1
 4434 0728 50       		.byte	0x50
 4435 0729 BA020000 		.4byte	.LVL186
 4436 072d D6020000 		.4byte	.LVL188
 4437 0731 0200     		.2byte	0x2
 4438 0733 30       		.byte	0x30
 4439 0734 9F       		.byte	0x9f
 4440 0735 D6020000 		.4byte	.LVL188
 4441 0739 D8020000 		.4byte	.LVL189
 4442 073d 0100     		.2byte	0x1
 4443 073f 50       		.byte	0x50
 4444 0740 D8020000 		.4byte	.LVL189
 4445 0744 F0020000 		.4byte	.LVL190
 4446 0748 0200     		.2byte	0x2
 4447 074a 30       		.byte	0x30
 4448 074b 9F       		.byte	0x9f
 4449 074c F0020000 		.4byte	.LVL190
 4450 0750 F2020000 		.4byte	.LVL191
 4451 0754 0100     		.2byte	0x1
 4452 0756 50       		.byte	0x50
 4453 0757 F2020000 		.4byte	.LVL191
 4454 075b 12030000 		.4byte	.LVL192
 4455 075f 0200     		.2byte	0x2
 4456 0761 30       		.byte	0x30
 4457 0762 9F       		.byte	0x9f
 4458 0763 12030000 		.4byte	.LVL192
 4459 0767 14030000 		.4byte	.LVL193
 4460 076b 0100     		.2byte	0x1
 4461 076d 50       		.byte	0x50
 4462 076e 14030000 		.4byte	.LVL193
ARM GAS  C:\Users\LAIR\AppData\Local\Temp\cc5n6lZj.s 			page 105


 4463 0772 4E030000 		.4byte	.LVL201
 4464 0776 0200     		.2byte	0x2
 4465 0778 30       		.byte	0x30
 4466 0779 9F       		.byte	0x9f
 4467 077a 4E030000 		.4byte	.LVL201
 4468 077e 5C030000 		.4byte	.LFE0
 4469 0782 0100     		.2byte	0x1
 4470 0784 50       		.byte	0x50
 4471 0785 00000000 		.4byte	0
 4472 0789 00000000 		.4byte	0
 4473              	.LLST36:
 4474 078d FC010000 		.4byte	.LVL175
 4475 0791 0E020000 		.4byte	.LVL176
 4476 0795 0100     		.2byte	0x1
 4477 0797 53       		.byte	0x53
 4478 0798 00000000 		.4byte	0
 4479 079c 00000000 		.4byte	0
 4480              	.LLST37:
 4481 07a0 B6010000 		.4byte	.LVL168
 4482 07a4 C3010000 		.4byte	.LVL169-1
 4483 07a8 0100     		.2byte	0x1
 4484 07aa 53       		.byte	0x53
 4485 07ab 00000000 		.4byte	0
 4486 07af 00000000 		.4byte	0
 4487              	.LLST38:
 4488 07b3 08000000 		.4byte	.LVL130
 4489 07b7 3E000000 		.4byte	.LVL131
 4490 07bb 0100     		.2byte	0x1
 4491 07bd 53       		.byte	0x53
 4492 07be 04010000 		.4byte	.LVL152
 4493 07c2 08010000 		.4byte	.LVL153
 4494 07c6 0100     		.2byte	0x1
 4495 07c8 53       		.byte	0x53
 4496 07c9 56010000 		.4byte	.LVL157
 4497 07cd 58010000 		.4byte	.LVL158
 4498 07d1 0100     		.2byte	0x1
 4499 07d3 53       		.byte	0x53
 4500 07d4 66010000 		.4byte	.LVL160
 4501 07d8 6A010000 		.4byte	.LVL161
 4502 07dc 0100     		.2byte	0x1
 4503 07de 53       		.byte	0x53
 4504 07df 7C010000 		.4byte	.LVL163
 4505 07e3 A4010000 		.4byte	.LVL164
 4506 07e7 0100     		.2byte	0x1
 4507 07e9 53       		.byte	0x53
 4508 07ea B2010000 		.4byte	.LVL166
 4509 07ee B4010000 		.4byte	.LVL167
 4510 07f2 0100     		.2byte	0x1
 4511 07f4 53       		.byte	0x53
 4512 07f5 EC010000 		.4byte	.LVL173
 4513 07f9 EF010000 		.4byte	.LVL174-1
 4514 07fd 0100     		.2byte	0x1
 4515 07ff 53       		.byte	0x53
 4516 0800 22020000 		.4byte	.LVL179
 4517 0804 26020000 		.4byte	.LVL180
 4518 0808 0100     		.2byte	0x1
 4519 080a 53       		.byte	0x53
ARM GAS  C:\Users\LAIR\AppData\Local\Temp\cc5n6lZj.s 			page 106


 4520 080b BA020000 		.4byte	.LVL186
 4521 080f BE020000 		.4byte	.LVL187
 4522 0813 0100     		.2byte	0x1
 4523 0815 53       		.byte	0x53
 4524 0816 14030000 		.4byte	.LVL193
 4525 081a 18030000 		.4byte	.LVL194
 4526 081e 0100     		.2byte	0x1
 4527 0820 53       		.byte	0x53
 4528 0821 24030000 		.4byte	.LVL198
 4529 0825 28030000 		.4byte	.LVL199
 4530 0829 0100     		.2byte	0x1
 4531 082b 53       		.byte	0x53
 4532 082c 00000000 		.4byte	0
 4533 0830 00000000 		.4byte	0
 4534              	.LLST39:
 4535 0834 08000000 		.4byte	.LVL130
 4536 0838 98000000 		.4byte	.LVL138
 4537 083c 0200     		.2byte	0x2
 4538 083e 30       		.byte	0x30
 4539 083f 9F       		.byte	0x9f
 4540 0840 98000000 		.4byte	.LVL138
 4541 0844 A2000000 		.4byte	.LVL143
 4542 0848 0100     		.2byte	0x1
 4543 084a 51       		.byte	0x51
 4544 084b A2000000 		.4byte	.LVL143
 4545 084f A6000000 		.4byte	.LVL144
 4546 0853 0200     		.2byte	0x2
 4547 0855 30       		.byte	0x30
 4548 0856 9F       		.byte	0x9f
 4549 0857 A6000000 		.4byte	.LVL144
 4550 085b E3000000 		.4byte	.LVL147-1
 4551 085f 0100     		.2byte	0x1
 4552 0861 51       		.byte	0x51
 4553 0862 E6000000 		.4byte	.LVL148
 4554 0866 FB000000 		.4byte	.LVL149-1
 4555 086a 0100     		.2byte	0x1
 4556 086c 51       		.byte	0x51
 4557 086d FE000000 		.4byte	.LVL150
 4558 0871 1C030000 		.4byte	.LVL196
 4559 0875 0200     		.2byte	0x2
 4560 0877 30       		.byte	0x30
 4561 0878 9F       		.byte	0x9f
 4562 0879 1C030000 		.4byte	.LVL196
 4563 087d 20030000 		.4byte	.LVL197
 4564 0881 0100     		.2byte	0x1
 4565 0883 51       		.byte	0x51
 4566 0884 20030000 		.4byte	.LVL197
 4567 0888 5C030000 		.4byte	.LFE0
 4568 088c 0200     		.2byte	0x2
 4569 088e 30       		.byte	0x30
 4570 088f 9F       		.byte	0x9f
 4571 0890 00000000 		.4byte	0
 4572 0894 00000000 		.4byte	0
 4573              	.LLST40:
 4574 0898 98000000 		.4byte	.LVL138
 4575 089c 9E000000 		.4byte	.LVL141
 4576 08a0 0100     		.2byte	0x1
ARM GAS  C:\Users\LAIR\AppData\Local\Temp\cc5n6lZj.s 			page 107


 4577 08a2 53       		.byte	0x53
 4578 08a3 A0000000 		.4byte	.LVL142
 4579 08a7 A2000000 		.4byte	.LVL143
 4580 08ab 0100     		.2byte	0x1
 4581 08ad 53       		.byte	0x53
 4582 08ae A6000000 		.4byte	.LVL144
 4583 08b2 BA000000 		.4byte	.LVL145
 4584 08b6 0100     		.2byte	0x1
 4585 08b8 53       		.byte	0x53
 4586 08b9 00000000 		.4byte	0
 4587 08bd 00000000 		.4byte	0
 4588              	.LLST41:
 4589 08c1 9A000000 		.4byte	.LVL139
 4590 08c5 A2000000 		.4byte	.LVL143
 4591 08c9 0100     		.2byte	0x1
 4592 08cb 52       		.byte	0x52
 4593 08cc 00000000 		.4byte	0
 4594 08d0 00000000 		.4byte	0
 4595              	.LLST42:
 4596 08d4 4A000000 		.4byte	.LVL132
 4597 08d8 57000000 		.4byte	.LVL133-1
 4598 08dc 0100     		.2byte	0x1
 4599 08de 50       		.byte	0x50
 4600 08df 6C000000 		.4byte	.LVL135
 4601 08e3 89000000 		.4byte	.LVL136-1
 4602 08e7 0100     		.2byte	0x1
 4603 08e9 50       		.byte	0x50
 4604 08ea C4010000 		.4byte	.LVL169
 4605 08ee DE010000 		.4byte	.LVL170
 4606 08f2 0100     		.2byte	0x1
 4607 08f4 50       		.byte	0x50
 4608 08f5 18030000 		.4byte	.LVL194
 4609 08f9 1A030000 		.4byte	.LVL195
 4610 08fd 0100     		.2byte	0x1
 4611 08ff 50       		.byte	0x50
 4612 0900 28030000 		.4byte	.LVL199
 4613 0904 2A030000 		.4byte	.LVL200
 4614 0908 0100     		.2byte	0x1
 4615 090a 50       		.byte	0x50
 4616 090b 00000000 		.4byte	0
 4617 090f 00000000 		.4byte	0
 4618              		.section	.debug_aranges,"",%progbits
 4619 0000 7C000000 		.4byte	0x7c
 4620 0004 0200     		.2byte	0x2
 4621 0006 00000000 		.4byte	.Ldebug_info0
 4622 000a 04       		.byte	0x4
 4623 000b 00       		.byte	0
 4624 000c 0000     		.2byte	0
 4625 000e 0000     		.2byte	0
 4626 0010 00000000 		.4byte	.LFB1
 4627 0014 6C000000 		.4byte	.LFE1-.LFB1
 4628 0018 00000000 		.4byte	.LFB2
 4629 001c A8000000 		.4byte	.LFE2-.LFB2
 4630 0020 00000000 		.4byte	.LFB3
 4631 0024 40000000 		.4byte	.LFE3-.LFB3
 4632 0028 00000000 		.4byte	.LFB6
 4633 002c 28000000 		.4byte	.LFE6-.LFB6
ARM GAS  C:\Users\LAIR\AppData\Local\Temp\cc5n6lZj.s 			page 108


 4634 0030 00000000 		.4byte	.LFB5
 4635 0034 1C010000 		.4byte	.LFE5-.LFB5
 4636 0038 00000000 		.4byte	.LFB7
 4637 003c 18000000 		.4byte	.LFE7-.LFB7
 4638 0040 00000000 		.4byte	.LFB8
 4639 0044 24000000 		.4byte	.LFE8-.LFB8
 4640 0048 00000000 		.4byte	.LFB4
 4641 004c C0010000 		.4byte	.LFE4-.LFB4
 4642 0050 00000000 		.4byte	.LFB9
 4643 0054 4C000000 		.4byte	.LFE9-.LFB9
 4644 0058 00000000 		.4byte	.LFB10
 4645 005c 64000000 		.4byte	.LFE10-.LFB10
 4646 0060 00000000 		.4byte	.LFB11
 4647 0064 A8000000 		.4byte	.LFE11-.LFB11
 4648 0068 00000000 		.4byte	.LFB12
 4649 006c 4C000000 		.4byte	.LFE12-.LFB12
 4650 0070 00000000 		.4byte	.LFB0
 4651 0074 5C030000 		.4byte	.LFE0-.LFB0
 4652 0078 00000000 		.4byte	0
 4653 007c 00000000 		.4byte	0
 4654              		.section	.debug_ranges,"",%progbits
 4655              	.Ldebug_ranges0:
 4656 0000 00000000 		.4byte	.LFB1
 4657 0004 6C000000 		.4byte	.LFE1
 4658 0008 00000000 		.4byte	.LFB2
 4659 000c A8000000 		.4byte	.LFE2
 4660 0010 00000000 		.4byte	.LFB3
 4661 0014 40000000 		.4byte	.LFE3
 4662 0018 00000000 		.4byte	.LFB6
 4663 001c 28000000 		.4byte	.LFE6
 4664 0020 00000000 		.4byte	.LFB5
 4665 0024 1C010000 		.4byte	.LFE5
 4666 0028 00000000 		.4byte	.LFB7
 4667 002c 18000000 		.4byte	.LFE7
 4668 0030 00000000 		.4byte	.LFB8
 4669 0034 24000000 		.4byte	.LFE8
 4670 0038 00000000 		.4byte	.LFB4
 4671 003c C0010000 		.4byte	.LFE4
 4672 0040 00000000 		.4byte	.LFB9
 4673 0044 4C000000 		.4byte	.LFE9
 4674 0048 00000000 		.4byte	.LFB10
 4675 004c 64000000 		.4byte	.LFE10
 4676 0050 00000000 		.4byte	.LFB11
 4677 0054 A8000000 		.4byte	.LFE11
 4678 0058 00000000 		.4byte	.LFB12
 4679 005c 4C000000 		.4byte	.LFE12
 4680 0060 00000000 		.4byte	.LFB0
 4681 0064 5C030000 		.4byte	.LFE0
 4682 0068 00000000 		.4byte	0
 4683 006c 00000000 		.4byte	0
 4684              		.section	.debug_line,"",%progbits
 4685              	.Ldebug_line0:
 4686 0000 CF030000 		.section	.debug_str,"MS",%progbits,1
 4686      02006D00 
 4686      00000201 
 4686      FB0E0D00 
 4686      01010101 
ARM GAS  C:\Users\LAIR\AppData\Local\Temp\cc5n6lZj.s 			page 109


 4687              	.LASF37:
 4688 0000 70537461 		.ascii	"pStatusBlock\000"
 4688      74757342 
 4688      6C6F636B 
 4688      00
 4689              	.LASF35:
 4690 000d 636F756E 		.ascii	"count\000"
 4690      7400
 4691              	.LASF10:
 4692 0013 75696E74 		.ascii	"uint16\000"
 4692      313600
 4693              	.LASF80:
 4694 001a 55534246 		.ascii	"USBFS_TerminateEP\000"
 4694      535F5465 
 4694      726D696E 
 4694      61746545 
 4694      5000
 4695              	.LASF111:
 4696 002c 55534246 		.ascii	"USBFS_currentTD\000"
 4696      535F6375 
 4696      7272656E 
 4696      74544400 
 4697              	.LASF113:
 4698 003c 55534246 		.ascii	"USBFS_InitControlRead\000"
 4698      535F496E 
 4698      6974436F 
 4698      6E74726F 
 4698      6C526561 
 4699              	.LASF66:
 4700 0052 636F6E66 		.ascii	"confIndex\000"
 4700      496E6465 
 4700      7800
 4701              	.LASF7:
 4702 005c 6C6F6E67 		.ascii	"long long unsigned int\000"
 4702      206C6F6E 
 4702      6720756E 
 4702      7369676E 
 4702      65642069 
 4703              	.LASF22:
 4704 0073 61646472 		.ascii	"addr\000"
 4704      00
 4705              	.LASF42:
 4706 0078 55534246 		.ascii	"USBFS_ep0_data_struct\000"
 4706      535F6570 
 4706      305F6461 
 4706      74615F73 
 4706      74727563 
 4707              	.LASF47:
 4708 008e 65704366 		.ascii	"epCfg\000"
 4708      6700
 4709              	.LASF58:
 4710 0094 55534246 		.ascii	"USBFS_sie_eps_struct\000"
 4710      535F7369 
 4710      655F6570 
 4710      735F7374 
 4710      72756374 
 4711              	.LASF60:
ARM GAS  C:\Users\LAIR\AppData\Local\Temp\cc5n6lZj.s 			page 110


 4712 00a9 55534246 		.ascii	"USBFS_arb_eps_struct\000"
 4712      535F6172 
 4712      625F6570 
 4712      735F7374 
 4712      72756374 
 4713              	.LASF81:
 4714 00be 65704E75 		.ascii	"epNumber\000"
 4714      6D626572 
 4714      00
 4715              	.LASF6:
 4716 00c7 6C6F6E67 		.ascii	"long long int\000"
 4716      206C6F6E 
 4716      6720696E 
 4716      7400
 4717              	.LASF0:
 4718 00d5 7369676E 		.ascii	"signed char\000"
 4718      65642063 
 4718      68617200 
 4719              	.LASF94:
 4720 00e1 55534246 		.ascii	"USBFS_tBuffer\000"
 4720      535F7442 
 4720      75666665 
 4720      7200
 4721              	.LASF62:
 4722 00ef 55534246 		.ascii	"USBFS_ReadDieID\000"
 4722      535F5265 
 4722      61644469 
 4722      65494400 
 4723              	.LASF107:
 4724 00ff 55534246 		.ascii	"USBFS_deviceAddress\000"
 4724      535F6465 
 4724      76696365 
 4724      41646472 
 4724      65737300 
 4725              	.LASF84:
 4726 0113 55534246 		.ascii	"USBFS_ClearEndpointHalt\000"
 4726      535F436C 
 4726      65617245 
 4726      6E64706F 
 4726      696E7448 
 4727              	.LASF104:
 4728 012b 55534246 		.ascii	"USBFS_interfaceNumber\000"
 4728      535F696E 
 4728      74657266 
 4728      6163654E 
 4728      756D6265 
 4729              	.LASF76:
 4730 0141 55534246 		.ascii	"USBFS_Config\000"
 4730      535F436F 
 4730      6E666967 
 4730      00
 4731              	.LASF56:
 4732 014e 55534246 		.ascii	"USBFS_arb_ep_struct\000"
 4732      535F6172 
 4732      625F6570 
 4732      5F737472 
 4732      75637400 
ARM GAS  C:\Users\LAIR\AppData\Local\Temp\cc5n6lZj.s 			page 111


 4733              	.LASF63:
 4734 0162 55534246 		.ascii	"USBFS_ConfigReg\000"
 4734      535F436F 
 4734      6E666967 
 4734      52656700 
 4735              	.LASF4:
 4736 0172 6C6F6E67 		.ascii	"long int\000"
 4736      20696E74 
 4736      00
 4737              	.LASF9:
 4738 017b 75696E74 		.ascii	"uint8\000"
 4738      3800
 4739              	.LASF21:
 4740 0181 6570546F 		.ascii	"epToggle\000"
 4740      67676C65 
 4740      00
 4741              	.LASF51:
 4742 018a 72775761 		.ascii	"rwWa\000"
 4742      00
 4743              	.LASF13:
 4744 018f 646F7562 		.ascii	"double\000"
 4744      6C6500
 4745              	.LASF49:
 4746 0196 65705372 		.ascii	"epSr\000"
 4746      00
 4747              	.LASF31:
 4748 019b 545F5553 		.ascii	"T_USBFS_EP_SETTINGS_BLOCK\000"
 4748      4246535F 
 4748      45505F53 
 4748      45545449 
 4748      4E47535F 
 4749              	.LASF82:
 4750 01b5 55534246 		.ascii	"USBFS_SetEndpointHalt\000"
 4750      535F5365 
 4750      74456E64 
 4750      706F696E 
 4750      7448616C 
 4751              	.LASF11:
 4752 01cb 75696E74 		.ascii	"uint32\000"
 4752      333200
 4753              	.LASF36:
 4754 01d2 70446174 		.ascii	"pData\000"
 4754      6100
 4755              	.LASF96:
 4756 01d8 55534246 		.ascii	"USBFS_configuration\000"
 4756      535F636F 
 4756      6E666967 
 4756      75726174 
 4756      696F6E00 
 4757              	.LASF23:
 4758 01ec 65704D6F 		.ascii	"epMode\000"
 4758      646500
 4759              	.LASF70:
 4760 01f3 65705479 		.ascii	"epType\000"
 4760      706500
 4761              	.LASF90:
 4762 01fa 626D5265 		.ascii	"bmRequestType\000"
ARM GAS  C:\Users\LAIR\AppData\Local\Temp\cc5n6lZj.s 			page 112


 4762      71756573 
 4762      74547970 
 4762      6500
 4763              	.LASF50:
 4764 0208 72657365 		.ascii	"reserved\000"
 4764      72766564 
 4764      00
 4765              	.LASF119:
 4766 0211 43794765 		.ascii	"CyGetUniqueId\000"
 4766      74556E69 
 4766      71756549 
 4766      6400
 4767              	.LASF8:
 4768 021f 756E7369 		.ascii	"unsigned int\000"
 4768      676E6564 
 4768      20696E74 
 4768      00
 4769              	.LASF5:
 4770 022c 6C6F6E67 		.ascii	"long unsigned int\000"
 4770      20756E73 
 4770      69676E65 
 4770      6420696E 
 4770      7400
 4771              	.LASF73:
 4772 023e 55534246 		.ascii	"USBFS_GetInterfaceClassTablePtr\000"
 4772      535F4765 
 4772      74496E74 
 4772      65726661 
 4772      6365436C 
 4773              	.LASF3:
 4774 025e 73686F72 		.ascii	"short unsigned int\000"
 4774      7420756E 
 4774      7369676E 
 4774      65642069 
 4774      6E7400
 4775              	.LASF78:
 4776 0271 70446573 		.ascii	"pDescr\000"
 4776      637200
 4777              	.LASF46:
 4778 0278 55534246 		.ascii	"USBFS_sie_ep_struct\000"
 4778      535F7369 
 4778      655F6570 
 4778      5F737472 
 4778      75637400 
 4779              	.LASF74:
 4780 028c 70496E74 		.ascii	"pInterfaceClass\000"
 4780      65726661 
 4780      6365436C 
 4780      61737300 
 4781              	.LASF59:
 4782 029c 61726245 		.ascii	"arbEp\000"
 4782      7000
 4783              	.LASF26:
 4784 02a2 696E7465 		.ascii	"interface\000"
 4784      72666163 
 4784      6500
 4785              	.LASF85:
ARM GAS  C:\Users\LAIR\AppData\Local\Temp\cc5n6lZj.s 			page 113


 4786 02ac 55534246 		.ascii	"USBFS_ValidateAlternateSetting\000"
 4786      535F5661 
 4786      6C696461 
 4786      7465416C 
 4786      7465726E 
 4787              	.LASF97:
 4788 02cb 55534246 		.ascii	"USBFS_configurationChanged\000"
 4788      535F636F 
 4788      6E666967 
 4788      75726174 
 4788      696F6E43 
 4789              	.LASF109:
 4790 02e6 55534246 		.ascii	"USBFS_interfaceClass\000"
 4790      535F696E 
 4790      74657266 
 4790      61636543 
 4790      6C617373 
 4791              	.LASF69:
 4792 02fb 63757245 		.ascii	"curEp\000"
 4792      7000
 4793              	.LASF20:
 4794 0301 68774570 		.ascii	"hwEpState\000"
 4794      53746174 
 4794      6500
 4795              	.LASF93:
 4796 030b 64657363 		.ascii	"descrLength\000"
 4796      724C656E 
 4796      67746800 
 4797              	.LASF17:
 4798 0317 73697A65 		.ascii	"sizetype\000"
 4798      74797065 
 4798      00
 4799              	.LASF117:
 4800 0320 433A5C55 		.ascii	"C:\\Users\\LAIR\\Documents\\GitHub\\Golfcart\\PSOC_"
 4800      73657273 
 4800      5C4C4149 
 4800      525C446F 
 4800      63756D65 
 4801 034d 50524F47 		.ascii	"PROGRAMS\\PSoC5\\Roadrunner Control System.cydsn\000"
 4801      52414D53 
 4801      5C50536F 
 4801      43355C52 
 4801      6F616472 
 4802              	.LASF57:
 4803 037c 73696545 		.ascii	"sieEp\000"
 4803      7000
 4804              	.LASF67:
 4805 0382 70546D70 		.ascii	"pTmp\000"
 4805      00
 4806              	.LASF39:
 4807 0387 705F6C69 		.ascii	"p_list\000"
 4807      737400
 4808              	.LASF79:
 4809 038e 62756666 		.ascii	"buffCount\000"
 4809      436F756E 
 4809      7400
 4810              	.LASF18:
ARM GAS  C:\Users\LAIR\AppData\Local\Temp\cc5n6lZj.s 			page 114


 4811 0398 61747472 		.ascii	"attrib\000"
 4811      696200
 4812              	.LASF100:
 4813 039f 55534246 		.ascii	"USBFS_TABLE\000"
 4813      535F5441 
 4813      424C4500 
 4814              	.LASF54:
 4815 03ab 72775261 		.ascii	"rwRaMsb\000"
 4815      4D736200 
 4816              	.LASF43:
 4817 03b3 6570436E 		.ascii	"epCnt0\000"
 4817      743000
 4818              	.LASF44:
 4819 03ba 6570436E 		.ascii	"epCnt1\000"
 4819      743100
 4820              	.LASF68:
 4821 03c1 55534246 		.ascii	"USBFS_ConfigAltChanged\000"
 4821      535F436F 
 4821      6E666967 
 4821      416C7443 
 4821      68616E67 
 4822              	.LASF34:
 4823 03d8 545F5553 		.ascii	"T_USBFS_XFER_STATUS_BLOCK\000"
 4823      4246535F 
 4823      58464552 
 4823      5F535441 
 4823      5455535F 
 4824              	.LASF45:
 4825 03f2 65704372 		.ascii	"epCr0\000"
 4825      3000
 4826              	.LASF71:
 4827 03f8 696E7465 		.ascii	"interfaceNum\000"
 4827      72666163 
 4827      654E756D 
 4827      00
 4828              	.LASF99:
 4829 0405 55534246 		.ascii	"USBFS_DEVICE0_DESCR\000"
 4829      535F4445 
 4829      56494345 
 4829      305F4445 
 4829      53435200 
 4830              	.LASF12:
 4831 0419 666C6F61 		.ascii	"float\000"
 4831      7400
 4832              	.LASF101:
 4833 041f 55534246 		.ascii	"USBFS_STRING_DESCRIPTORS\000"
 4833      535F5354 
 4833      52494E47 
 4833      5F444553 
 4833      43524950 
 4834              	.LASF19:
 4835 0438 61706945 		.ascii	"apiEpState\000"
 4835      70537461 
 4835      746500
 4836              	.LASF77:
 4837 0443 636C6561 		.ascii	"clearAltSetting\000"
 4837      72416C74 
ARM GAS  C:\Users\LAIR\AppData\Local\Temp\cc5n6lZj.s 			page 115


 4837      53657474 
 4837      696E6700 
 4838              	.LASF89:
 4839 0453 636F6E66 		.ascii	"configurationN\000"
 4839      69677572 
 4839      6174696F 
 4839      6E4E00
 4840              	.LASF110:
 4841 0462 55534246 		.ascii	"USBFS_EP\000"
 4841      535F4550 
 4841      00
 4842              	.LASF91:
 4843 046b 70537472 		.ascii	"pStr\000"
 4843      00
 4844              	.LASF16:
 4845 0470 72656738 		.ascii	"reg8\000"
 4845      00
 4846              	.LASF65:
 4847 0475 64657363 		.ascii	"descr\000"
 4847      7200
 4848              	.LASF1:
 4849 047b 756E7369 		.ascii	"unsigned char\000"
 4849      676E6564 
 4849      20636861 
 4849      7200
 4850              	.LASF64:
 4851 0489 55534246 		.ascii	"USBFS_EpStateInit\000"
 4851      535F4570 
 4851      53746174 
 4851      65496E69 
 4851      7400
 4852              	.LASF2:
 4853 049b 73686F72 		.ascii	"short int\000"
 4853      7420696E 
 4853      7400
 4854              	.LASF38:
 4855 04a5 545F5553 		.ascii	"T_USBFS_TD\000"
 4855      4246535F 
 4855      544400
 4856              	.LASF72:
 4857 04b0 55534246 		.ascii	"USBFS_GetConfigTablePtr\000"
 4857      535F4765 
 4857      74436F6E 
 4857      66696754 
 4857      61626C65 
 4858              	.LASF53:
 4859 04c8 72775261 		.ascii	"rwRa\000"
 4859      00
 4860              	.LASF116:
 4861 04cd 2E5C4765 		.ascii	".\\Generated_Source\\PSoC5\\USBFS_std.c\000"
 4861      6E657261 
 4861      7465645F 
 4861      536F7572 
 4861      63655C50 
 4862              	.LASF105:
 4863 04f2 55534246 		.ascii	"USBFS_interfaceSetting\000"
 4863      535F696E 
ARM GAS  C:\Users\LAIR\AppData\Local\Temp\cc5n6lZj.s 			page 116


 4863      74657266 
 4863      61636553 
 4863      65747469 
 4864              	.LASF114:
 4865 0509 55534246 		.ascii	"USBFS_DispatchClassRqst\000"
 4865      535F4469 
 4865      73706174 
 4865      6368436C 
 4865      61737352 
 4866              	.LASF27:
 4867 0521 545F5553 		.ascii	"T_USBFS_EP_CTL_BLOCK\000"
 4867      4246535F 
 4867      45505F43 
 4867      544C5F42 
 4867      4C4F434B 
 4868              	.LASF112:
 4869 0536 55534246 		.ascii	"USBFS_InitNoDataControlTransfer\000"
 4869      535F496E 
 4869      69744E6F 
 4869      44617461 
 4869      436F6E74 
 4870              	.LASF95:
 4871 0556 55534246 		.ascii	"USBFS_device\000"
 4871      535F6465 
 4871      76696365 
 4871      00
 4872              	.LASF29:
 4873 0563 61747472 		.ascii	"attributes\000"
 4873      69627574 
 4873      657300
 4874              	.LASF102:
 4875 056e 55534246 		.ascii	"USBFS_MSOS_DESCRIPTOR\000"
 4875      535F4D53 
 4875      4F535F44 
 4875      45534352 
 4875      4950544F 
 4876              	.LASF118:
 4877 0584 55534246 		.ascii	"USBFS_GetDeviceTablePtr\000"
 4877      535F4765 
 4877      74446576 
 4877      69636554 
 4877      61626C65 
 4878              	.LASF28:
 4879 059c 616C7453 		.ascii	"altSetting\000"
 4879      65747469 
 4879      6E6700
 4880              	.LASF15:
 4881 05a7 63686172 		.ascii	"char\000"
 4881      00
 4882              	.LASF25:
 4883 05ac 62756666 		.ascii	"bufferSize\000"
 4883      65725369 
 4883      7A6500
 4884              	.LASF83:
 4885 05b7 72657175 		.ascii	"requestHandled\000"
 4885      65737448 
 4885      616E646C 
ARM GAS  C:\Users\LAIR\AppData\Local\Temp\cc5n6lZj.s 			page 117


 4885      656400
 4886              	.LASF75:
 4887 05c6 63757272 		.ascii	"currentInterfacesNum\000"
 4887      656E7449 
 4887      6E746572 
 4887      66616365 
 4887      734E756D 
 4888              	.LASF24:
 4889 05db 62756666 		.ascii	"buffOffset\000"
 4889      4F666673 
 4889      657400
 4890              	.LASF14:
 4891 05e6 63686172 		.ascii	"char8\000"
 4891      3800
 4892              	.LASF61:
 4893 05ec 756E6971 		.ascii	"uniqueId\000"
 4893      75654964 
 4893      00
 4894              	.LASF88:
 4895 05f5 696E7465 		.ascii	"interfaceNumber\000"
 4895      72666163 
 4895      654E756D 
 4895      62657200 
 4896              	.LASF98:
 4897 0605 55534246 		.ascii	"USBFS_deviceStatus\000"
 4897      535F6465 
 4897      76696365 
 4897      53746174 
 4897      757300
 4898              	.LASF33:
 4899 0618 6C656E67 		.ascii	"length\000"
 4899      746800
 4900              	.LASF92:
 4901 061f 6E537472 		.ascii	"nStr\000"
 4901      00
 4902              	.LASF103:
 4903 0624 55534246 		.ascii	"USBFS_idSerialNumberStringDescriptor\000"
 4903      535F6964 
 4903      53657269 
 4903      616C4E75 
 4903      6D626572 
 4904              	.LASF32:
 4905 0649 73746174 		.ascii	"status\000"
 4905      757300
 4906              	.LASF115:
 4907 0650 474E5520 		.ascii	"GNU C 4.9.3 20150303 (release) [ARM/embedded-4_9-br"
 4907      4320342E 
 4907      392E3320 
 4907      32303135 
 4907      30333033 
 4908 0683 616E6368 		.ascii	"anch revision 221220] -mcpu=cortex-m3 -mthumb -g -O"
 4908      20726576 
 4908      6973696F 
 4908      6E203232 
 4908      31323230 
 4909 06b6 67202D66 		.ascii	"g -ffunction-sections -ffat-lto-objects\000"
 4909      66756E63 
ARM GAS  C:\Users\LAIR\AppData\Local\Temp\cc5n6lZj.s 			page 118


 4909      74696F6E 
 4909      2D736563 
 4909      74696F6E 
 4910              	.LASF55:
 4911 06de 72774472 		.ascii	"rwDr\000"
 4911      00
 4912              	.LASF86:
 4913 06e3 63757249 		.ascii	"curInterfacesNum\000"
 4913      6E746572 
 4913      66616365 
 4913      734E756D 
 4913      00
 4914              	.LASF41:
 4915 06f4 65704461 		.ascii	"epData\000"
 4915      746100
 4916              	.LASF30:
 4917 06fb 624D6973 		.ascii	"bMisc\000"
 4917      6300
 4918              	.LASF52:
 4919 0701 72775761 		.ascii	"rwWaMsb\000"
 4919      4D736200 
 4920              	.LASF108:
 4921 0709 55534246 		.ascii	"USBFS_interfaceStatus\000"
 4921      535F696E 
 4921      74657266 
 4921      61636553 
 4921      74617475 
 4922              	.LASF48:
 4923 071f 6570496E 		.ascii	"epIntEn\000"
 4923      74456E00 
 4924              	.LASF106:
 4925 0727 55534246 		.ascii	"USBFS_interfaceSettingLast\000"
 4925      535F696E 
 4925      74657266 
 4925      61636553 
 4925      65747469 
 4926              	.LASF87:
 4927 0742 55534246 		.ascii	"USBFS_HandleStandardRqst\000"
 4927      535F4861 
 4927      6E646C65 
 4927      5374616E 
 4927      64617264 
 4928              	.LASF40:
 4929 075b 545F5553 		.ascii	"T_USBFS_LUT\000"
 4929      4246535F 
 4929      4C555400 
 4930              		.ident	"GCC: (GNU Tools for ARM Embedded Processors) 4.9.3 20150303 (release) [ARM/embedded-4_9-br
