ARM GAS  C:\Users\LAIR\AppData\Local\Temp\cc5n6lZj.s 			page 1


   1              		.syntax unified
   2              		.cpu cortex-m3
   3              		.fpu softvfp
   4              		.eabi_attribute 20, 1
   5              		.eabi_attribute 21, 1
   6              		.eabi_attribute 23, 3
   7              		.eabi_attribute 24, 1
   8              		.eabi_attribute 25, 1
   9              		.eabi_attribute 26, 1
  10              		.eabi_attribute 30, 1
  11              		.eabi_attribute 34, 1
  12              		.eabi_attribute 18, 4
  13              		.thumb
  14              		.file	"USBFS_std.c"
  15              		.text
  16              	.Ltext0:
  17              		.cfi_sections	.debug_frame
  18              		.section	.text.USBFS_ReadDieID,"ax",%progbits
  19              		.align	2
  20              		.global	USBFS_ReadDieID
  21              		.thumb
  22              		.thumb_func
  23              		.type	USBFS_ReadDieID, %function
  24              	USBFS_ReadDieID:
  25              	.LFB1:
  26              		.file 1 ".\\Generated_Source\\PSoC5\\USBFS_std.c"
   1:.\Generated_Source\PSoC5/USBFS_std.c **** /***************************************************************************//**
   2:.\Generated_Source\PSoC5/USBFS_std.c **** * \file USBFS_std.c
   3:.\Generated_Source\PSoC5/USBFS_std.c **** * \version 3.0
   4:.\Generated_Source\PSoC5/USBFS_std.c **** *
   5:.\Generated_Source\PSoC5/USBFS_std.c **** * \brief
   6:.\Generated_Source\PSoC5/USBFS_std.c **** *  This file contains the USB Standard request handler.
   7:.\Generated_Source\PSoC5/USBFS_std.c **** *
   8:.\Generated_Source\PSoC5/USBFS_std.c **** ********************************************************************************
   9:.\Generated_Source\PSoC5/USBFS_std.c **** * \copyright
  10:.\Generated_Source\PSoC5/USBFS_std.c **** * Copyright 2008-2015, Cypress Semiconductor Corporation.  All rights reserved.
  11:.\Generated_Source\PSoC5/USBFS_std.c **** * You may use this file only in accordance with the license, terms, conditions,
  12:.\Generated_Source\PSoC5/USBFS_std.c **** * disclaimers, and limitations in the end user license agreement accompanying
  13:.\Generated_Source\PSoC5/USBFS_std.c **** * the software package with which this file was provided.
  14:.\Generated_Source\PSoC5/USBFS_std.c **** *******************************************************************************/
  15:.\Generated_Source\PSoC5/USBFS_std.c **** 
  16:.\Generated_Source\PSoC5/USBFS_std.c **** #include "USBFS_pvt.h"
  17:.\Generated_Source\PSoC5/USBFS_std.c **** 
  18:.\Generated_Source\PSoC5/USBFS_std.c **** /***************************************
  19:.\Generated_Source\PSoC5/USBFS_std.c **** *   Static data allocation
  20:.\Generated_Source\PSoC5/USBFS_std.c **** ***************************************/
  21:.\Generated_Source\PSoC5/USBFS_std.c **** 
  22:.\Generated_Source\PSoC5/USBFS_std.c **** #if defined(USBFS_ENABLE_FWSN_STRING)
  23:.\Generated_Source\PSoC5/USBFS_std.c ****     static volatile uint8* USBFS_fwSerialNumberStringDescriptor;
  24:.\Generated_Source\PSoC5/USBFS_std.c ****     static volatile uint8  USBFS_snStringConfirm = USBFS_FALSE;
  25:.\Generated_Source\PSoC5/USBFS_std.c **** #endif  /* (USBFS_ENABLE_FWSN_STRING) */
  26:.\Generated_Source\PSoC5/USBFS_std.c **** 
  27:.\Generated_Source\PSoC5/USBFS_std.c **** #if defined(USBFS_ENABLE_FWSN_STRING)
  28:.\Generated_Source\PSoC5/USBFS_std.c ****     /***************************************************************************
  29:.\Generated_Source\PSoC5/USBFS_std.c ****     * Function Name: USBFS_SerialNumString
  30:.\Generated_Source\PSoC5/USBFS_std.c ****     ************************************************************************//**
  31:.\Generated_Source\PSoC5/USBFS_std.c ****     *
ARM GAS  C:\Users\LAIR\AppData\Local\Temp\cc5n6lZj.s 			page 2


  32:.\Generated_Source\PSoC5/USBFS_std.c ****     *  This function is available only when the User Call Back option in the 
  33:.\Generated_Source\PSoC5/USBFS_std.c ****     *  Serial Number String descriptor properties is selected. Application 
  34:.\Generated_Source\PSoC5/USBFS_std.c ****     *  firmware can provide the source of the USB device serial number string 
  35:.\Generated_Source\PSoC5/USBFS_std.c ****     *  descriptor during run time. The default string is used if the application 
  36:.\Generated_Source\PSoC5/USBFS_std.c ****     *  firmware does not use this function or sets the wrong string descriptor.
  37:.\Generated_Source\PSoC5/USBFS_std.c ****     *
  38:.\Generated_Source\PSoC5/USBFS_std.c ****     *  \param snString:  Pointer to the user-defined string descriptor. The 
  39:.\Generated_Source\PSoC5/USBFS_std.c ****     *  string descriptor should meet the Universal Serial Bus Specification 
  40:.\Generated_Source\PSoC5/USBFS_std.c ****     *  revision 2.0 chapter 9.6.7
  41:.\Generated_Source\PSoC5/USBFS_std.c ****     *  Offset|Size|Value|Description
  42:.\Generated_Source\PSoC5/USBFS_std.c ****     *  ------|----|------|---------------------------------
  43:.\Generated_Source\PSoC5/USBFS_std.c ****     *  0     |1   |N     |Size of this descriptor in bytes
  44:.\Generated_Source\PSoC5/USBFS_std.c ****     *  1     |1   |0x03  |STRING Descriptor Type
  45:.\Generated_Source\PSoC5/USBFS_std.c ****     *  2     |N-2 |Number|UNICODE encoded string
  46:.\Generated_Source\PSoC5/USBFS_std.c ****     *  
  47:.\Generated_Source\PSoC5/USBFS_std.c ****     * *For example:* uint8 snString[16]={0x0E,0x03,'F',0,'W',0,'S',0,'N',0,'0',0,'1',0};
  48:.\Generated_Source\PSoC5/USBFS_std.c ****     *
  49:.\Generated_Source\PSoC5/USBFS_std.c ****     * \reentrant
  50:.\Generated_Source\PSoC5/USBFS_std.c ****     *  No.
  51:.\Generated_Source\PSoC5/USBFS_std.c ****     *
  52:.\Generated_Source\PSoC5/USBFS_std.c ****     ***************************************************************************/
  53:.\Generated_Source\PSoC5/USBFS_std.c ****     void  USBFS_SerialNumString(uint8 snString[]) 
  54:.\Generated_Source\PSoC5/USBFS_std.c ****     {
  55:.\Generated_Source\PSoC5/USBFS_std.c ****         USBFS_snStringConfirm = USBFS_FALSE;
  56:.\Generated_Source\PSoC5/USBFS_std.c ****         
  57:.\Generated_Source\PSoC5/USBFS_std.c ****         if (snString != NULL)
  58:.\Generated_Source\PSoC5/USBFS_std.c ****         {
  59:.\Generated_Source\PSoC5/USBFS_std.c ****             /* Check descriptor validation */
  60:.\Generated_Source\PSoC5/USBFS_std.c ****             if ((snString[0u] > 1u) && (snString[1u] == USBFS_DESCR_STRING))
  61:.\Generated_Source\PSoC5/USBFS_std.c ****             {
  62:.\Generated_Source\PSoC5/USBFS_std.c ****                 USBFS_fwSerialNumberStringDescriptor = snString;
  63:.\Generated_Source\PSoC5/USBFS_std.c ****                 USBFS_snStringConfirm = USBFS_TRUE;
  64:.\Generated_Source\PSoC5/USBFS_std.c ****             }
  65:.\Generated_Source\PSoC5/USBFS_std.c ****         }
  66:.\Generated_Source\PSoC5/USBFS_std.c ****     }
  67:.\Generated_Source\PSoC5/USBFS_std.c **** #endif  /* USBFS_ENABLE_FWSN_STRING */
  68:.\Generated_Source\PSoC5/USBFS_std.c **** 
  69:.\Generated_Source\PSoC5/USBFS_std.c **** 
  70:.\Generated_Source\PSoC5/USBFS_std.c **** /*******************************************************************************
  71:.\Generated_Source\PSoC5/USBFS_std.c **** * Function Name: USBFS_HandleStandardRqst
  72:.\Generated_Source\PSoC5/USBFS_std.c **** ****************************************************************************//**
  73:.\Generated_Source\PSoC5/USBFS_std.c **** *
  74:.\Generated_Source\PSoC5/USBFS_std.c **** *  This Routine dispatches standard requests
  75:.\Generated_Source\PSoC5/USBFS_std.c **** *
  76:.\Generated_Source\PSoC5/USBFS_std.c **** *
  77:.\Generated_Source\PSoC5/USBFS_std.c **** * \return
  78:.\Generated_Source\PSoC5/USBFS_std.c **** *  TRUE if request handled.
  79:.\Generated_Source\PSoC5/USBFS_std.c **** *
  80:.\Generated_Source\PSoC5/USBFS_std.c **** * \reentrant
  81:.\Generated_Source\PSoC5/USBFS_std.c **** *  No.
  82:.\Generated_Source\PSoC5/USBFS_std.c **** *
  83:.\Generated_Source\PSoC5/USBFS_std.c **** *******************************************************************************/
  84:.\Generated_Source\PSoC5/USBFS_std.c **** uint8 USBFS_HandleStandardRqst(void) 
  85:.\Generated_Source\PSoC5/USBFS_std.c **** {
  86:.\Generated_Source\PSoC5/USBFS_std.c ****     uint8 requestHandled = USBFS_FALSE;
  87:.\Generated_Source\PSoC5/USBFS_std.c ****     uint8 interfaceNumber;
  88:.\Generated_Source\PSoC5/USBFS_std.c ****     uint8 configurationN;
ARM GAS  C:\Users\LAIR\AppData\Local\Temp\cc5n6lZj.s 			page 3


  89:.\Generated_Source\PSoC5/USBFS_std.c ****     uint8 bmRequestType = USBFS_bmRequestTypeReg;
  90:.\Generated_Source\PSoC5/USBFS_std.c **** 
  91:.\Generated_Source\PSoC5/USBFS_std.c **** #if defined(USBFS_ENABLE_STRINGS)
  92:.\Generated_Source\PSoC5/USBFS_std.c ****     volatile uint8 *pStr = 0u;
  93:.\Generated_Source\PSoC5/USBFS_std.c ****     #if defined(USBFS_ENABLE_DESCRIPTOR_STRINGS)
  94:.\Generated_Source\PSoC5/USBFS_std.c ****         uint8 nStr;
  95:.\Generated_Source\PSoC5/USBFS_std.c ****         uint8 descrLength;
  96:.\Generated_Source\PSoC5/USBFS_std.c ****     #endif /* (USBFS_ENABLE_DESCRIPTOR_STRINGS) */
  97:.\Generated_Source\PSoC5/USBFS_std.c **** #endif /* (USBFS_ENABLE_STRINGS) */
  98:.\Generated_Source\PSoC5/USBFS_std.c ****     
  99:.\Generated_Source\PSoC5/USBFS_std.c ****     static volatile uint8 USBFS_tBuffer[USBFS_STATUS_LENGTH_MAX];
 100:.\Generated_Source\PSoC5/USBFS_std.c ****     const T_USBFS_LUT CYCODE *pTmp;
 101:.\Generated_Source\PSoC5/USBFS_std.c **** 
 102:.\Generated_Source\PSoC5/USBFS_std.c ****     USBFS_currentTD.count = 0u;
 103:.\Generated_Source\PSoC5/USBFS_std.c **** 
 104:.\Generated_Source\PSoC5/USBFS_std.c ****     if (USBFS_RQST_DIR_D2H == (bmRequestType & USBFS_RQST_DIR_MASK))
 105:.\Generated_Source\PSoC5/USBFS_std.c ****     {
 106:.\Generated_Source\PSoC5/USBFS_std.c ****         /* Control Read */
 107:.\Generated_Source\PSoC5/USBFS_std.c ****         switch (USBFS_bRequestReg)
 108:.\Generated_Source\PSoC5/USBFS_std.c ****         {
 109:.\Generated_Source\PSoC5/USBFS_std.c ****             case USBFS_GET_DESCRIPTOR:
 110:.\Generated_Source\PSoC5/USBFS_std.c ****                 if (USBFS_DESCR_DEVICE ==USBFS_wValueHiReg)
 111:.\Generated_Source\PSoC5/USBFS_std.c ****                 {
 112:.\Generated_Source\PSoC5/USBFS_std.c ****                     pTmp = USBFS_GetDeviceTablePtr();
 113:.\Generated_Source\PSoC5/USBFS_std.c ****                     USBFS_currentTD.pData = (volatile uint8 *)pTmp->p_list;
 114:.\Generated_Source\PSoC5/USBFS_std.c ****                     USBFS_currentTD.count = USBFS_DEVICE_DESCR_LENGTH;
 115:.\Generated_Source\PSoC5/USBFS_std.c ****                     
 116:.\Generated_Source\PSoC5/USBFS_std.c ****                     requestHandled  = USBFS_InitControlRead();
 117:.\Generated_Source\PSoC5/USBFS_std.c ****                 }
 118:.\Generated_Source\PSoC5/USBFS_std.c ****                 else if (USBFS_DESCR_CONFIG == USBFS_wValueHiReg)
 119:.\Generated_Source\PSoC5/USBFS_std.c ****                 {
 120:.\Generated_Source\PSoC5/USBFS_std.c ****                     pTmp = USBFS_GetConfigTablePtr((uint8) USBFS_wValueLoReg);
 121:.\Generated_Source\PSoC5/USBFS_std.c ****                     
 122:.\Generated_Source\PSoC5/USBFS_std.c ****                     /* Verify that requested descriptor exists */
 123:.\Generated_Source\PSoC5/USBFS_std.c ****                     if (pTmp != NULL)
 124:.\Generated_Source\PSoC5/USBFS_std.c ****                     {
 125:.\Generated_Source\PSoC5/USBFS_std.c ****                         USBFS_currentTD.pData = (volatile uint8 *)pTmp->p_list;
 126:.\Generated_Source\PSoC5/USBFS_std.c ****                         USBFS_currentTD.count = (uint16)((uint16)(USBFS_currentTD.pData)[USBFS_CONF
 127:.\Generated_Source\PSoC5/USBFS_std.c ****                                                                             (USBFS_currentTD.pData)
 128:.\Generated_Source\PSoC5/USBFS_std.c ****                         requestHandled  = USBFS_InitControlRead();
 129:.\Generated_Source\PSoC5/USBFS_std.c ****                     }
 130:.\Generated_Source\PSoC5/USBFS_std.c ****                 }
 131:.\Generated_Source\PSoC5/USBFS_std.c ****                 
 132:.\Generated_Source\PSoC5/USBFS_std.c ****             #if(USBFS_BOS_ENABLE)
 133:.\Generated_Source\PSoC5/USBFS_std.c ****                 else if (USBFS_DESCR_BOS == USBFS_wValueHiReg)
 134:.\Generated_Source\PSoC5/USBFS_std.c ****                 {
 135:.\Generated_Source\PSoC5/USBFS_std.c ****                     pTmp = USBFS_GetBOSPtr();
 136:.\Generated_Source\PSoC5/USBFS_std.c ****                     
 137:.\Generated_Source\PSoC5/USBFS_std.c ****                     /* Verify that requested descriptor exists */
 138:.\Generated_Source\PSoC5/USBFS_std.c ****                     if (pTmp != NULL)
 139:.\Generated_Source\PSoC5/USBFS_std.c ****                     {
 140:.\Generated_Source\PSoC5/USBFS_std.c ****                         USBFS_currentTD.pData = (volatile uint8 *)pTmp;
 141:.\Generated_Source\PSoC5/USBFS_std.c ****                         USBFS_currentTD.count = ((uint16)((uint16)(USBFS_currentTD.pData)[USBFS_BOS
 142:.\Generated_Source\PSoC5/USBFS_std.c ****                                                                              (USBFS_currentTD.pData
 143:.\Generated_Source\PSoC5/USBFS_std.c ****                         requestHandled  = USBFS_InitControlRead();
 144:.\Generated_Source\PSoC5/USBFS_std.c ****                     }
 145:.\Generated_Source\PSoC5/USBFS_std.c ****                 }
ARM GAS  C:\Users\LAIR\AppData\Local\Temp\cc5n6lZj.s 			page 4


 146:.\Generated_Source\PSoC5/USBFS_std.c ****             #endif /*(USBFS_BOS_ENABLE)*/
 147:.\Generated_Source\PSoC5/USBFS_std.c ****             
 148:.\Generated_Source\PSoC5/USBFS_std.c ****             #if defined(USBFS_ENABLE_STRINGS)
 149:.\Generated_Source\PSoC5/USBFS_std.c ****                 else if (USBFS_DESCR_STRING == USBFS_wValueHiReg)
 150:.\Generated_Source\PSoC5/USBFS_std.c ****                 {
 151:.\Generated_Source\PSoC5/USBFS_std.c ****                 /* Descriptor Strings */
 152:.\Generated_Source\PSoC5/USBFS_std.c ****                 #if defined(USBFS_ENABLE_DESCRIPTOR_STRINGS)
 153:.\Generated_Source\PSoC5/USBFS_std.c ****                     nStr = 0u;
 154:.\Generated_Source\PSoC5/USBFS_std.c ****                     pStr = (volatile uint8 *) &USBFS_STRING_DESCRIPTORS[0u];
 155:.\Generated_Source\PSoC5/USBFS_std.c ****                     
 156:.\Generated_Source\PSoC5/USBFS_std.c ****                     while ((USBFS_wValueLoReg > nStr) && (*pStr != 0u))
 157:.\Generated_Source\PSoC5/USBFS_std.c ****                     {
 158:.\Generated_Source\PSoC5/USBFS_std.c ****                         /* Read descriptor length from 1st byte */
 159:.\Generated_Source\PSoC5/USBFS_std.c ****                         descrLength = *pStr;
 160:.\Generated_Source\PSoC5/USBFS_std.c ****                         /* Move to next string descriptor */
 161:.\Generated_Source\PSoC5/USBFS_std.c ****                         pStr = &pStr[descrLength];
 162:.\Generated_Source\PSoC5/USBFS_std.c ****                         nStr++;
 163:.\Generated_Source\PSoC5/USBFS_std.c ****                     }
 164:.\Generated_Source\PSoC5/USBFS_std.c ****                 #endif /* (USBFS_ENABLE_DESCRIPTOR_STRINGS) */
 165:.\Generated_Source\PSoC5/USBFS_std.c ****                 
 166:.\Generated_Source\PSoC5/USBFS_std.c ****                 /* Microsoft OS String */
 167:.\Generated_Source\PSoC5/USBFS_std.c ****                 #if defined(USBFS_ENABLE_MSOS_STRING)
 168:.\Generated_Source\PSoC5/USBFS_std.c ****                     if (USBFS_STRING_MSOS == USBFS_wValueLoReg)
 169:.\Generated_Source\PSoC5/USBFS_std.c ****                     {
 170:.\Generated_Source\PSoC5/USBFS_std.c ****                         pStr = (volatile uint8 *)& USBFS_MSOS_DESCRIPTOR[0u];
 171:.\Generated_Source\PSoC5/USBFS_std.c ****                     }
 172:.\Generated_Source\PSoC5/USBFS_std.c ****                 #endif /* (USBFS_ENABLE_MSOS_STRING) */
 173:.\Generated_Source\PSoC5/USBFS_std.c ****                 
 174:.\Generated_Source\PSoC5/USBFS_std.c ****                 /* SN string */
 175:.\Generated_Source\PSoC5/USBFS_std.c ****                 #if defined(USBFS_ENABLE_SN_STRING)
 176:.\Generated_Source\PSoC5/USBFS_std.c ****                     if ((USBFS_wValueLoReg != 0u) && 
 177:.\Generated_Source\PSoC5/USBFS_std.c ****                         (USBFS_wValueLoReg == USBFS_DEVICE0_DESCR[USBFS_DEVICE_DESCR_SN_SHIFT]))
 178:.\Generated_Source\PSoC5/USBFS_std.c ****                     {
 179:.\Generated_Source\PSoC5/USBFS_std.c ****                     #if defined(USBFS_ENABLE_IDSN_STRING)
 180:.\Generated_Source\PSoC5/USBFS_std.c ****                         /* Read DIE ID and generate string descriptor in RAM */
 181:.\Generated_Source\PSoC5/USBFS_std.c ****                         USBFS_ReadDieID(USBFS_idSerialNumberStringDescriptor);
 182:.\Generated_Source\PSoC5/USBFS_std.c ****                         pStr = USBFS_idSerialNumberStringDescriptor;
 183:.\Generated_Source\PSoC5/USBFS_std.c ****                     #elif defined(USBFS_ENABLE_FWSN_STRING)
 184:.\Generated_Source\PSoC5/USBFS_std.c ****                         
 185:.\Generated_Source\PSoC5/USBFS_std.c ****                         if(USBFS_snStringConfirm != USBFS_FALSE)
 186:.\Generated_Source\PSoC5/USBFS_std.c ****                         {
 187:.\Generated_Source\PSoC5/USBFS_std.c ****                             pStr = USBFS_fwSerialNumberStringDescriptor;
 188:.\Generated_Source\PSoC5/USBFS_std.c ****                         }
 189:.\Generated_Source\PSoC5/USBFS_std.c ****                         else
 190:.\Generated_Source\PSoC5/USBFS_std.c ****                         {
 191:.\Generated_Source\PSoC5/USBFS_std.c ****                             pStr = (volatile uint8 *)&USBFS_SN_STRING_DESCRIPTOR[0u];
 192:.\Generated_Source\PSoC5/USBFS_std.c ****                         }
 193:.\Generated_Source\PSoC5/USBFS_std.c ****                     #else
 194:.\Generated_Source\PSoC5/USBFS_std.c ****                         pStr = (volatile uint8 *)&USBFS_SN_STRING_DESCRIPTOR[0u];
 195:.\Generated_Source\PSoC5/USBFS_std.c ****                     #endif  /* (USBFS_ENABLE_IDSN_STRING) */
 196:.\Generated_Source\PSoC5/USBFS_std.c ****                     }
 197:.\Generated_Source\PSoC5/USBFS_std.c ****                 #endif /* (USBFS_ENABLE_SN_STRING) */
 198:.\Generated_Source\PSoC5/USBFS_std.c ****                 
 199:.\Generated_Source\PSoC5/USBFS_std.c ****                     if (*pStr != 0u)
 200:.\Generated_Source\PSoC5/USBFS_std.c ****                     {
 201:.\Generated_Source\PSoC5/USBFS_std.c ****                         USBFS_currentTD.count = *pStr;
 202:.\Generated_Source\PSoC5/USBFS_std.c ****                         USBFS_currentTD.pData = pStr;
ARM GAS  C:\Users\LAIR\AppData\Local\Temp\cc5n6lZj.s 			page 5


 203:.\Generated_Source\PSoC5/USBFS_std.c ****                         requestHandled  = USBFS_InitControlRead();
 204:.\Generated_Source\PSoC5/USBFS_std.c ****                     }
 205:.\Generated_Source\PSoC5/USBFS_std.c ****                 }
 206:.\Generated_Source\PSoC5/USBFS_std.c ****             #endif /*  USBFS_ENABLE_STRINGS */
 207:.\Generated_Source\PSoC5/USBFS_std.c ****                 else
 208:.\Generated_Source\PSoC5/USBFS_std.c ****                 {
 209:.\Generated_Source\PSoC5/USBFS_std.c ****                     requestHandled = USBFS_DispatchClassRqst();
 210:.\Generated_Source\PSoC5/USBFS_std.c ****                 }
 211:.\Generated_Source\PSoC5/USBFS_std.c ****                 break;
 212:.\Generated_Source\PSoC5/USBFS_std.c ****                 
 213:.\Generated_Source\PSoC5/USBFS_std.c ****             case USBFS_GET_STATUS:
 214:.\Generated_Source\PSoC5/USBFS_std.c ****                 switch (bmRequestType & USBFS_RQST_RCPT_MASK)
 215:.\Generated_Source\PSoC5/USBFS_std.c ****                 {
 216:.\Generated_Source\PSoC5/USBFS_std.c ****                     case USBFS_RQST_RCPT_EP:
 217:.\Generated_Source\PSoC5/USBFS_std.c ****                         USBFS_currentTD.count = USBFS_EP_STATUS_LENGTH;
 218:.\Generated_Source\PSoC5/USBFS_std.c ****                         USBFS_tBuffer[0u]     = USBFS_EP[USBFS_wIndexLoReg & USBFS_DIR_UNUSED].hwEp
 219:.\Generated_Source\PSoC5/USBFS_std.c ****                         USBFS_tBuffer[1u]     = 0u;
 220:.\Generated_Source\PSoC5/USBFS_std.c ****                         USBFS_currentTD.pData = &USBFS_tBuffer[0u];
 221:.\Generated_Source\PSoC5/USBFS_std.c ****                         
 222:.\Generated_Source\PSoC5/USBFS_std.c ****                         requestHandled  = USBFS_InitControlRead();
 223:.\Generated_Source\PSoC5/USBFS_std.c ****                         break;
 224:.\Generated_Source\PSoC5/USBFS_std.c ****                     case USBFS_RQST_RCPT_DEV:
 225:.\Generated_Source\PSoC5/USBFS_std.c ****                         USBFS_currentTD.count = USBFS_DEVICE_STATUS_LENGTH;
 226:.\Generated_Source\PSoC5/USBFS_std.c ****                         USBFS_tBuffer[0u]     = USBFS_deviceStatus;
 227:.\Generated_Source\PSoC5/USBFS_std.c ****                         USBFS_tBuffer[1u]     = 0u;
 228:.\Generated_Source\PSoC5/USBFS_std.c ****                         USBFS_currentTD.pData = &USBFS_tBuffer[0u];
 229:.\Generated_Source\PSoC5/USBFS_std.c ****                         
 230:.\Generated_Source\PSoC5/USBFS_std.c ****                         requestHandled  = USBFS_InitControlRead();
 231:.\Generated_Source\PSoC5/USBFS_std.c ****                         break;
 232:.\Generated_Source\PSoC5/USBFS_std.c ****                     default:    /* requestHandled is initialized as FALSE by default */
 233:.\Generated_Source\PSoC5/USBFS_std.c ****                         break;
 234:.\Generated_Source\PSoC5/USBFS_std.c ****                 }
 235:.\Generated_Source\PSoC5/USBFS_std.c ****                 break;
 236:.\Generated_Source\PSoC5/USBFS_std.c ****                 
 237:.\Generated_Source\PSoC5/USBFS_std.c ****             case USBFS_GET_CONFIGURATION:
 238:.\Generated_Source\PSoC5/USBFS_std.c ****                 USBFS_currentTD.count = 1u;
 239:.\Generated_Source\PSoC5/USBFS_std.c ****                 USBFS_currentTD.pData = (volatile uint8 *) &USBFS_configuration;
 240:.\Generated_Source\PSoC5/USBFS_std.c ****                 requestHandled  = USBFS_InitControlRead();
 241:.\Generated_Source\PSoC5/USBFS_std.c ****                 break;
 242:.\Generated_Source\PSoC5/USBFS_std.c ****                 
 243:.\Generated_Source\PSoC5/USBFS_std.c ****             case USBFS_GET_INTERFACE:
 244:.\Generated_Source\PSoC5/USBFS_std.c ****                 USBFS_currentTD.count = 1u;
 245:.\Generated_Source\PSoC5/USBFS_std.c ****                 USBFS_currentTD.pData = (volatile uint8 *) &USBFS_interfaceSetting[USBFS_wIndexLoRe
 246:.\Generated_Source\PSoC5/USBFS_std.c ****                 requestHandled  = USBFS_InitControlRead();
 247:.\Generated_Source\PSoC5/USBFS_std.c ****                 break;
 248:.\Generated_Source\PSoC5/USBFS_std.c ****                 
 249:.\Generated_Source\PSoC5/USBFS_std.c ****             default: /* requestHandled is initialized as FALSE by default */
 250:.\Generated_Source\PSoC5/USBFS_std.c ****                 break;
 251:.\Generated_Source\PSoC5/USBFS_std.c ****         }
 252:.\Generated_Source\PSoC5/USBFS_std.c ****     }
 253:.\Generated_Source\PSoC5/USBFS_std.c ****     else
 254:.\Generated_Source\PSoC5/USBFS_std.c ****     {
 255:.\Generated_Source\PSoC5/USBFS_std.c ****         /* Control Write */
 256:.\Generated_Source\PSoC5/USBFS_std.c ****         switch (USBFS_bRequestReg)
 257:.\Generated_Source\PSoC5/USBFS_std.c ****         {
 258:.\Generated_Source\PSoC5/USBFS_std.c ****             case USBFS_SET_ADDRESS:
 259:.\Generated_Source\PSoC5/USBFS_std.c ****                 /* Store address to be set in USBFS_NoDataControlStatusStage(). */
ARM GAS  C:\Users\LAIR\AppData\Local\Temp\cc5n6lZj.s 			page 6


 260:.\Generated_Source\PSoC5/USBFS_std.c ****                 USBFS_deviceAddress = (uint8) USBFS_wValueLoReg;
 261:.\Generated_Source\PSoC5/USBFS_std.c ****                 requestHandled = USBFS_InitNoDataControlTransfer();
 262:.\Generated_Source\PSoC5/USBFS_std.c ****                 break;
 263:.\Generated_Source\PSoC5/USBFS_std.c ****                 
 264:.\Generated_Source\PSoC5/USBFS_std.c ****             case USBFS_SET_CONFIGURATION:
 265:.\Generated_Source\PSoC5/USBFS_std.c ****                 configurationN = USBFS_wValueLoReg;
 266:.\Generated_Source\PSoC5/USBFS_std.c ****                 
 267:.\Generated_Source\PSoC5/USBFS_std.c ****                 /* Verify that configuration descriptor exists */
 268:.\Generated_Source\PSoC5/USBFS_std.c ****                 if(configurationN > 0u)
 269:.\Generated_Source\PSoC5/USBFS_std.c ****                 {
 270:.\Generated_Source\PSoC5/USBFS_std.c ****                     pTmp = USBFS_GetConfigTablePtr((uint8) configurationN - 1u);
 271:.\Generated_Source\PSoC5/USBFS_std.c ****                 }
 272:.\Generated_Source\PSoC5/USBFS_std.c ****                 
 273:.\Generated_Source\PSoC5/USBFS_std.c ****                 /* Responds with a Request Error when configuration number is invalid */
 274:.\Generated_Source\PSoC5/USBFS_std.c ****                 if (((configurationN > 0u) && (pTmp != NULL)) || (configurationN == 0u))
 275:.\Generated_Source\PSoC5/USBFS_std.c ****                 {
 276:.\Generated_Source\PSoC5/USBFS_std.c ****                     /* Set new configuration if it has been changed */
 277:.\Generated_Source\PSoC5/USBFS_std.c ****                     if(configurationN != USBFS_configuration)
 278:.\Generated_Source\PSoC5/USBFS_std.c ****                     {
 279:.\Generated_Source\PSoC5/USBFS_std.c ****                         USBFS_configuration = (uint8) configurationN;
 280:.\Generated_Source\PSoC5/USBFS_std.c ****                         USBFS_configurationChanged = USBFS_TRUE;
 281:.\Generated_Source\PSoC5/USBFS_std.c ****                         USBFS_Config(USBFS_TRUE);
 282:.\Generated_Source\PSoC5/USBFS_std.c ****                     }
 283:.\Generated_Source\PSoC5/USBFS_std.c ****                     requestHandled = USBFS_InitNoDataControlTransfer();
 284:.\Generated_Source\PSoC5/USBFS_std.c ****                 }
 285:.\Generated_Source\PSoC5/USBFS_std.c ****                 break;
 286:.\Generated_Source\PSoC5/USBFS_std.c ****                 
 287:.\Generated_Source\PSoC5/USBFS_std.c ****             case USBFS_SET_INTERFACE:
 288:.\Generated_Source\PSoC5/USBFS_std.c ****                 if (0u != USBFS_ValidateAlternateSetting())
 289:.\Generated_Source\PSoC5/USBFS_std.c ****                 {
 290:.\Generated_Source\PSoC5/USBFS_std.c ****                     /* Get interface number from the request. */
 291:.\Generated_Source\PSoC5/USBFS_std.c ****                     interfaceNumber = USBFS_wIndexLoReg;
 292:.\Generated_Source\PSoC5/USBFS_std.c ****                     USBFS_interfaceNumber = (uint8) USBFS_wIndexLoReg;
 293:.\Generated_Source\PSoC5/USBFS_std.c ****                      
 294:.\Generated_Source\PSoC5/USBFS_std.c ****                     /* Check if alternate settings is changed for interface. */
 295:.\Generated_Source\PSoC5/USBFS_std.c ****                     if (USBFS_interfaceSettingLast[interfaceNumber] != USBFS_interfaceSetting[inter
 296:.\Generated_Source\PSoC5/USBFS_std.c ****                     {
 297:.\Generated_Source\PSoC5/USBFS_std.c ****                         USBFS_configurationChanged = USBFS_TRUE;
 298:.\Generated_Source\PSoC5/USBFS_std.c ****                     
 299:.\Generated_Source\PSoC5/USBFS_std.c ****                         /* Change alternate setting for the endpoints. */
 300:.\Generated_Source\PSoC5/USBFS_std.c ****                     #if (USBFS_EP_MANAGEMENT_MANUAL && USBFS_EP_ALLOC_DYNAMIC)
 301:.\Generated_Source\PSoC5/USBFS_std.c ****                         USBFS_Config(USBFS_FALSE);
 302:.\Generated_Source\PSoC5/USBFS_std.c ****                     #else
 303:.\Generated_Source\PSoC5/USBFS_std.c ****                         USBFS_ConfigAltChanged();
 304:.\Generated_Source\PSoC5/USBFS_std.c ****                     #endif /* (USBFS_EP_MANAGEMENT_MANUAL && USBFS_EP_ALLOC_DYNAMIC) */
 305:.\Generated_Source\PSoC5/USBFS_std.c ****                     }
 306:.\Generated_Source\PSoC5/USBFS_std.c ****                     
 307:.\Generated_Source\PSoC5/USBFS_std.c ****                     requestHandled = USBFS_InitNoDataControlTransfer();
 308:.\Generated_Source\PSoC5/USBFS_std.c ****                 }
 309:.\Generated_Source\PSoC5/USBFS_std.c ****                 break;
 310:.\Generated_Source\PSoC5/USBFS_std.c ****                 
 311:.\Generated_Source\PSoC5/USBFS_std.c ****             case USBFS_CLEAR_FEATURE:
 312:.\Generated_Source\PSoC5/USBFS_std.c ****                 switch (bmRequestType & USBFS_RQST_RCPT_MASK)
 313:.\Generated_Source\PSoC5/USBFS_std.c ****                 {
 314:.\Generated_Source\PSoC5/USBFS_std.c ****                     case USBFS_RQST_RCPT_EP:
 315:.\Generated_Source\PSoC5/USBFS_std.c ****                         if (USBFS_wValueLoReg == USBFS_ENDPOINT_HALT)
 316:.\Generated_Source\PSoC5/USBFS_std.c ****                         {
ARM GAS  C:\Users\LAIR\AppData\Local\Temp\cc5n6lZj.s 			page 7


 317:.\Generated_Source\PSoC5/USBFS_std.c ****                             requestHandled = USBFS_ClearEndpointHalt();
 318:.\Generated_Source\PSoC5/USBFS_std.c ****                         }
 319:.\Generated_Source\PSoC5/USBFS_std.c ****                         break;
 320:.\Generated_Source\PSoC5/USBFS_std.c ****                     case USBFS_RQST_RCPT_DEV:
 321:.\Generated_Source\PSoC5/USBFS_std.c ****                         /* Clear device REMOTE_WAKEUP */
 322:.\Generated_Source\PSoC5/USBFS_std.c ****                         if (USBFS_wValueLoReg == USBFS_DEVICE_REMOTE_WAKEUP)
 323:.\Generated_Source\PSoC5/USBFS_std.c ****                         {
 324:.\Generated_Source\PSoC5/USBFS_std.c ****                             USBFS_deviceStatus &= (uint8)~USBFS_DEVICE_STATUS_REMOTE_WAKEUP;
 325:.\Generated_Source\PSoC5/USBFS_std.c ****                             requestHandled = USBFS_InitNoDataControlTransfer();
 326:.\Generated_Source\PSoC5/USBFS_std.c ****                         }
 327:.\Generated_Source\PSoC5/USBFS_std.c ****                         break;
 328:.\Generated_Source\PSoC5/USBFS_std.c ****                     case USBFS_RQST_RCPT_IFC:
 329:.\Generated_Source\PSoC5/USBFS_std.c ****                         /* Validate interfaceNumber */
 330:.\Generated_Source\PSoC5/USBFS_std.c ****                         if (USBFS_wIndexLoReg < USBFS_MAX_INTERFACES_NUMBER)
 331:.\Generated_Source\PSoC5/USBFS_std.c ****                         {
 332:.\Generated_Source\PSoC5/USBFS_std.c ****                             USBFS_interfaceStatus[USBFS_wIndexLoReg] &= (uint8) ~USBFS_wValueLoReg;
 333:.\Generated_Source\PSoC5/USBFS_std.c ****                             requestHandled = USBFS_InitNoDataControlTransfer();
 334:.\Generated_Source\PSoC5/USBFS_std.c ****                         }
 335:.\Generated_Source\PSoC5/USBFS_std.c ****                         break;
 336:.\Generated_Source\PSoC5/USBFS_std.c ****                     default:    /* requestHandled is initialized as FALSE by default */
 337:.\Generated_Source\PSoC5/USBFS_std.c ****                         break;
 338:.\Generated_Source\PSoC5/USBFS_std.c ****                 }
 339:.\Generated_Source\PSoC5/USBFS_std.c ****                 break;
 340:.\Generated_Source\PSoC5/USBFS_std.c ****                 
 341:.\Generated_Source\PSoC5/USBFS_std.c ****             case USBFS_SET_FEATURE:
 342:.\Generated_Source\PSoC5/USBFS_std.c ****                 switch (bmRequestType & USBFS_RQST_RCPT_MASK)
 343:.\Generated_Source\PSoC5/USBFS_std.c ****                 {
 344:.\Generated_Source\PSoC5/USBFS_std.c ****                     case USBFS_RQST_RCPT_EP:
 345:.\Generated_Source\PSoC5/USBFS_std.c ****                         if (USBFS_wValueLoReg == USBFS_ENDPOINT_HALT)
 346:.\Generated_Source\PSoC5/USBFS_std.c ****                         {
 347:.\Generated_Source\PSoC5/USBFS_std.c ****                             requestHandled = USBFS_SetEndpointHalt();
 348:.\Generated_Source\PSoC5/USBFS_std.c ****                         }
 349:.\Generated_Source\PSoC5/USBFS_std.c ****                         break;
 350:.\Generated_Source\PSoC5/USBFS_std.c ****                         
 351:.\Generated_Source\PSoC5/USBFS_std.c ****                     case USBFS_RQST_RCPT_DEV:
 352:.\Generated_Source\PSoC5/USBFS_std.c ****                         /* Set device REMOTE_WAKEUP */
 353:.\Generated_Source\PSoC5/USBFS_std.c ****                         if (USBFS_wValueLoReg == USBFS_DEVICE_REMOTE_WAKEUP)
 354:.\Generated_Source\PSoC5/USBFS_std.c ****                         {
 355:.\Generated_Source\PSoC5/USBFS_std.c ****                             USBFS_deviceStatus |= USBFS_DEVICE_STATUS_REMOTE_WAKEUP;
 356:.\Generated_Source\PSoC5/USBFS_std.c ****                             requestHandled = USBFS_InitNoDataControlTransfer();
 357:.\Generated_Source\PSoC5/USBFS_std.c ****                         }
 358:.\Generated_Source\PSoC5/USBFS_std.c ****                         break;
 359:.\Generated_Source\PSoC5/USBFS_std.c ****                         
 360:.\Generated_Source\PSoC5/USBFS_std.c ****                     case USBFS_RQST_RCPT_IFC:
 361:.\Generated_Source\PSoC5/USBFS_std.c ****                         /* Validate interfaceNumber */
 362:.\Generated_Source\PSoC5/USBFS_std.c ****                         if (USBFS_wIndexLoReg < USBFS_MAX_INTERFACES_NUMBER)
 363:.\Generated_Source\PSoC5/USBFS_std.c ****                         {
 364:.\Generated_Source\PSoC5/USBFS_std.c ****                             USBFS_interfaceStatus[USBFS_wIndexLoReg] &= (uint8) ~USBFS_wValueLoReg;
 365:.\Generated_Source\PSoC5/USBFS_std.c ****                             requestHandled = USBFS_InitNoDataControlTransfer();
 366:.\Generated_Source\PSoC5/USBFS_std.c ****                         }
 367:.\Generated_Source\PSoC5/USBFS_std.c ****                         break;
 368:.\Generated_Source\PSoC5/USBFS_std.c ****                     
 369:.\Generated_Source\PSoC5/USBFS_std.c ****                     default:    /* requestHandled is initialized as FALSE by default */
 370:.\Generated_Source\PSoC5/USBFS_std.c ****                         break;
 371:.\Generated_Source\PSoC5/USBFS_std.c ****                 }
 372:.\Generated_Source\PSoC5/USBFS_std.c ****                 break;
 373:.\Generated_Source\PSoC5/USBFS_std.c ****                 
ARM GAS  C:\Users\LAIR\AppData\Local\Temp\cc5n6lZj.s 			page 8


 374:.\Generated_Source\PSoC5/USBFS_std.c ****             default:    /* requestHandled is initialized as FALSE by default */
 375:.\Generated_Source\PSoC5/USBFS_std.c ****                 break;
 376:.\Generated_Source\PSoC5/USBFS_std.c ****         }
 377:.\Generated_Source\PSoC5/USBFS_std.c ****     }
 378:.\Generated_Source\PSoC5/USBFS_std.c ****     
 379:.\Generated_Source\PSoC5/USBFS_std.c ****     return (requestHandled);
 380:.\Generated_Source\PSoC5/USBFS_std.c **** }
 381:.\Generated_Source\PSoC5/USBFS_std.c **** 
 382:.\Generated_Source\PSoC5/USBFS_std.c **** 
 383:.\Generated_Source\PSoC5/USBFS_std.c **** #if defined(USBFS_ENABLE_IDSN_STRING)
 384:.\Generated_Source\PSoC5/USBFS_std.c ****     /***************************************************************************
 385:.\Generated_Source\PSoC5/USBFS_std.c ****     * Function Name: USBFS_ReadDieID
 386:.\Generated_Source\PSoC5/USBFS_std.c ****     ************************************************************************//**
 387:.\Generated_Source\PSoC5/USBFS_std.c ****     *
 388:.\Generated_Source\PSoC5/USBFS_std.c ****     *  This routine read Die ID and generate Serial Number string descriptor.
 389:.\Generated_Source\PSoC5/USBFS_std.c ****     *
 390:.\Generated_Source\PSoC5/USBFS_std.c ****     *  \param descr:  pointer on string descriptor. This string size has to be equal or
 391:.\Generated_Source\PSoC5/USBFS_std.c ****     *          greater than USBFS_IDSN_DESCR_LENGTH.
 392:.\Generated_Source\PSoC5/USBFS_std.c ****     *
 393:.\Generated_Source\PSoC5/USBFS_std.c ****     *
 394:.\Generated_Source\PSoC5/USBFS_std.c ****     * \reentrant
 395:.\Generated_Source\PSoC5/USBFS_std.c ****     *  No.
 396:.\Generated_Source\PSoC5/USBFS_std.c ****     *
 397:.\Generated_Source\PSoC5/USBFS_std.c ****     ***************************************************************************/
 398:.\Generated_Source\PSoC5/USBFS_std.c ****     void USBFS_ReadDieID(uint8 descr[]) 
 399:.\Generated_Source\PSoC5/USBFS_std.c ****     {
  27              		.loc 1 399 0
  28              		.cfi_startproc
  29              		@ args = 0, pretend = 0, frame = 32
  30              		@ frame_needed = 0, uses_anonymous_args = 0
  31              	.LVL0:
  32 0000 70B5     		push	{r4, r5, r6, lr}
  33              		.cfi_def_cfa_offset 16
  34              		.cfi_offset 4, -16
  35              		.cfi_offset 5, -12
  36              		.cfi_offset 6, -8
  37              		.cfi_offset 14, -4
  38 0002 88B0     		sub	sp, sp, #32
  39              		.cfi_def_cfa_offset 48
  40 0004 0546     		mov	r5, r0
 400:.\Generated_Source\PSoC5/USBFS_std.c ****         const char8 CYCODE hex[] = "0123456789ABCDEF";
  41              		.loc 1 400 0
  42 0006 03AC     		add	r4, sp, #12
  43 0008 174E     		ldr	r6, .L6
  44 000a 0FCE     		ldmia	r6!, {r0, r1, r2, r3}
  45              	.LVL1:
  46 000c 0FC4     		stmia	r4!, {r0, r1, r2, r3}
  47 000e 3368     		ldr	r3, [r6]
  48 0010 2370     		strb	r3, [r4]
  49              	.LVL2:
 401:.\Generated_Source\PSoC5/USBFS_std.c ****         uint8 i;
 402:.\Generated_Source\PSoC5/USBFS_std.c ****         uint8 j = 0u;
 403:.\Generated_Source\PSoC5/USBFS_std.c ****         uint8 uniqueId[8u];
 404:.\Generated_Source\PSoC5/USBFS_std.c **** 
 405:.\Generated_Source\PSoC5/USBFS_std.c ****         if (NULL != descr)
  50              		.loc 1 405 0
  51 0012 35B3     		cbz	r5, .L1
ARM GAS  C:\Users\LAIR\AppData\Local\Temp\cc5n6lZj.s 			page 9


 406:.\Generated_Source\PSoC5/USBFS_std.c ****         {
 407:.\Generated_Source\PSoC5/USBFS_std.c ****             /* Initialize descriptor header. */
 408:.\Generated_Source\PSoC5/USBFS_std.c ****             descr[0u] = USBFS_IDSN_DESCR_LENGTH;
  52              		.loc 1 408 0
  53 0014 2223     		movs	r3, #34
  54 0016 2B70     		strb	r3, [r5]
 409:.\Generated_Source\PSoC5/USBFS_std.c ****             descr[1u] = USBFS_DESCR_STRING;
  55              		.loc 1 409 0
  56 0018 0323     		movs	r3, #3
  57 001a 6B70     		strb	r3, [r5, #1]
 410:.\Generated_Source\PSoC5/USBFS_std.c ****             
 411:.\Generated_Source\PSoC5/USBFS_std.c ****             /* Unique ID size is 8 bytes. */
 412:.\Generated_Source\PSoC5/USBFS_std.c ****             CyGetUniqueId((uint32 *) uniqueId);
  58              		.loc 1 412 0
  59 001c 01A8     		add	r0, sp, #4
  60 001e FFF7FEFF 		bl	CyGetUniqueId
  61              	.LVL3:
 402:.\Generated_Source\PSoC5/USBFS_std.c ****         uint8 uniqueId[8u];
  62              		.loc 1 402 0
  63 0022 0024     		movs	r4, #0
 413:.\Generated_Source\PSoC5/USBFS_std.c **** 
 414:.\Generated_Source\PSoC5/USBFS_std.c ****             /* Fill descriptor with unique device ID. */
 415:.\Generated_Source\PSoC5/USBFS_std.c ****             for (i = 2u; i < USBFS_IDSN_DESCR_LENGTH; i += 4u)
  64              		.loc 1 415 0
  65 0024 0223     		movs	r3, #2
  66 0026 1AE0     		b	.L3
  67              	.LVL4:
  68              	.L4:
 416:.\Generated_Source\PSoC5/USBFS_std.c ****             {
 417:.\Generated_Source\PSoC5/USBFS_std.c ****                 descr[i]      = (uint8) hex[(uniqueId[j] >> 4u)];
  69              		.loc 1 417 0 discriminator 3
  70 0028 08AA     		add	r2, sp, #32
  71 002a 2244     		add	r2, r2, r4
  72 002c 12F81C2C 		ldrb	r2, [r2, #-28]	@ zero_extendqisi2
  73 0030 08A9     		add	r1, sp, #32
  74 0032 01EB1211 		add	r1, r1, r2, lsr #4
  75 0036 11F8141C 		ldrb	r1, [r1, #-20]	@ zero_extendqisi2
  76 003a E954     		strb	r1, [r5, r3]
 418:.\Generated_Source\PSoC5/USBFS_std.c ****                 descr[i + 1u] = 0u;
  77              		.loc 1 418 0 discriminator 3
  78 003c 581C     		adds	r0, r3, #1
  79 003e 0021     		movs	r1, #0
  80 0040 2954     		strb	r1, [r5, r0]
 419:.\Generated_Source\PSoC5/USBFS_std.c ****                 descr[i + 2u] = (uint8) hex[(uniqueId[j] & 0x0Fu)];
  81              		.loc 1 419 0 discriminator 3
  82 0042 981C     		adds	r0, r3, #2
  83 0044 02F00F02 		and	r2, r2, #15
  84 0048 08AE     		add	r6, sp, #32
  85 004a 3244     		add	r2, r2, r6
  86 004c 12F8142C 		ldrb	r2, [r2, #-20]	@ zero_extendqisi2
  87 0050 2A54     		strb	r2, [r5, r0]
 420:.\Generated_Source\PSoC5/USBFS_std.c ****                 descr[i + 3u] = 0u;
  88              		.loc 1 420 0 discriminator 3
  89 0052 DA1C     		adds	r2, r3, #3
  90 0054 A954     		strb	r1, [r5, r2]
 421:.\Generated_Source\PSoC5/USBFS_std.c ****                 ++j;
  91              		.loc 1 421 0 discriminator 3
ARM GAS  C:\Users\LAIR\AppData\Local\Temp\cc5n6lZj.s 			page 10


  92 0056 0134     		adds	r4, r4, #1
  93              	.LVL5:
  94 0058 E4B2     		uxtb	r4, r4
  95              	.LVL6:
 415:.\Generated_Source\PSoC5/USBFS_std.c ****             {
  96              		.loc 1 415 0 discriminator 3
  97 005a 0433     		adds	r3, r3, #4
  98              	.LVL7:
  99 005c DBB2     		uxtb	r3, r3
 100              	.LVL8:
 101              	.L3:
 415:.\Generated_Source\PSoC5/USBFS_std.c ****             {
 102              		.loc 1 415 0 is_stmt 0 discriminator 1
 103 005e 212B     		cmp	r3, #33
 104 0060 E2D9     		bls	.L4
 105              	.LVL9:
 106              	.L1:
 422:.\Generated_Source\PSoC5/USBFS_std.c ****             }
 423:.\Generated_Source\PSoC5/USBFS_std.c ****         }
 424:.\Generated_Source\PSoC5/USBFS_std.c ****     }
 107              		.loc 1 424 0 is_stmt 1
 108 0062 08B0     		add	sp, sp, #32
 109              		.cfi_def_cfa_offset 16
 110              		@ sp needed
 111 0064 70BD     		pop	{r4, r5, r6, pc}
 112              	.LVL10:
 113              	.L7:
 114 0066 00BF     		.align	2
 115              	.L6:
 116 0068 00000000 		.word	.LC0
 117              		.cfi_endproc
 118              	.LFE1:
 119              		.size	USBFS_ReadDieID, .-USBFS_ReadDieID
 120              		.section	.text.USBFS_ConfigReg,"ax",%progbits
 121              		.align	2
 122              		.global	USBFS_ConfigReg
 123              		.thumb
 124              		.thumb_func
 125              		.type	USBFS_ConfigReg, %function
 126              	USBFS_ConfigReg:
 127              	.LFB2:
 425:.\Generated_Source\PSoC5/USBFS_std.c **** #endif /* (USBFS_ENABLE_IDSN_STRING) */
 426:.\Generated_Source\PSoC5/USBFS_std.c **** 
 427:.\Generated_Source\PSoC5/USBFS_std.c **** 
 428:.\Generated_Source\PSoC5/USBFS_std.c **** /*******************************************************************************
 429:.\Generated_Source\PSoC5/USBFS_std.c **** * Function Name: USBFS_ConfigReg
 430:.\Generated_Source\PSoC5/USBFS_std.c **** ****************************************************************************//**
 431:.\Generated_Source\PSoC5/USBFS_std.c **** *
 432:.\Generated_Source\PSoC5/USBFS_std.c **** *  This routine configures hardware registers from the variables.
 433:.\Generated_Source\PSoC5/USBFS_std.c **** *  It is called from USBFS_Config() function and from RestoreConfig
 434:.\Generated_Source\PSoC5/USBFS_std.c **** *  after Wakeup.
 435:.\Generated_Source\PSoC5/USBFS_std.c **** *
 436:.\Generated_Source\PSoC5/USBFS_std.c **** *******************************************************************************/
 437:.\Generated_Source\PSoC5/USBFS_std.c **** void USBFS_ConfigReg(void) 
 438:.\Generated_Source\PSoC5/USBFS_std.c **** {
 128              		.loc 1 438 0
 129              		.cfi_startproc
ARM GAS  C:\Users\LAIR\AppData\Local\Temp\cc5n6lZj.s 			page 11


 130              		@ args = 0, pretend = 0, frame = 0
 131              		@ frame_needed = 0, uses_anonymous_args = 0
 132              		@ link register save eliminated.
 133 0000 30B4     		push	{r4, r5}
 134              		.cfi_def_cfa_offset 8
 135              		.cfi_offset 4, -8
 136              		.cfi_offset 5, -4
 137              	.LVL11:
 439:.\Generated_Source\PSoC5/USBFS_std.c ****     uint8 ep;
 440:.\Generated_Source\PSoC5/USBFS_std.c **** 
 441:.\Generated_Source\PSoC5/USBFS_std.c **** #if (USBFS_EP_MANAGEMENT_DMA_AUTO)
 442:.\Generated_Source\PSoC5/USBFS_std.c ****     uint8 epType = 0u;
 443:.\Generated_Source\PSoC5/USBFS_std.c **** #endif /* (USBFS_EP_MANAGEMENT_DMA_AUTO) */
 444:.\Generated_Source\PSoC5/USBFS_std.c **** 
 445:.\Generated_Source\PSoC5/USBFS_std.c ****     /* Go thought all endpoints and set hardware configuration */
 446:.\Generated_Source\PSoC5/USBFS_std.c ****     for (ep = USBFS_EP1; ep < USBFS_MAX_EP; ++ep)
 138              		.loc 1 446 0
 139 0002 0122     		movs	r2, #1
 140 0004 40E0     		b	.L9
 141              	.LVL12:
 142              	.L13:
 447:.\Generated_Source\PSoC5/USBFS_std.c ****     {
 448:.\Generated_Source\PSoC5/USBFS_std.c ****         USBFS_ARB_EP_BASE.arbEp[ep].epCfg = USBFS_ARB_EPX_CFG_DEFAULT;
 143              		.loc 1 448 0
 144 0006 1146     		mov	r1, r2
 145 0008 2348     		ldr	r0, .L15
 146 000a 1301     		lsls	r3, r2, #4
 147 000c C418     		adds	r4, r0, r3
 148 000e 0C25     		movs	r5, #12
 149 0010 C554     		strb	r5, [r0, r3]
 449:.\Generated_Source\PSoC5/USBFS_std.c ****         
 450:.\Generated_Source\PSoC5/USBFS_std.c ****     #if (USBFS_EP_MANAGEMENT_DMA)
 451:.\Generated_Source\PSoC5/USBFS_std.c ****         /* Enable arbiter endpoint interrupt sources */
 452:.\Generated_Source\PSoC5/USBFS_std.c ****         USBFS_ARB_EP_BASE.arbEp[ep].epIntEn = USBFS_ARB_EPX_INT_MASK;
 150              		.loc 1 452 0
 151 0012 1F23     		movs	r3, #31
 152 0014 6370     		strb	r3, [r4, #1]
 453:.\Generated_Source\PSoC5/USBFS_std.c ****     #endif /* (USBFS_EP_MANAGEMENT_DMA) */
 454:.\Generated_Source\PSoC5/USBFS_std.c ****     
 455:.\Generated_Source\PSoC5/USBFS_std.c ****         if (USBFS_EP[ep].epMode != USBFS_MODE_DISABLE)
 153              		.loc 1 455 0
 154 0016 02EB4203 		add	r3, r2, r2, lsl #1
 155 001a 9B00     		lsls	r3, r3, #2
 156 001c 1F48     		ldr	r0, .L15+4
 157 001e 0344     		add	r3, r3, r0
 158 0020 5B79     		ldrb	r3, [r3, #5]	@ zero_extendqisi2
 159 0022 13F0FF0F 		tst	r3, #255
 160 0026 12D0     		beq	.L10
 456:.\Generated_Source\PSoC5/USBFS_std.c ****         {
 457:.\Generated_Source\PSoC5/USBFS_std.c ****             if (0u != (USBFS_EP[ep].addr & USBFS_DIR_IN))
 161              		.loc 1 457 0
 162 0028 02EB4203 		add	r3, r2, r2, lsl #1
 163 002c 9B00     		lsls	r3, r3, #2
 164 002e 0344     		add	r3, r3, r0
 165 0030 1B79     		ldrb	r3, [r3, #4]	@ zero_extendqisi2
 166 0032 13F0800F 		tst	r3, #128
 167 0036 04D0     		beq	.L11
ARM GAS  C:\Users\LAIR\AppData\Local\Temp\cc5n6lZj.s 			page 12


 458:.\Generated_Source\PSoC5/USBFS_std.c ****             {
 459:.\Generated_Source\PSoC5/USBFS_std.c ****                 USBFS_SIE_EP_BASE.sieEp[ep].epCr0 = USBFS_MODE_NAK_IN;
 168              		.loc 1 459 0
 169 0038 1001     		lsls	r0, r2, #4
 170 003a 194B     		ldr	r3, .L15+8
 171 003c 0344     		add	r3, r3, r0
 172 003e 9D70     		strb	r5, [r3, #2]
 173 0040 0AE0     		b	.L12
 174              	.L11:
 460:.\Generated_Source\PSoC5/USBFS_std.c ****                 
 461:.\Generated_Source\PSoC5/USBFS_std.c ****             #if (USBFS_EP_MANAGEMENT_DMA_AUTO && CY_PSOC4)
 462:.\Generated_Source\PSoC5/USBFS_std.c ****                 /* Clear DMA_TERMIN for IN endpoint. */
 463:.\Generated_Source\PSoC5/USBFS_std.c ****                 USBFS_ARB_EP_BASE.arbEp[ep].epIntEn &= (uint32) ~USBFS_ARB_EPX_INT_DMA_TERMIN;
 464:.\Generated_Source\PSoC5/USBFS_std.c ****             #endif /* (USBFS_EP_MANAGEMENT_DMA_AUTO && CY_PSOC4) */
 465:.\Generated_Source\PSoC5/USBFS_std.c ****             }
 466:.\Generated_Source\PSoC5/USBFS_std.c ****             else
 467:.\Generated_Source\PSoC5/USBFS_std.c ****             {
 468:.\Generated_Source\PSoC5/USBFS_std.c ****                 USBFS_SIE_EP_BASE.sieEp[ep].epCr0 = USBFS_MODE_NAK_OUT;
 175              		.loc 1 468 0
 176 0042 1001     		lsls	r0, r2, #4
 177 0044 164B     		ldr	r3, .L15+8
 178 0046 0344     		add	r3, r3, r0
 179 0048 0820     		movs	r0, #8
 180 004a 9870     		strb	r0, [r3, #2]
 181 004c 04E0     		b	.L12
 182              	.L10:
 469:.\Generated_Source\PSoC5/USBFS_std.c **** 
 470:.\Generated_Source\PSoC5/USBFS_std.c ****             #if (USBFS_EP_MANAGEMENT_DMA_AUTO)
 471:.\Generated_Source\PSoC5/USBFS_std.c ****                 /* (CY_PSOC4): DMA_TERMIN for OUT endpoint is set above. */
 472:.\Generated_Source\PSoC5/USBFS_std.c ****                 
 473:.\Generated_Source\PSoC5/USBFS_std.c ****                 /* Prepare endpoint type mask. */
 474:.\Generated_Source\PSoC5/USBFS_std.c ****                 epType |= (uint8) (0x01u << (ep - USBFS_EP1));
 475:.\Generated_Source\PSoC5/USBFS_std.c ****             #endif /* (USBFS_EP_MANAGEMENT_DMA_AUTO) */
 476:.\Generated_Source\PSoC5/USBFS_std.c ****             }
 477:.\Generated_Source\PSoC5/USBFS_std.c ****         }
 478:.\Generated_Source\PSoC5/USBFS_std.c ****         else
 479:.\Generated_Source\PSoC5/USBFS_std.c ****         {
 480:.\Generated_Source\PSoC5/USBFS_std.c ****             USBFS_SIE_EP_BASE.sieEp[ep].epCr0 = USBFS_MODE_STALL_DATA_EP;
 183              		.loc 1 480 0
 184 004e 1001     		lsls	r0, r2, #4
 185 0050 134B     		ldr	r3, .L15+8
 186 0052 0344     		add	r3, r3, r0
 187 0054 8020     		movs	r0, #128
 188 0056 9870     		strb	r0, [r3, #2]
 189              	.L12:
 481:.\Generated_Source\PSoC5/USBFS_std.c ****         }
 482:.\Generated_Source\PSoC5/USBFS_std.c ****         
 483:.\Generated_Source\PSoC5/USBFS_std.c ****     #if (!USBFS_EP_MANAGEMENT_DMA_AUTO)
 484:.\Generated_Source\PSoC5/USBFS_std.c ****         #if (CY_PSOC4)
 485:.\Generated_Source\PSoC5/USBFS_std.c ****             USBFS_ARB_EP16_BASE.arbEp[ep].rwRa16  = (uint32) USBFS_EP[ep].buffOffset;
 486:.\Generated_Source\PSoC5/USBFS_std.c ****             USBFS_ARB_EP16_BASE.arbEp[ep].rwWa16  = (uint32) USBFS_EP[ep].buffOffset;
 487:.\Generated_Source\PSoC5/USBFS_std.c ****         #else
 488:.\Generated_Source\PSoC5/USBFS_std.c ****             USBFS_ARB_EP_BASE.arbEp[ep].rwRa    = LO8(USBFS_EP[ep].buffOffset);
 190              		.loc 1 488 0 discriminator 2
 191 0058 4B00     		lsls	r3, r1, #1
 192 005a 0B44     		add	r3, r3, r1
 193 005c 9B00     		lsls	r3, r3, #2
ARM GAS  C:\Users\LAIR\AppData\Local\Temp\cc5n6lZj.s 			page 13


 194 005e 0F48     		ldr	r0, .L15+4
 195 0060 0344     		add	r3, r3, r0
 196 0062 DC88     		ldrh	r4, [r3, #6]
 197 0064 E4B2     		uxtb	r4, r4
 198 0066 0801     		lsls	r0, r1, #4
 199 0068 0B49     		ldr	r1, .L15
 200 006a 0144     		add	r1, r1, r0
 201 006c 8C71     		strb	r4, [r1, #6]
 489:.\Generated_Source\PSoC5/USBFS_std.c ****             USBFS_ARB_EP_BASE.arbEp[ep].rwRaMsb = HI8(USBFS_EP[ep].buffOffset);
 202              		.loc 1 489 0 discriminator 2
 203 006e D888     		ldrh	r0, [r3, #6]
 204 0070 C0F30720 		ubfx	r0, r0, #8, #8
 205 0074 C871     		strb	r0, [r1, #7]
 490:.\Generated_Source\PSoC5/USBFS_std.c ****             USBFS_ARB_EP_BASE.arbEp[ep].rwWa    = LO8(USBFS_EP[ep].buffOffset);
 206              		.loc 1 490 0 discriminator 2
 207 0076 D888     		ldrh	r0, [r3, #6]
 208 0078 C0B2     		uxtb	r0, r0
 209 007a 0871     		strb	r0, [r1, #4]
 491:.\Generated_Source\PSoC5/USBFS_std.c ****             USBFS_ARB_EP_BASE.arbEp[ep].rwWaMsb = HI8(USBFS_EP[ep].buffOffset);
 210              		.loc 1 491 0 discriminator 2
 211 007c DB88     		ldrh	r3, [r3, #6]
 212 007e C3F30723 		ubfx	r3, r3, #8, #8
 213 0082 4B71     		strb	r3, [r1, #5]
 446:.\Generated_Source\PSoC5/USBFS_std.c ****     {
 214              		.loc 1 446 0 discriminator 2
 215 0084 0132     		adds	r2, r2, #1
 216              	.LVL13:
 217 0086 D2B2     		uxtb	r2, r2
 218              	.LVL14:
 219              	.L9:
 446:.\Generated_Source\PSoC5/USBFS_std.c ****     {
 220              		.loc 1 446 0 is_stmt 0 discriminator 1
 221 0088 082A     		cmp	r2, #8
 222 008a BCD9     		bls	.L13
 492:.\Generated_Source\PSoC5/USBFS_std.c ****         #endif /* (CY_PSOC4) */
 493:.\Generated_Source\PSoC5/USBFS_std.c ****     #endif /* (!USBFS_EP_MANAGEMENT_DMA_AUTO) */
 494:.\Generated_Source\PSoC5/USBFS_std.c ****     }
 495:.\Generated_Source\PSoC5/USBFS_std.c **** 
 496:.\Generated_Source\PSoC5/USBFS_std.c **** #if (USBFS_EP_MANAGEMENT_DMA_AUTO)
 497:.\Generated_Source\PSoC5/USBFS_std.c ****      /* BUF_SIZE depend on DMA_THRESS value:0x55-32 bytes  0x44-16 bytes 0x33-8 bytes 0x22-4 bytes 
 498:.\Generated_Source\PSoC5/USBFS_std.c ****     USBFS_BUF_SIZE_REG = USBFS_DMA_BUF_SIZE;
 499:.\Generated_Source\PSoC5/USBFS_std.c **** 
 500:.\Generated_Source\PSoC5/USBFS_std.c ****     /* Configure DMA burst threshold */
 501:.\Generated_Source\PSoC5/USBFS_std.c **** #if (CY_PSOC4)
 502:.\Generated_Source\PSoC5/USBFS_std.c ****     USBFS_DMA_THRES16_REG   = USBFS_DMA_BYTES_PER_BURST;
 503:.\Generated_Source\PSoC5/USBFS_std.c **** #else
 504:.\Generated_Source\PSoC5/USBFS_std.c ****     USBFS_DMA_THRES_REG     = USBFS_DMA_BYTES_PER_BURST;
 505:.\Generated_Source\PSoC5/USBFS_std.c ****     USBFS_DMA_THRES_MSB_REG = 0u;
 506:.\Generated_Source\PSoC5/USBFS_std.c **** #endif /* (CY_PSOC4) */
 507:.\Generated_Source\PSoC5/USBFS_std.c ****     USBFS_EP_ACTIVE_REG = USBFS_DEFAULT_ARB_INT_EN;
 508:.\Generated_Source\PSoC5/USBFS_std.c ****     USBFS_EP_TYPE_REG   = epType;
 509:.\Generated_Source\PSoC5/USBFS_std.c ****     
 510:.\Generated_Source\PSoC5/USBFS_std.c ****     /* Cfg_cmp bit set to 1 once configuration is complete. */
 511:.\Generated_Source\PSoC5/USBFS_std.c ****     /* Lock arbiter configtuation */
 512:.\Generated_Source\PSoC5/USBFS_std.c ****     USBFS_ARB_CFG_REG |= (uint8)  USBFS_ARB_CFG_CFG_CMP;
 513:.\Generated_Source\PSoC5/USBFS_std.c ****     /* Cfg_cmp bit set to 0 during configuration of PFSUSB Registers. */
 514:.\Generated_Source\PSoC5/USBFS_std.c ****     USBFS_ARB_CFG_REG &= (uint8) ~USBFS_ARB_CFG_CFG_CMP;
ARM GAS  C:\Users\LAIR\AppData\Local\Temp\cc5n6lZj.s 			page 14


 515:.\Generated_Source\PSoC5/USBFS_std.c **** 
 516:.\Generated_Source\PSoC5/USBFS_std.c **** #endif /* (USBFS_EP_MANAGEMENT_DMA_AUTO) */
 517:.\Generated_Source\PSoC5/USBFS_std.c **** 
 518:.\Generated_Source\PSoC5/USBFS_std.c ****     /* Enable interrupt SIE interurpt source from EP0-EP1 */
 519:.\Generated_Source\PSoC5/USBFS_std.c ****     USBFS_SIE_EP_INT_EN_REG = (uint8) USBFS_DEFAULT_SIE_EP_INT_EN;
 223              		.loc 1 519 0 is_stmt 1
 224 008c FF22     		movs	r2, #255
 225              	.LVL15:
 226 008e 054B     		ldr	r3, .L15+12
 227 0090 1A70     		strb	r2, [r3]
 520:.\Generated_Source\PSoC5/USBFS_std.c **** }
 228              		.loc 1 520 0
 229 0092 30BC     		pop	{r4, r5}
 230              		.cfi_restore 5
 231              		.cfi_restore 4
 232              		.cfi_def_cfa_offset 0
 233 0094 7047     		bx	lr
 234              	.L16:
 235 0096 00BF     		.align	2
 236              	.L15:
 237 0098 70600040 		.word	1073766512
 238 009c 00000000 		.word	USBFS_EP
 239 00a0 FC5F0040 		.word	1073766396
 240 00a4 0A600040 		.word	1073766410
 241              		.cfi_endproc
 242              	.LFE2:
 243              		.size	USBFS_ConfigReg, .-USBFS_ConfigReg
 244              		.section	.text.USBFS_EpStateInit,"ax",%progbits
 245              		.align	2
 246              		.global	USBFS_EpStateInit
 247              		.thumb
 248              		.thumb_func
 249              		.type	USBFS_EpStateInit, %function
 250              	USBFS_EpStateInit:
 251              	.LFB3:
 521:.\Generated_Source\PSoC5/USBFS_std.c **** 
 522:.\Generated_Source\PSoC5/USBFS_std.c **** 
 523:.\Generated_Source\PSoC5/USBFS_std.c **** /*******************************************************************************
 524:.\Generated_Source\PSoC5/USBFS_std.c **** * Function Name: USBFS_EpStateInit
 525:.\Generated_Source\PSoC5/USBFS_std.c **** ****************************************************************************//**
 526:.\Generated_Source\PSoC5/USBFS_std.c **** *
 527:.\Generated_Source\PSoC5/USBFS_std.c **** *  This routine initialize state of Data end points based of its type: 
 528:.\Generated_Source\PSoC5/USBFS_std.c **** *   IN  - USBFS_IN_BUFFER_EMPTY (USBFS_EVENT_PENDING)
 529:.\Generated_Source\PSoC5/USBFS_std.c **** *   OUT - USBFS_OUT_BUFFER_EMPTY (USBFS_NO_EVENT_PENDING)
 530:.\Generated_Source\PSoC5/USBFS_std.c **** *
 531:.\Generated_Source\PSoC5/USBFS_std.c **** *******************************************************************************/
 532:.\Generated_Source\PSoC5/USBFS_std.c **** void USBFS_EpStateInit(void) 
 533:.\Generated_Source\PSoC5/USBFS_std.c **** {
 252              		.loc 1 533 0
 253              		.cfi_startproc
 254              		@ args = 0, pretend = 0, frame = 0
 255              		@ frame_needed = 0, uses_anonymous_args = 0
 256              		@ link register save eliminated.
 257              	.LVL16:
 534:.\Generated_Source\PSoC5/USBFS_std.c ****     uint8 i;
 535:.\Generated_Source\PSoC5/USBFS_std.c **** 
 536:.\Generated_Source\PSoC5/USBFS_std.c ****     for (i = USBFS_EP1; i < USBFS_MAX_EP; i++)
ARM GAS  C:\Users\LAIR\AppData\Local\Temp\cc5n6lZj.s 			page 15


 258              		.loc 1 536 0
 259 0000 0123     		movs	r3, #1
 260 0002 18E0     		b	.L18
 261              	.LVL17:
 262              	.L21:
 537:.\Generated_Source\PSoC5/USBFS_std.c ****     { 
 538:.\Generated_Source\PSoC5/USBFS_std.c ****         if (0u != (USBFS_EP[i].addr & USBFS_DIR_IN))
 263              		.loc 1 538 0
 264 0004 03EB4302 		add	r2, r3, r3, lsl #1
 265 0008 9200     		lsls	r2, r2, #2
 266 000a 0C49     		ldr	r1, .L22
 267 000c 0A44     		add	r2, r2, r1
 268 000e 1279     		ldrb	r2, [r2, #4]	@ zero_extendqisi2
 269 0010 12F0800F 		tst	r2, #128
 270 0014 06D0     		beq	.L19
 539:.\Generated_Source\PSoC5/USBFS_std.c ****         {
 540:.\Generated_Source\PSoC5/USBFS_std.c ****             /* IN Endpoint */
 541:.\Generated_Source\PSoC5/USBFS_std.c ****             USBFS_EP[i].apiEpState = USBFS_EVENT_PENDING;
 271              		.loc 1 541 0
 272 0016 03EB4302 		add	r2, r3, r3, lsl #1
 273 001a 9200     		lsls	r2, r2, #2
 274 001c 0A44     		add	r2, r2, r1
 275 001e 0121     		movs	r1, #1
 276 0020 5170     		strb	r1, [r2, #1]
 277 0022 06E0     		b	.L20
 278              	.L19:
 542:.\Generated_Source\PSoC5/USBFS_std.c ****         }
 543:.\Generated_Source\PSoC5/USBFS_std.c ****         else
 544:.\Generated_Source\PSoC5/USBFS_std.c ****         {
 545:.\Generated_Source\PSoC5/USBFS_std.c ****             /* OUT Endpoint */
 546:.\Generated_Source\PSoC5/USBFS_std.c ****             USBFS_EP[i].apiEpState = USBFS_NO_EVENT_PENDING;
 279              		.loc 1 546 0
 280 0024 03EB4302 		add	r2, r3, r3, lsl #1
 281 0028 9200     		lsls	r2, r2, #2
 282 002a 0449     		ldr	r1, .L22
 283 002c 0A44     		add	r2, r2, r1
 284 002e 0021     		movs	r1, #0
 285 0030 5170     		strb	r1, [r2, #1]
 286              	.L20:
 536:.\Generated_Source\PSoC5/USBFS_std.c ****     { 
 287              		.loc 1 536 0 discriminator 2
 288 0032 0133     		adds	r3, r3, #1
 289              	.LVL18:
 290 0034 DBB2     		uxtb	r3, r3
 291              	.LVL19:
 292              	.L18:
 536:.\Generated_Source\PSoC5/USBFS_std.c ****     { 
 293              		.loc 1 536 0 is_stmt 0 discriminator 1
 294 0036 082B     		cmp	r3, #8
 295 0038 E4D9     		bls	.L21
 547:.\Generated_Source\PSoC5/USBFS_std.c ****         }
 548:.\Generated_Source\PSoC5/USBFS_std.c ****     }
 549:.\Generated_Source\PSoC5/USBFS_std.c ****                     
 550:.\Generated_Source\PSoC5/USBFS_std.c **** }
 296              		.loc 1 550 0 is_stmt 1
 297 003a 7047     		bx	lr
 298              	.L23:
ARM GAS  C:\Users\LAIR\AppData\Local\Temp\cc5n6lZj.s 			page 16


 299              		.align	2
 300              	.L22:
 301 003c 00000000 		.word	USBFS_EP
 302              		.cfi_endproc
 303              	.LFE3:
 304              		.size	USBFS_EpStateInit, .-USBFS_EpStateInit
 305              		.section	.text.USBFS_GetConfigTablePtr,"ax",%progbits
 306              		.align	2
 307              		.global	USBFS_GetConfigTablePtr
 308              		.thumb
 309              		.thumb_func
 310              		.type	USBFS_GetConfigTablePtr, %function
 311              	USBFS_GetConfigTablePtr:
 312              	.LFB6:
 551:.\Generated_Source\PSoC5/USBFS_std.c **** 
 552:.\Generated_Source\PSoC5/USBFS_std.c **** 
 553:.\Generated_Source\PSoC5/USBFS_std.c **** /*******************************************************************************
 554:.\Generated_Source\PSoC5/USBFS_std.c **** * Function Name: USBFS_Config
 555:.\Generated_Source\PSoC5/USBFS_std.c **** ****************************************************************************//**
 556:.\Generated_Source\PSoC5/USBFS_std.c **** *
 557:.\Generated_Source\PSoC5/USBFS_std.c **** *  This routine configures endpoints for the entire configuration by scanning
 558:.\Generated_Source\PSoC5/USBFS_std.c **** *  the configuration descriptor.
 559:.\Generated_Source\PSoC5/USBFS_std.c **** *
 560:.\Generated_Source\PSoC5/USBFS_std.c **** *  \param clearAltSetting: It configures the bAlternateSetting 0 for each interface.
 561:.\Generated_Source\PSoC5/USBFS_std.c **** *
 562:.\Generated_Source\PSoC5/USBFS_std.c **** * USBFS_interfaceClass - Initialized class array for each interface.
 563:.\Generated_Source\PSoC5/USBFS_std.c **** *   It is used for handling Class specific requests depend on interface class.
 564:.\Generated_Source\PSoC5/USBFS_std.c **** *   Different classes in multiple Alternate settings does not supported.
 565:.\Generated_Source\PSoC5/USBFS_std.c **** *
 566:.\Generated_Source\PSoC5/USBFS_std.c **** * \reentrant
 567:.\Generated_Source\PSoC5/USBFS_std.c **** *  No.
 568:.\Generated_Source\PSoC5/USBFS_std.c **** *
 569:.\Generated_Source\PSoC5/USBFS_std.c **** *******************************************************************************/
 570:.\Generated_Source\PSoC5/USBFS_std.c **** void USBFS_Config(uint8 clearAltSetting) 
 571:.\Generated_Source\PSoC5/USBFS_std.c **** {
 572:.\Generated_Source\PSoC5/USBFS_std.c ****     uint8 ep;
 573:.\Generated_Source\PSoC5/USBFS_std.c ****     uint8 curEp;
 574:.\Generated_Source\PSoC5/USBFS_std.c ****     uint8 i;
 575:.\Generated_Source\PSoC5/USBFS_std.c ****     uint8 epType;
 576:.\Generated_Source\PSoC5/USBFS_std.c ****     const uint8 *pDescr;
 577:.\Generated_Source\PSoC5/USBFS_std.c ****     
 578:.\Generated_Source\PSoC5/USBFS_std.c ****     #if (!USBFS_EP_MANAGEMENT_DMA_AUTO)
 579:.\Generated_Source\PSoC5/USBFS_std.c ****         uint16 buffCount = 0u;
 580:.\Generated_Source\PSoC5/USBFS_std.c ****     #endif /* (!USBFS_EP_MANAGEMENT_DMA_AUTO) */
 581:.\Generated_Source\PSoC5/USBFS_std.c **** 
 582:.\Generated_Source\PSoC5/USBFS_std.c ****     const T_USBFS_LUT CYCODE *pTmp;
 583:.\Generated_Source\PSoC5/USBFS_std.c ****     const T_USBFS_EP_SETTINGS_BLOCK CYCODE *pEP;
 584:.\Generated_Source\PSoC5/USBFS_std.c **** 
 585:.\Generated_Source\PSoC5/USBFS_std.c ****     /* Clear endpoints settings */
 586:.\Generated_Source\PSoC5/USBFS_std.c ****     for (ep = 0u; ep < USBFS_MAX_EP; ++ep)
 587:.\Generated_Source\PSoC5/USBFS_std.c ****     {
 588:.\Generated_Source\PSoC5/USBFS_std.c ****         USBFS_EP[ep].attrib     = 0u;
 589:.\Generated_Source\PSoC5/USBFS_std.c ****         USBFS_EP[ep].hwEpState  = 0u;
 590:.\Generated_Source\PSoC5/USBFS_std.c ****         USBFS_EP[ep].epToggle   = 0u;
 591:.\Generated_Source\PSoC5/USBFS_std.c ****         USBFS_EP[ep].bufferSize = 0u;
 592:.\Generated_Source\PSoC5/USBFS_std.c ****         USBFS_EP[ep].interface  = 0u;
 593:.\Generated_Source\PSoC5/USBFS_std.c ****         USBFS_EP[ep].apiEpState = USBFS_NO_EVENT_PENDING;
ARM GAS  C:\Users\LAIR\AppData\Local\Temp\cc5n6lZj.s 			page 17


 594:.\Generated_Source\PSoC5/USBFS_std.c ****         USBFS_EP[ep].epMode     = USBFS_MODE_DISABLE;   
 595:.\Generated_Source\PSoC5/USBFS_std.c ****     }
 596:.\Generated_Source\PSoC5/USBFS_std.c **** 
 597:.\Generated_Source\PSoC5/USBFS_std.c ****     /* Clear Alternate settings for all interfaces. */
 598:.\Generated_Source\PSoC5/USBFS_std.c ****     if (0u != clearAltSetting)
 599:.\Generated_Source\PSoC5/USBFS_std.c ****     {
 600:.\Generated_Source\PSoC5/USBFS_std.c ****         for (i = 0u; i < USBFS_MAX_INTERFACES_NUMBER; ++i)
 601:.\Generated_Source\PSoC5/USBFS_std.c ****         {
 602:.\Generated_Source\PSoC5/USBFS_std.c ****             USBFS_interfaceSetting[i]     = 0u;
 603:.\Generated_Source\PSoC5/USBFS_std.c ****             USBFS_interfaceSettingLast[i] = 0u;
 604:.\Generated_Source\PSoC5/USBFS_std.c ****         }
 605:.\Generated_Source\PSoC5/USBFS_std.c ****     }
 606:.\Generated_Source\PSoC5/USBFS_std.c **** 
 607:.\Generated_Source\PSoC5/USBFS_std.c ****     /* Init Endpoints and Device Status if configured */
 608:.\Generated_Source\PSoC5/USBFS_std.c ****     if (USBFS_configuration > 0u)
 609:.\Generated_Source\PSoC5/USBFS_std.c ****     {
 610:.\Generated_Source\PSoC5/USBFS_std.c ****         #if defined(USBFS_ENABLE_CDC_CLASS)
 611:.\Generated_Source\PSoC5/USBFS_std.c ****             uint8 cdcComNums = 0u;
 612:.\Generated_Source\PSoC5/USBFS_std.c ****         #endif  /* (USBFS_ENABLE_CDC_CLASS) */  
 613:.\Generated_Source\PSoC5/USBFS_std.c **** 
 614:.\Generated_Source\PSoC5/USBFS_std.c ****         pTmp = USBFS_GetConfigTablePtr(USBFS_configuration - 1u);
 615:.\Generated_Source\PSoC5/USBFS_std.c ****         
 616:.\Generated_Source\PSoC5/USBFS_std.c ****         /* Set Power status for current configuration */
 617:.\Generated_Source\PSoC5/USBFS_std.c ****         pDescr = (const uint8 *)pTmp->p_list;
 618:.\Generated_Source\PSoC5/USBFS_std.c ****         if ((pDescr[USBFS_CONFIG_DESCR_ATTRIB] & USBFS_CONFIG_DESCR_ATTRIB_SELF_POWERED) != 0u)
 619:.\Generated_Source\PSoC5/USBFS_std.c ****         {
 620:.\Generated_Source\PSoC5/USBFS_std.c ****             USBFS_deviceStatus |= (uint8)  USBFS_DEVICE_STATUS_SELF_POWERED;
 621:.\Generated_Source\PSoC5/USBFS_std.c ****         }
 622:.\Generated_Source\PSoC5/USBFS_std.c ****         else
 623:.\Generated_Source\PSoC5/USBFS_std.c ****         {
 624:.\Generated_Source\PSoC5/USBFS_std.c ****             USBFS_deviceStatus &= (uint8) ~USBFS_DEVICE_STATUS_SELF_POWERED;
 625:.\Generated_Source\PSoC5/USBFS_std.c ****         }
 626:.\Generated_Source\PSoC5/USBFS_std.c ****         
 627:.\Generated_Source\PSoC5/USBFS_std.c ****         /* Move to next element */
 628:.\Generated_Source\PSoC5/USBFS_std.c ****         pTmp = &pTmp[1u];
 629:.\Generated_Source\PSoC5/USBFS_std.c ****         ep = pTmp->c;  /* For this table, c is the number of endpoints configurations  */
 630:.\Generated_Source\PSoC5/USBFS_std.c **** 
 631:.\Generated_Source\PSoC5/USBFS_std.c ****         #if (USBFS_EP_MANAGEMENT_MANUAL && USBFS_EP_ALLOC_DYNAMIC)
 632:.\Generated_Source\PSoC5/USBFS_std.c ****             /* Configure for dynamic EP memory allocation */
 633:.\Generated_Source\PSoC5/USBFS_std.c ****             /* p_list points the endpoint setting table. */
 634:.\Generated_Source\PSoC5/USBFS_std.c ****             pEP = (T_USBFS_EP_SETTINGS_BLOCK *) pTmp->p_list;
 635:.\Generated_Source\PSoC5/USBFS_std.c ****             
 636:.\Generated_Source\PSoC5/USBFS_std.c ****             for (i = 0u; i < ep; i++)
 637:.\Generated_Source\PSoC5/USBFS_std.c ****             {     
 638:.\Generated_Source\PSoC5/USBFS_std.c ****                 /* Compare current Alternate setting with EP Alt */
 639:.\Generated_Source\PSoC5/USBFS_std.c ****                 if (USBFS_interfaceSetting[pEP->interface] == pEP->altSetting)
 640:.\Generated_Source\PSoC5/USBFS_std.c ****                 {                                                          
 641:.\Generated_Source\PSoC5/USBFS_std.c ****                     curEp  = pEP->addr & USBFS_DIR_UNUSED;
 642:.\Generated_Source\PSoC5/USBFS_std.c ****                     epType = pEP->attributes & USBFS_EP_TYPE_MASK;
 643:.\Generated_Source\PSoC5/USBFS_std.c ****                     
 644:.\Generated_Source\PSoC5/USBFS_std.c ****                     USBFS_EP[curEp].addr       = pEP->addr;
 645:.\Generated_Source\PSoC5/USBFS_std.c ****                     USBFS_EP[curEp].attrib     = pEP->attributes;
 646:.\Generated_Source\PSoC5/USBFS_std.c ****                     USBFS_EP[curEp].bufferSize = pEP->bufferSize;
 647:.\Generated_Source\PSoC5/USBFS_std.c **** 
 648:.\Generated_Source\PSoC5/USBFS_std.c ****                     if (0u != (pEP->addr & USBFS_DIR_IN))
 649:.\Generated_Source\PSoC5/USBFS_std.c ****                     {
 650:.\Generated_Source\PSoC5/USBFS_std.c ****                         /* IN Endpoint */
ARM GAS  C:\Users\LAIR\AppData\Local\Temp\cc5n6lZj.s 			page 18


 651:.\Generated_Source\PSoC5/USBFS_std.c ****                         USBFS_EP[curEp].epMode     = USBFS_GET_ACTIVE_IN_EP_CR0_MODE(epType);
 652:.\Generated_Source\PSoC5/USBFS_std.c ****                         USBFS_EP[curEp].apiEpState = USBFS_EVENT_PENDING;
 653:.\Generated_Source\PSoC5/USBFS_std.c ****                     
 654:.\Generated_Source\PSoC5/USBFS_std.c ****                     #if (defined(USBFS_ENABLE_MIDI_STREAMING) && (USBFS_MIDI_IN_BUFF_SIZE > 0))
 655:.\Generated_Source\PSoC5/USBFS_std.c ****                         if ((pEP->bMisc == USBFS_CLASS_AUDIO) && (epType == USBFS_EP_TYPE_BULK))
 656:.\Generated_Source\PSoC5/USBFS_std.c ****                         {
 657:.\Generated_Source\PSoC5/USBFS_std.c ****                             USBFS_midi_in_ep = curEp;
 658:.\Generated_Source\PSoC5/USBFS_std.c ****                         }
 659:.\Generated_Source\PSoC5/USBFS_std.c ****                     #endif  /* (USBFS_ENABLE_MIDI_STREAMING) */
 660:.\Generated_Source\PSoC5/USBFS_std.c ****                     }
 661:.\Generated_Source\PSoC5/USBFS_std.c ****                     else
 662:.\Generated_Source\PSoC5/USBFS_std.c ****                     {
 663:.\Generated_Source\PSoC5/USBFS_std.c ****                         /* OUT Endpoint */
 664:.\Generated_Source\PSoC5/USBFS_std.c ****                         USBFS_EP[curEp].epMode     = USBFS_GET_ACTIVE_OUT_EP_CR0_MODE(epType);
 665:.\Generated_Source\PSoC5/USBFS_std.c ****                         USBFS_EP[curEp].apiEpState = USBFS_NO_EVENT_PENDING;
 666:.\Generated_Source\PSoC5/USBFS_std.c ****                         
 667:.\Generated_Source\PSoC5/USBFS_std.c ****                     #if (defined(USBFS_ENABLE_MIDI_STREAMING) && (USBFS_MIDI_OUT_BUFF_SIZE > 0))
 668:.\Generated_Source\PSoC5/USBFS_std.c ****                         if ((pEP->bMisc == USBFS_CLASS_AUDIO) && (epType == USBFS_EP_TYPE_BULK))
 669:.\Generated_Source\PSoC5/USBFS_std.c ****                         {
 670:.\Generated_Source\PSoC5/USBFS_std.c ****                             USBFS_midi_out_ep = curEp;
 671:.\Generated_Source\PSoC5/USBFS_std.c ****                         }
 672:.\Generated_Source\PSoC5/USBFS_std.c ****                     #endif  /* (USBFS_ENABLE_MIDI_STREAMING) */
 673:.\Generated_Source\PSoC5/USBFS_std.c ****                     }
 674:.\Generated_Source\PSoC5/USBFS_std.c **** 
 675:.\Generated_Source\PSoC5/USBFS_std.c ****                 #if(defined (USBFS_ENABLE_CDC_CLASS))
 676:.\Generated_Source\PSoC5/USBFS_std.c ****                     if((pEP->bMisc == USBFS_CLASS_CDC_DATA) ||(pEP->bMisc == USBFS_CLASS_CDC))
 677:.\Generated_Source\PSoC5/USBFS_std.c ****                     {
 678:.\Generated_Source\PSoC5/USBFS_std.c ****                         cdcComNums = USBFS_Cdc_EpInit(pEP, curEp, cdcComNums);
 679:.\Generated_Source\PSoC5/USBFS_std.c ****                     }
 680:.\Generated_Source\PSoC5/USBFS_std.c ****                 #endif  /* (USBFS_ENABLE_CDC_CLASS) */
 681:.\Generated_Source\PSoC5/USBFS_std.c ****                 }
 682:.\Generated_Source\PSoC5/USBFS_std.c ****                 
 683:.\Generated_Source\PSoC5/USBFS_std.c ****                 pEP = &pEP[1u];
 684:.\Generated_Source\PSoC5/USBFS_std.c ****             }
 685:.\Generated_Source\PSoC5/USBFS_std.c ****             
 686:.\Generated_Source\PSoC5/USBFS_std.c ****         #else
 687:.\Generated_Source\PSoC5/USBFS_std.c ****             for (i = USBFS_EP1; i < USBFS_MAX_EP; ++i)
 688:.\Generated_Source\PSoC5/USBFS_std.c ****             {
 689:.\Generated_Source\PSoC5/USBFS_std.c ****                 /* p_list points the endpoint setting table. */
 690:.\Generated_Source\PSoC5/USBFS_std.c ****                 pEP = (const T_USBFS_EP_SETTINGS_BLOCK CYCODE *) pTmp->p_list;
 691:.\Generated_Source\PSoC5/USBFS_std.c ****                 /* Find max length for each EP and select it (length could be different in differen
 692:.\Generated_Source\PSoC5/USBFS_std.c ****                 /* but other settings should be correct with regards to Interface alt Setting */
 693:.\Generated_Source\PSoC5/USBFS_std.c ****                 
 694:.\Generated_Source\PSoC5/USBFS_std.c ****                 for (curEp = 0u; curEp < ep; ++curEp)
 695:.\Generated_Source\PSoC5/USBFS_std.c ****                 {
 696:.\Generated_Source\PSoC5/USBFS_std.c ****                     if (i == (pEP->addr & USBFS_DIR_UNUSED))
 697:.\Generated_Source\PSoC5/USBFS_std.c ****                     {
 698:.\Generated_Source\PSoC5/USBFS_std.c ****                         /* Compare endpoint buffers size with current size to find greater. */
 699:.\Generated_Source\PSoC5/USBFS_std.c ****                         if (USBFS_EP[i].bufferSize < pEP->bufferSize)
 700:.\Generated_Source\PSoC5/USBFS_std.c ****                         {
 701:.\Generated_Source\PSoC5/USBFS_std.c ****                             USBFS_EP[i].bufferSize = pEP->bufferSize;
 702:.\Generated_Source\PSoC5/USBFS_std.c ****                         }
 703:.\Generated_Source\PSoC5/USBFS_std.c ****                         
 704:.\Generated_Source\PSoC5/USBFS_std.c ****                         /* Compare current Alternate setting with EP Alt */
 705:.\Generated_Source\PSoC5/USBFS_std.c ****                         if (USBFS_interfaceSetting[pEP->interface] == pEP->altSetting)
 706:.\Generated_Source\PSoC5/USBFS_std.c ****                         {                            
 707:.\Generated_Source\PSoC5/USBFS_std.c ****                             USBFS_EP[i].addr = pEP->addr;
ARM GAS  C:\Users\LAIR\AppData\Local\Temp\cc5n6lZj.s 			page 19


 708:.\Generated_Source\PSoC5/USBFS_std.c ****                             USBFS_EP[i].attrib = pEP->attributes;
 709:.\Generated_Source\PSoC5/USBFS_std.c ****                             
 710:.\Generated_Source\PSoC5/USBFS_std.c ****                             epType = pEP->attributes & USBFS_EP_TYPE_MASK;
 711:.\Generated_Source\PSoC5/USBFS_std.c ****                             
 712:.\Generated_Source\PSoC5/USBFS_std.c ****                             if (0u != (pEP->addr & USBFS_DIR_IN))
 713:.\Generated_Source\PSoC5/USBFS_std.c ****                             {
 714:.\Generated_Source\PSoC5/USBFS_std.c ****                                 /* IN Endpoint */
 715:.\Generated_Source\PSoC5/USBFS_std.c ****                                 USBFS_EP[i].epMode     = USBFS_GET_ACTIVE_IN_EP_CR0_MODE(epType);
 716:.\Generated_Source\PSoC5/USBFS_std.c ****                                 USBFS_EP[i].apiEpState = USBFS_EVENT_PENDING;
 717:.\Generated_Source\PSoC5/USBFS_std.c ****                                 
 718:.\Generated_Source\PSoC5/USBFS_std.c ****                             #if (defined(USBFS_ENABLE_MIDI_STREAMING) && (USBFS_MIDI_IN_BUFF_SIZE >
 719:.\Generated_Source\PSoC5/USBFS_std.c ****                                 if ((pEP->bMisc == USBFS_CLASS_AUDIO) && (epType == USBFS_EP_TYPE_B
 720:.\Generated_Source\PSoC5/USBFS_std.c ****                                 {
 721:.\Generated_Source\PSoC5/USBFS_std.c ****                                     USBFS_midi_in_ep = i;
 722:.\Generated_Source\PSoC5/USBFS_std.c ****                                 }
 723:.\Generated_Source\PSoC5/USBFS_std.c ****                             #endif  /* (USBFS_ENABLE_MIDI_STREAMING) */
 724:.\Generated_Source\PSoC5/USBFS_std.c ****                             }
 725:.\Generated_Source\PSoC5/USBFS_std.c ****                             else
 726:.\Generated_Source\PSoC5/USBFS_std.c ****                             {
 727:.\Generated_Source\PSoC5/USBFS_std.c ****                                 /* OUT Endpoint */
 728:.\Generated_Source\PSoC5/USBFS_std.c ****                                 USBFS_EP[i].epMode     = USBFS_GET_ACTIVE_OUT_EP_CR0_MODE(epType);
 729:.\Generated_Source\PSoC5/USBFS_std.c ****                                 USBFS_EP[i].apiEpState = USBFS_NO_EVENT_PENDING;
 730:.\Generated_Source\PSoC5/USBFS_std.c ****                                 
 731:.\Generated_Source\PSoC5/USBFS_std.c ****                             #if (defined(USBFS_ENABLE_MIDI_STREAMING) && (USBFS_MIDI_OUT_BUFF_SIZE 
 732:.\Generated_Source\PSoC5/USBFS_std.c ****                                 if ((pEP->bMisc == USBFS_CLASS_AUDIO) && (epType == USBFS_EP_TYPE_B
 733:.\Generated_Source\PSoC5/USBFS_std.c ****                                 {
 734:.\Generated_Source\PSoC5/USBFS_std.c ****                                     USBFS_midi_out_ep = i;
 735:.\Generated_Source\PSoC5/USBFS_std.c ****                                 }
 736:.\Generated_Source\PSoC5/USBFS_std.c ****                             #endif  /* (USBFS_ENABLE_MIDI_STREAMING) */
 737:.\Generated_Source\PSoC5/USBFS_std.c ****                             }
 738:.\Generated_Source\PSoC5/USBFS_std.c **** 
 739:.\Generated_Source\PSoC5/USBFS_std.c ****                         #if (defined(USBFS_ENABLE_CDC_CLASS))
 740:.\Generated_Source\PSoC5/USBFS_std.c ****                             if((pEP->bMisc == USBFS_CLASS_CDC_DATA) ||(pEP->bMisc == USBFS_CLASS_CD
 741:.\Generated_Source\PSoC5/USBFS_std.c ****                             {
 742:.\Generated_Source\PSoC5/USBFS_std.c ****                                 cdcComNums = USBFS_Cdc_EpInit(pEP, i, cdcComNums);
 743:.\Generated_Source\PSoC5/USBFS_std.c ****                             }
 744:.\Generated_Source\PSoC5/USBFS_std.c ****                         #endif  /* (USBFS_ENABLE_CDC_CLASS) */
 745:.\Generated_Source\PSoC5/USBFS_std.c **** 
 746:.\Generated_Source\PSoC5/USBFS_std.c ****                             #if (USBFS_EP_MANAGEMENT_DMA_AUTO)
 747:.\Generated_Source\PSoC5/USBFS_std.c ****                                 break;  /* Use first EP setting in Auto memory management */
 748:.\Generated_Source\PSoC5/USBFS_std.c ****                             #endif /* (USBFS_EP_MANAGEMENT_DMA_AUTO) */
 749:.\Generated_Source\PSoC5/USBFS_std.c ****                         }
 750:.\Generated_Source\PSoC5/USBFS_std.c ****                     }
 751:.\Generated_Source\PSoC5/USBFS_std.c ****                     
 752:.\Generated_Source\PSoC5/USBFS_std.c ****                     pEP = &pEP[1u];
 753:.\Generated_Source\PSoC5/USBFS_std.c ****                 }
 754:.\Generated_Source\PSoC5/USBFS_std.c ****             }
 755:.\Generated_Source\PSoC5/USBFS_std.c ****         #endif /*  (USBFS_EP_MANAGEMENT_MANUAL && USBFS_EP_ALLOC_DYNAMIC) */
 756:.\Generated_Source\PSoC5/USBFS_std.c **** 
 757:.\Generated_Source\PSoC5/USBFS_std.c ****         /* Init class array for each interface and interface number for each EP.
 758:.\Generated_Source\PSoC5/USBFS_std.c ****         *  It is used for handling Class specific requests directed to either an
 759:.\Generated_Source\PSoC5/USBFS_std.c ****         *  interface or the endpoint.
 760:.\Generated_Source\PSoC5/USBFS_std.c ****         */
 761:.\Generated_Source\PSoC5/USBFS_std.c ****         /* p_list points the endpoint setting table. */
 762:.\Generated_Source\PSoC5/USBFS_std.c ****         pEP = (const T_USBFS_EP_SETTINGS_BLOCK CYCODE *) pTmp->p_list;
 763:.\Generated_Source\PSoC5/USBFS_std.c ****         for (i = 0u; i < ep; i++)
 764:.\Generated_Source\PSoC5/USBFS_std.c ****         {
ARM GAS  C:\Users\LAIR\AppData\Local\Temp\cc5n6lZj.s 			page 20


 765:.\Generated_Source\PSoC5/USBFS_std.c ****             /* Configure interface number for each EP */
 766:.\Generated_Source\PSoC5/USBFS_std.c ****             USBFS_EP[pEP->addr & USBFS_DIR_UNUSED].interface = pEP->interface;
 767:.\Generated_Source\PSoC5/USBFS_std.c ****             pEP = &pEP[1u];
 768:.\Generated_Source\PSoC5/USBFS_std.c ****         }
 769:.\Generated_Source\PSoC5/USBFS_std.c ****         
 770:.\Generated_Source\PSoC5/USBFS_std.c ****         /* Init pointer on interface class table */
 771:.\Generated_Source\PSoC5/USBFS_std.c ****         USBFS_interfaceClass = USBFS_GetInterfaceClassTablePtr();
 772:.\Generated_Source\PSoC5/USBFS_std.c ****         
 773:.\Generated_Source\PSoC5/USBFS_std.c ****     /* Set the endpoint buffer addresses */
 774:.\Generated_Source\PSoC5/USBFS_std.c ****     #if (!USBFS_EP_MANAGEMENT_DMA_AUTO)
 775:.\Generated_Source\PSoC5/USBFS_std.c ****         buffCount = 0u;
 776:.\Generated_Source\PSoC5/USBFS_std.c ****         for (ep = USBFS_EP1; ep < USBFS_MAX_EP; ++ep)
 777:.\Generated_Source\PSoC5/USBFS_std.c ****         {
 778:.\Generated_Source\PSoC5/USBFS_std.c ****             USBFS_EP[ep].buffOffset = buffCount;        
 779:.\Generated_Source\PSoC5/USBFS_std.c ****             buffCount += USBFS_EP[ep].bufferSize;
 780:.\Generated_Source\PSoC5/USBFS_std.c ****             
 781:.\Generated_Source\PSoC5/USBFS_std.c ****         #if (USBFS_GEN_16BITS_EP_ACCESS)
 782:.\Generated_Source\PSoC5/USBFS_std.c ****             /* Align EP buffers to be event size to access 16-bits DR register. */
 783:.\Generated_Source\PSoC5/USBFS_std.c ****             buffCount += (0u != (buffCount & 0x01u)) ? 1u : 0u;
 784:.\Generated_Source\PSoC5/USBFS_std.c ****         #endif /* (USBFS_GEN_16BITS_EP_ACCESS) */            
 785:.\Generated_Source\PSoC5/USBFS_std.c ****         }
 786:.\Generated_Source\PSoC5/USBFS_std.c ****     #endif /* (!USBFS_EP_MANAGEMENT_DMA_AUTO) */
 787:.\Generated_Source\PSoC5/USBFS_std.c **** 
 788:.\Generated_Source\PSoC5/USBFS_std.c ****         /* Configure hardware registers */
 789:.\Generated_Source\PSoC5/USBFS_std.c ****         USBFS_ConfigReg();
 790:.\Generated_Source\PSoC5/USBFS_std.c ****     }
 791:.\Generated_Source\PSoC5/USBFS_std.c **** }
 792:.\Generated_Source\PSoC5/USBFS_std.c **** 
 793:.\Generated_Source\PSoC5/USBFS_std.c **** 
 794:.\Generated_Source\PSoC5/USBFS_std.c **** /*******************************************************************************
 795:.\Generated_Source\PSoC5/USBFS_std.c **** * Function Name: USBFS_ConfigAltChanged
 796:.\Generated_Source\PSoC5/USBFS_std.c **** ****************************************************************************//**
 797:.\Generated_Source\PSoC5/USBFS_std.c **** *
 798:.\Generated_Source\PSoC5/USBFS_std.c **** *  This routine update configuration for the required endpoints only.
 799:.\Generated_Source\PSoC5/USBFS_std.c **** *  It is called after SET_INTERFACE request when Static memory allocation used.
 800:.\Generated_Source\PSoC5/USBFS_std.c **** *
 801:.\Generated_Source\PSoC5/USBFS_std.c **** * \reentrant
 802:.\Generated_Source\PSoC5/USBFS_std.c **** *  No.
 803:.\Generated_Source\PSoC5/USBFS_std.c **** *
 804:.\Generated_Source\PSoC5/USBFS_std.c **** *******************************************************************************/
 805:.\Generated_Source\PSoC5/USBFS_std.c **** void USBFS_ConfigAltChanged(void) 
 806:.\Generated_Source\PSoC5/USBFS_std.c **** {
 807:.\Generated_Source\PSoC5/USBFS_std.c ****     uint8 ep;
 808:.\Generated_Source\PSoC5/USBFS_std.c ****     uint8 curEp;
 809:.\Generated_Source\PSoC5/USBFS_std.c ****     uint8 epType;
 810:.\Generated_Source\PSoC5/USBFS_std.c ****     uint8 i;
 811:.\Generated_Source\PSoC5/USBFS_std.c ****     uint8 interfaceNum;
 812:.\Generated_Source\PSoC5/USBFS_std.c **** 
 813:.\Generated_Source\PSoC5/USBFS_std.c ****     const T_USBFS_LUT CYCODE *pTmp;
 814:.\Generated_Source\PSoC5/USBFS_std.c ****     const T_USBFS_EP_SETTINGS_BLOCK CYCODE *pEP;
 815:.\Generated_Source\PSoC5/USBFS_std.c **** 
 816:.\Generated_Source\PSoC5/USBFS_std.c ****     /* Init Endpoints and Device Status if configured */
 817:.\Generated_Source\PSoC5/USBFS_std.c ****     if (USBFS_configuration > 0u)
 818:.\Generated_Source\PSoC5/USBFS_std.c ****     {
 819:.\Generated_Source\PSoC5/USBFS_std.c ****         /* Get number of endpoints configurations (ep). */
 820:.\Generated_Source\PSoC5/USBFS_std.c ****         pTmp = USBFS_GetConfigTablePtr(USBFS_configuration - 1u);
 821:.\Generated_Source\PSoC5/USBFS_std.c ****         pTmp = &pTmp[1u];
ARM GAS  C:\Users\LAIR\AppData\Local\Temp\cc5n6lZj.s 			page 21


 822:.\Generated_Source\PSoC5/USBFS_std.c ****         ep = pTmp->c;
 823:.\Generated_Source\PSoC5/USBFS_std.c **** 
 824:.\Generated_Source\PSoC5/USBFS_std.c ****         /* Get pointer to endpoints setting table (pEP). */
 825:.\Generated_Source\PSoC5/USBFS_std.c ****         pEP = (const T_USBFS_EP_SETTINGS_BLOCK CYCODE *) pTmp->p_list;
 826:.\Generated_Source\PSoC5/USBFS_std.c ****         
 827:.\Generated_Source\PSoC5/USBFS_std.c ****         /* Look through all possible endpoint configurations. Find endpoints 
 828:.\Generated_Source\PSoC5/USBFS_std.c ****         * which belong to current interface and alternate settings for 
 829:.\Generated_Source\PSoC5/USBFS_std.c ****         * re-configuration.
 830:.\Generated_Source\PSoC5/USBFS_std.c ****         */
 831:.\Generated_Source\PSoC5/USBFS_std.c ****         interfaceNum = USBFS_interfaceNumber;
 832:.\Generated_Source\PSoC5/USBFS_std.c ****         for (i = 0u; i < ep; i++)
 833:.\Generated_Source\PSoC5/USBFS_std.c ****         {
 834:.\Generated_Source\PSoC5/USBFS_std.c ****             /* Find endpoints which belong to current interface and alternate settings. */
 835:.\Generated_Source\PSoC5/USBFS_std.c ****             if ((interfaceNum == pEP->interface) && 
 836:.\Generated_Source\PSoC5/USBFS_std.c ****                 (USBFS_interfaceSetting[interfaceNum] == pEP->altSetting))
 837:.\Generated_Source\PSoC5/USBFS_std.c ****             {
 838:.\Generated_Source\PSoC5/USBFS_std.c ****                 curEp  = ((uint8) pEP->addr & USBFS_DIR_UNUSED);
 839:.\Generated_Source\PSoC5/USBFS_std.c ****                 epType = ((uint8) pEP->attributes & USBFS_EP_TYPE_MASK);
 840:.\Generated_Source\PSoC5/USBFS_std.c ****                 
 841:.\Generated_Source\PSoC5/USBFS_std.c ****                 /* Change the SIE mode for the selected EP to NAK ALL */
 842:.\Generated_Source\PSoC5/USBFS_std.c ****                 USBFS_EP[curEp].epToggle   = 0u;
 843:.\Generated_Source\PSoC5/USBFS_std.c ****                 USBFS_EP[curEp].addr       = pEP->addr;
 844:.\Generated_Source\PSoC5/USBFS_std.c ****                 USBFS_EP[curEp].attrib     = pEP->attributes;
 845:.\Generated_Source\PSoC5/USBFS_std.c ****                 USBFS_EP[curEp].bufferSize = pEP->bufferSize;
 846:.\Generated_Source\PSoC5/USBFS_std.c **** 
 847:.\Generated_Source\PSoC5/USBFS_std.c ****                 if (0u != (pEP->addr & USBFS_DIR_IN))
 848:.\Generated_Source\PSoC5/USBFS_std.c ****                 {
 849:.\Generated_Source\PSoC5/USBFS_std.c ****                     /* IN Endpoint */
 850:.\Generated_Source\PSoC5/USBFS_std.c ****                     USBFS_EP[curEp].epMode     = USBFS_GET_ACTIVE_IN_EP_CR0_MODE(epType);
 851:.\Generated_Source\PSoC5/USBFS_std.c ****                     USBFS_EP[curEp].apiEpState = USBFS_EVENT_PENDING;
 852:.\Generated_Source\PSoC5/USBFS_std.c ****                 }
 853:.\Generated_Source\PSoC5/USBFS_std.c ****                 else
 854:.\Generated_Source\PSoC5/USBFS_std.c ****                 {
 855:.\Generated_Source\PSoC5/USBFS_std.c ****                     /* OUT Endpoint */
 856:.\Generated_Source\PSoC5/USBFS_std.c ****                     USBFS_EP[curEp].epMode     = USBFS_GET_ACTIVE_OUT_EP_CR0_MODE(epType);
 857:.\Generated_Source\PSoC5/USBFS_std.c ****                     USBFS_EP[curEp].apiEpState = USBFS_NO_EVENT_PENDING;
 858:.\Generated_Source\PSoC5/USBFS_std.c ****                 }
 859:.\Generated_Source\PSoC5/USBFS_std.c ****                 
 860:.\Generated_Source\PSoC5/USBFS_std.c ****                 /* Make SIE to NAK any endpoint requests */
 861:.\Generated_Source\PSoC5/USBFS_std.c ****                 USBFS_SIE_EP_BASE.sieEp[curEp].epCr0 = USBFS_MODE_NAK_IN_OUT;
 862:.\Generated_Source\PSoC5/USBFS_std.c **** 
 863:.\Generated_Source\PSoC5/USBFS_std.c ****             #if (USBFS_EP_MANAGEMENT_DMA_AUTO)
 864:.\Generated_Source\PSoC5/USBFS_std.c ****                 /* Clear IN data ready. */
 865:.\Generated_Source\PSoC5/USBFS_std.c ****                 USBFS_ARB_EP_BASE.arbEp[curEp].epCfg &= (uint8) ~USBFS_ARB_EPX_CFG_IN_DATA_RDY;
 866:.\Generated_Source\PSoC5/USBFS_std.c **** 
 867:.\Generated_Source\PSoC5/USBFS_std.c ****                 /* Select endpoint number of reconfiguration */
 868:.\Generated_Source\PSoC5/USBFS_std.c ****                 USBFS_DYN_RECONFIG_REG = (uint8) ((curEp - 1u) << USBFS_DYN_RECONFIG_EP_SHIFT);
 869:.\Generated_Source\PSoC5/USBFS_std.c ****                 
 870:.\Generated_Source\PSoC5/USBFS_std.c ****                 /* Request for dynamic re-configuration of endpoint. */
 871:.\Generated_Source\PSoC5/USBFS_std.c ****                 USBFS_DYN_RECONFIG_REG |= USBFS_DYN_RECONFIG_ENABLE;
 872:.\Generated_Source\PSoC5/USBFS_std.c ****                 
 873:.\Generated_Source\PSoC5/USBFS_std.c ****                 /* Wait until block is ready for re-configuration */
 874:.\Generated_Source\PSoC5/USBFS_std.c ****                 while (0u == (USBFS_DYN_RECONFIG_REG & USBFS_DYN_RECONFIG_RDY_STS))
 875:.\Generated_Source\PSoC5/USBFS_std.c ****                 {
 876:.\Generated_Source\PSoC5/USBFS_std.c ****                 }
 877:.\Generated_Source\PSoC5/USBFS_std.c ****                 
 878:.\Generated_Source\PSoC5/USBFS_std.c ****                 /* Once DYN_RECONFIG_RDY_STS bit is set, FW can change the EP configuration. */
ARM GAS  C:\Users\LAIR\AppData\Local\Temp\cc5n6lZj.s 			page 22


 879:.\Generated_Source\PSoC5/USBFS_std.c ****                 /* Change EP Type with new direction */
 880:.\Generated_Source\PSoC5/USBFS_std.c ****                 if (0u != (pEP->addr & USBFS_DIR_IN))
 881:.\Generated_Source\PSoC5/USBFS_std.c ****                 {
 882:.\Generated_Source\PSoC5/USBFS_std.c ****                     /* Set endpoint type: 0 - IN and 1 - OUT. */
 883:.\Generated_Source\PSoC5/USBFS_std.c ****                     USBFS_EP_TYPE_REG &= (uint8) ~(uint8)((uint8) 0x01u << (curEp - 1u));
 884:.\Generated_Source\PSoC5/USBFS_std.c ****                     
 885:.\Generated_Source\PSoC5/USBFS_std.c ****                 #if (CY_PSOC4)
 886:.\Generated_Source\PSoC5/USBFS_std.c ****                     /* Clear DMA_TERMIN for IN endpoint */
 887:.\Generated_Source\PSoC5/USBFS_std.c ****                     USBFS_ARB_EP_BASE.arbEp[curEp].epIntEn &= (uint32) ~USBFS_ARB_EPX_INT_DMA_TERMI
 888:.\Generated_Source\PSoC5/USBFS_std.c ****                 #endif /* (CY_PSOC4) */
 889:.\Generated_Source\PSoC5/USBFS_std.c ****                 }
 890:.\Generated_Source\PSoC5/USBFS_std.c ****                 else
 891:.\Generated_Source\PSoC5/USBFS_std.c ****                 {
 892:.\Generated_Source\PSoC5/USBFS_std.c ****                     /* Set endpoint type: 0 - IN and 1- OUT. */
 893:.\Generated_Source\PSoC5/USBFS_std.c ****                     USBFS_EP_TYPE_REG |= (uint8) ((uint8) 0x01u << (curEp - 1u));
 894:.\Generated_Source\PSoC5/USBFS_std.c ****                     
 895:.\Generated_Source\PSoC5/USBFS_std.c ****                 #if (CY_PSOC4)
 896:.\Generated_Source\PSoC5/USBFS_std.c ****                     /* Set DMA_TERMIN for OUT endpoint */
 897:.\Generated_Source\PSoC5/USBFS_std.c ****                     USBFS_ARB_EP_BASE.arbEp[curEp].epIntEn |= (uint32) USBFS_ARB_EPX_INT_DMA_TERMIN
 898:.\Generated_Source\PSoC5/USBFS_std.c ****                 #endif /* (CY_PSOC4) */
 899:.\Generated_Source\PSoC5/USBFS_std.c ****                 }
 900:.\Generated_Source\PSoC5/USBFS_std.c ****                 
 901:.\Generated_Source\PSoC5/USBFS_std.c ****                 /* Complete dynamic re-configuration: all endpoint related status and signals 
 902:.\Generated_Source\PSoC5/USBFS_std.c ****                 * are set into the default state.
 903:.\Generated_Source\PSoC5/USBFS_std.c ****                 */
 904:.\Generated_Source\PSoC5/USBFS_std.c ****                 USBFS_DYN_RECONFIG_REG &= (uint8) ~USBFS_DYN_RECONFIG_ENABLE;
 905:.\Generated_Source\PSoC5/USBFS_std.c **** 
 906:.\Generated_Source\PSoC5/USBFS_std.c ****             #else
 907:.\Generated_Source\PSoC5/USBFS_std.c ****                 USBFS_SIE_EP_BASE.sieEp[curEp].epCnt0 = HI8(USBFS_EP[curEp].bufferSize);
 908:.\Generated_Source\PSoC5/USBFS_std.c ****                 USBFS_SIE_EP_BASE.sieEp[curEp].epCnt1 = LO8(USBFS_EP[curEp].bufferSize);
 909:.\Generated_Source\PSoC5/USBFS_std.c ****                 
 910:.\Generated_Source\PSoC5/USBFS_std.c ****                 #if (CY_PSOC4)
 911:.\Generated_Source\PSoC5/USBFS_std.c ****                     USBFS_ARB_EP16_BASE.arbEp[curEp].rwRa16  = (uint32) USBFS_EP[curEp].buffOffset;
 912:.\Generated_Source\PSoC5/USBFS_std.c ****                     USBFS_ARB_EP16_BASE.arbEp[curEp].rwWa16  = (uint32) USBFS_EP[curEp].buffOffset;
 913:.\Generated_Source\PSoC5/USBFS_std.c ****                 #else
 914:.\Generated_Source\PSoC5/USBFS_std.c ****                     USBFS_ARB_EP_BASE.arbEp[curEp].rwRa    = LO8(USBFS_EP[curEp].buffOffset);
 915:.\Generated_Source\PSoC5/USBFS_std.c ****                     USBFS_ARB_EP_BASE.arbEp[curEp].rwRaMsb = HI8(USBFS_EP[curEp].buffOffset);
 916:.\Generated_Source\PSoC5/USBFS_std.c ****                     USBFS_ARB_EP_BASE.arbEp[curEp].rwWa    = LO8(USBFS_EP[curEp].buffOffset);
 917:.\Generated_Source\PSoC5/USBFS_std.c ****                     USBFS_ARB_EP_BASE.arbEp[curEp].rwWaMsb = HI8(USBFS_EP[curEp].buffOffset);
 918:.\Generated_Source\PSoC5/USBFS_std.c ****                 #endif /* (CY_PSOC4) */                
 919:.\Generated_Source\PSoC5/USBFS_std.c ****             #endif /* (USBFS_EP_MANAGEMENT_DMA_AUTO) */
 920:.\Generated_Source\PSoC5/USBFS_std.c ****             }
 921:.\Generated_Source\PSoC5/USBFS_std.c ****             
 922:.\Generated_Source\PSoC5/USBFS_std.c ****             pEP = &pEP[1u]; /* Get next EP element */
 923:.\Generated_Source\PSoC5/USBFS_std.c ****         }
 924:.\Generated_Source\PSoC5/USBFS_std.c ****         
 925:.\Generated_Source\PSoC5/USBFS_std.c ****         /* The main loop has to re-enable DMA and OUT endpoint */
 926:.\Generated_Source\PSoC5/USBFS_std.c ****     }
 927:.\Generated_Source\PSoC5/USBFS_std.c **** }
 928:.\Generated_Source\PSoC5/USBFS_std.c **** 
 929:.\Generated_Source\PSoC5/USBFS_std.c **** 
 930:.\Generated_Source\PSoC5/USBFS_std.c **** /*******************************************************************************
 931:.\Generated_Source\PSoC5/USBFS_std.c **** * Function Name: USBFS_GetConfigTablePtr
 932:.\Generated_Source\PSoC5/USBFS_std.c **** ****************************************************************************//**
 933:.\Generated_Source\PSoC5/USBFS_std.c **** *
 934:.\Generated_Source\PSoC5/USBFS_std.c **** *  This routine returns a pointer a configuration table entry
 935:.\Generated_Source\PSoC5/USBFS_std.c **** *
ARM GAS  C:\Users\LAIR\AppData\Local\Temp\cc5n6lZj.s 			page 23


 936:.\Generated_Source\PSoC5/USBFS_std.c **** *  \param confIndex:  Configuration Index
 937:.\Generated_Source\PSoC5/USBFS_std.c **** *
 938:.\Generated_Source\PSoC5/USBFS_std.c **** * \return
 939:.\Generated_Source\PSoC5/USBFS_std.c **** *  Device Descriptor pointer or NULL when descriptor does not exist.
 940:.\Generated_Source\PSoC5/USBFS_std.c **** *
 941:.\Generated_Source\PSoC5/USBFS_std.c **** *******************************************************************************/
 942:.\Generated_Source\PSoC5/USBFS_std.c **** const T_USBFS_LUT CYCODE *USBFS_GetConfigTablePtr(uint8 confIndex)
 943:.\Generated_Source\PSoC5/USBFS_std.c ****                                                         
 944:.\Generated_Source\PSoC5/USBFS_std.c **** {
 313              		.loc 1 944 0
 314              		.cfi_startproc
 315              		@ args = 0, pretend = 0, frame = 0
 316              		@ frame_needed = 0, uses_anonymous_args = 0
 317              		@ link register save eliminated.
 318              	.LVL20:
 945:.\Generated_Source\PSoC5/USBFS_std.c ****     /* Device Table */
 946:.\Generated_Source\PSoC5/USBFS_std.c ****     const T_USBFS_LUT CYCODE *pTmp;
 947:.\Generated_Source\PSoC5/USBFS_std.c **** 
 948:.\Generated_Source\PSoC5/USBFS_std.c ****     pTmp = (const T_USBFS_LUT CYCODE *) USBFS_TABLE[USBFS_device].p_list;
 319              		.loc 1 948 0
 320 0000 074B     		ldr	r3, .L27
 321 0002 1B78     		ldrb	r3, [r3]	@ zero_extendqisi2
 322 0004 074A     		ldr	r2, .L27+4
 323 0006 02EBC302 		add	r2, r2, r3, lsl #3
 324 000a 5368     		ldr	r3, [r2, #4]
 325              	.LVL21:
 949:.\Generated_Source\PSoC5/USBFS_std.c **** 
 950:.\Generated_Source\PSoC5/USBFS_std.c ****     /* The first entry points to the Device Descriptor,
 951:.\Generated_Source\PSoC5/USBFS_std.c ****     *  the second entry point to the BOS Descriptor
 952:.\Generated_Source\PSoC5/USBFS_std.c ****     *  the rest configuration entries.
 953:.\Generated_Source\PSoC5/USBFS_std.c ****     *  Set pointer to the first Configuration Descriptor
 954:.\Generated_Source\PSoC5/USBFS_std.c ****     */
 955:.\Generated_Source\PSoC5/USBFS_std.c ****     pTmp = &pTmp[2u];
 956:.\Generated_Source\PSoC5/USBFS_std.c ****     /* For this table, c is the number of configuration descriptors  */
 957:.\Generated_Source\PSoC5/USBFS_std.c ****     if(confIndex >= pTmp->c)   /* Verify that required configuration descriptor exists */
 326              		.loc 1 957 0
 327 000c 1A7C     		ldrb	r2, [r3, #16]	@ zero_extendqisi2
 328 000e 8242     		cmp	r2, r0
 329 0010 03D9     		bls	.L26
 330 0012 03EBC003 		add	r3, r3, r0, lsl #3
 331              	.LVL22:
 958:.\Generated_Source\PSoC5/USBFS_std.c ****     {
 959:.\Generated_Source\PSoC5/USBFS_std.c ****         pTmp = (const T_USBFS_LUT CYCODE *) NULL;
 960:.\Generated_Source\PSoC5/USBFS_std.c ****     }
 961:.\Generated_Source\PSoC5/USBFS_std.c ****     else
 962:.\Generated_Source\PSoC5/USBFS_std.c ****     {
 963:.\Generated_Source\PSoC5/USBFS_std.c ****         pTmp = (const T_USBFS_LUT CYCODE *) pTmp[confIndex].p_list;
 332              		.loc 1 963 0
 333 0016 5869     		ldr	r0, [r3, #20]
 334              	.LVL23:
 335 0018 7047     		bx	lr
 336              	.LVL24:
 337              	.L26:
 959:.\Generated_Source\PSoC5/USBFS_std.c ****     }
 338              		.loc 1 959 0
 339 001a 0020     		movs	r0, #0
 340              	.LVL25:
ARM GAS  C:\Users\LAIR\AppData\Local\Temp\cc5n6lZj.s 			page 24


 964:.\Generated_Source\PSoC5/USBFS_std.c ****     }
 965:.\Generated_Source\PSoC5/USBFS_std.c **** 
 966:.\Generated_Source\PSoC5/USBFS_std.c ****     return (pTmp);
 967:.\Generated_Source\PSoC5/USBFS_std.c **** }
 341              		.loc 1 967 0
 342 001c 7047     		bx	lr
 343              	.L28:
 344 001e 00BF     		.align	2
 345              	.L27:
 346 0020 00000000 		.word	USBFS_device
 347 0024 00000000 		.word	USBFS_TABLE
 348              		.cfi_endproc
 349              	.LFE6:
 350              		.size	USBFS_GetConfigTablePtr, .-USBFS_GetConfigTablePtr
 351              		.section	.text.USBFS_ConfigAltChanged,"ax",%progbits
 352              		.align	2
 353              		.global	USBFS_ConfigAltChanged
 354              		.thumb
 355              		.thumb_func
 356              		.type	USBFS_ConfigAltChanged, %function
 357              	USBFS_ConfigAltChanged:
 358              	.LFB5:
 806:.\Generated_Source\PSoC5/USBFS_std.c ****     uint8 ep;
 359              		.loc 1 806 0
 360              		.cfi_startproc
 361              		@ args = 0, pretend = 0, frame = 0
 362              		@ frame_needed = 0, uses_anonymous_args = 0
 363 0000 F8B5     		push	{r3, r4, r5, r6, r7, lr}
 364              		.cfi_def_cfa_offset 24
 365              		.cfi_offset 3, -24
 366              		.cfi_offset 4, -20
 367              		.cfi_offset 5, -16
 368              		.cfi_offset 6, -12
 369              		.cfi_offset 7, -8
 370              		.cfi_offset 14, -4
 817:.\Generated_Source\PSoC5/USBFS_std.c ****     {
 371              		.loc 1 817 0
 372 0002 404B     		ldr	r3, .L41
 373 0004 1B78     		ldrb	r3, [r3]	@ zero_extendqisi2
 374 0006 13F0FF0F 		tst	r3, #255
 375 000a 79D0     		beq	.L29
 820:.\Generated_Source\PSoC5/USBFS_std.c ****         pTmp = &pTmp[1u];
 376              		.loc 1 820 0
 377 000c 3D4B     		ldr	r3, .L41
 378 000e 1878     		ldrb	r0, [r3]	@ zero_extendqisi2
 379 0010 0138     		subs	r0, r0, #1
 380 0012 C0B2     		uxtb	r0, r0
 381 0014 FFF7FEFF 		bl	USBFS_GetConfigTablePtr
 382              	.LVL26:
 822:.\Generated_Source\PSoC5/USBFS_std.c **** 
 383              		.loc 1 822 0
 384 0018 047A     		ldrb	r4, [r0, #8]	@ zero_extendqisi2
 385              	.LVL27:
 825:.\Generated_Source\PSoC5/USBFS_std.c ****         
 386              		.loc 1 825 0
 387 001a C268     		ldr	r2, [r0, #12]
 388              	.LVL28:
ARM GAS  C:\Users\LAIR\AppData\Local\Temp\cc5n6lZj.s 			page 25


 831:.\Generated_Source\PSoC5/USBFS_std.c ****         for (i = 0u; i < ep; i++)
 389              		.loc 1 831 0
 390 001c 3A4B     		ldr	r3, .L41+4
 391 001e 1878     		ldrb	r0, [r3]	@ zero_extendqisi2
 392              	.LVL29:
 393 0020 C0B2     		uxtb	r0, r0
 394              	.LVL30:
 832:.\Generated_Source\PSoC5/USBFS_std.c ****         {
 395              		.loc 1 832 0
 396 0022 0023     		movs	r3, #0
 397 0024 6AE0     		b	.L31
 398              	.LVL31:
 399              	.L37:
 835:.\Generated_Source\PSoC5/USBFS_std.c ****                 (USBFS_interfaceSetting[interfaceNum] == pEP->altSetting))
 400              		.loc 1 835 0
 401 0026 1178     		ldrb	r1, [r2]	@ zero_extendqisi2
 402 0028 8142     		cmp	r1, r0
 403 002a 64D1     		bne	.L32
 836:.\Generated_Source\PSoC5/USBFS_std.c ****             {
 404              		.loc 1 836 0 discriminator 1
 405 002c 3749     		ldr	r1, .L41+8
 406 002e 095C     		ldrb	r1, [r1, r0]	@ zero_extendqisi2
 407 0030 C9B2     		uxtb	r1, r1
 408 0032 5578     		ldrb	r5, [r2, #1]	@ zero_extendqisi2
 835:.\Generated_Source\PSoC5/USBFS_std.c ****                 (USBFS_interfaceSetting[interfaceNum] == pEP->altSetting))
 409              		.loc 1 835 0 discriminator 1
 410 0034 A942     		cmp	r1, r5
 411 0036 5ED1     		bne	.L32
 838:.\Generated_Source\PSoC5/USBFS_std.c ****                 epType = ((uint8) pEP->attributes & USBFS_EP_TYPE_MASK);
 412              		.loc 1 838 0
 413 0038 9178     		ldrb	r1, [r2, #2]	@ zero_extendqisi2
 414 003a 01F07F01 		and	r1, r1, #127
 415              	.LVL32:
 839:.\Generated_Source\PSoC5/USBFS_std.c ****                 
 416              		.loc 1 839 0
 417 003e D678     		ldrb	r6, [r2, #3]	@ zero_extendqisi2
 418 0040 06F00306 		and	r6, r6, #3
 419              	.LVL33:
 842:.\Generated_Source\PSoC5/USBFS_std.c ****                 USBFS_EP[curEp].addr       = pEP->addr;
 420              		.loc 1 842 0
 421 0044 DFF8C8E0 		ldr	lr, .L41+12
 422 0048 4D00     		lsls	r5, r1, #1
 423 004a 0D44     		add	r5, r5, r1
 424 004c AD00     		lsls	r5, r5, #2
 425 004e 0EEB0507 		add	r7, lr, r5
 426 0052 4FF0000C 		mov	ip, #0
 427 0056 87F803C0 		strb	ip, [r7, #3]
 843:.\Generated_Source\PSoC5/USBFS_std.c ****                 USBFS_EP[curEp].attrib     = pEP->attributes;
 428              		.loc 1 843 0
 429 005a 92F802C0 		ldrb	ip, [r2, #2]	@ zero_extendqisi2
 430 005e 87F804C0 		strb	ip, [r7, #4]
 844:.\Generated_Source\PSoC5/USBFS_std.c ****                 USBFS_EP[curEp].bufferSize = pEP->bufferSize;
 431              		.loc 1 844 0
 432 0062 92F803C0 		ldrb	ip, [r2, #3]	@ zero_extendqisi2
 433 0066 0EF805C0 		strb	ip, [lr, r5]
 845:.\Generated_Source\PSoC5/USBFS_std.c **** 
 434              		.loc 1 845 0
ARM GAS  C:\Users\LAIR\AppData\Local\Temp\cc5n6lZj.s 			page 26


 435 006a 9588     		ldrh	r5, [r2, #4]
 436 006c 3D81     		strh	r5, [r7, #8]	@ movhi
 847:.\Generated_Source\PSoC5/USBFS_std.c ****                 {
 437              		.loc 1 847 0
 438 006e 92F90250 		ldrsb	r5, [r2, #2]
 439 0072 002D     		cmp	r5, #0
 440 0074 0DDA     		bge	.L33
 850:.\Generated_Source\PSoC5/USBFS_std.c ****                     USBFS_EP[curEp].apiEpState = USBFS_EVENT_PENDING;
 441              		.loc 1 850 0
 442 0076 012E     		cmp	r6, #1
 443 0078 01D1     		bne	.L38
 444 007a 0727     		movs	r7, #7
 445 007c 00E0     		b	.L34
 446              	.L38:
 447 007e 0D27     		movs	r7, #13
 448              	.L34:
 850:.\Generated_Source\PSoC5/USBFS_std.c ****                     USBFS_EP[curEp].apiEpState = USBFS_EVENT_PENDING;
 449              		.loc 1 850 0 is_stmt 0 discriminator 4
 450 0080 4D00     		lsls	r5, r1, #1
 451 0082 0D44     		add	r5, r5, r1
 452 0084 AD00     		lsls	r5, r5, #2
 453 0086 224E     		ldr	r6, .L41+12
 454              	.LVL34:
 455 0088 3544     		add	r5, r5, r6
 456 008a 6F71     		strb	r7, [r5, #5]
 851:.\Generated_Source\PSoC5/USBFS_std.c ****                 }
 457              		.loc 1 851 0 is_stmt 1 discriminator 4
 458 008c 0126     		movs	r6, #1
 459 008e 6E70     		strb	r6, [r5, #1]
 460 0090 0CE0     		b	.L35
 461              	.LVL35:
 462              	.L33:
 856:.\Generated_Source\PSoC5/USBFS_std.c ****                     USBFS_EP[curEp].apiEpState = USBFS_NO_EVENT_PENDING;
 463              		.loc 1 856 0
 464 0092 012E     		cmp	r6, #1
 465 0094 01D1     		bne	.L39
 466 0096 0527     		movs	r7, #5
 467 0098 00E0     		b	.L36
 468              	.L39:
 469 009a 0927     		movs	r7, #9
 470              	.L36:
 856:.\Generated_Source\PSoC5/USBFS_std.c ****                     USBFS_EP[curEp].apiEpState = USBFS_NO_EVENT_PENDING;
 471              		.loc 1 856 0 is_stmt 0 discriminator 4
 472 009c 4D00     		lsls	r5, r1, #1
 473 009e 0D44     		add	r5, r5, r1
 474 00a0 AD00     		lsls	r5, r5, #2
 475 00a2 1B4E     		ldr	r6, .L41+12
 476              	.LVL36:
 477 00a4 3544     		add	r5, r5, r6
 478 00a6 6F71     		strb	r7, [r5, #5]
 857:.\Generated_Source\PSoC5/USBFS_std.c ****                 }
 479              		.loc 1 857 0 is_stmt 1 discriminator 4
 480 00a8 0026     		movs	r6, #0
 481 00aa 6E70     		strb	r6, [r5, #1]
 482              	.L35:
 861:.\Generated_Source\PSoC5/USBFS_std.c **** 
 483              		.loc 1 861 0
ARM GAS  C:\Users\LAIR\AppData\Local\Temp\cc5n6lZj.s 			page 27


 484 00ac DFF868E0 		ldr	lr, .L41+20
 485 00b0 0F01     		lsls	r7, r1, #4
 486 00b2 0EEB0706 		add	r6, lr, r7
 487 00b6 0125     		movs	r5, #1
 488 00b8 B570     		strb	r5, [r6, #2]
 907:.\Generated_Source\PSoC5/USBFS_std.c ****                 USBFS_SIE_EP_BASE.sieEp[curEp].epCnt1 = LO8(USBFS_EP[curEp].bufferSize);
 489              		.loc 1 907 0
 490 00ba 01FA05F5 		lsl	r5, r1, r5
 491 00be 2944     		add	r1, r1, r5
 492              	.LVL37:
 493 00c0 8900     		lsls	r1, r1, #2
 494 00c2 134D     		ldr	r5, .L41+12
 495 00c4 2944     		add	r1, r1, r5
 496 00c6 0D89     		ldrh	r5, [r1, #8]
 497 00c8 C5F30725 		ubfx	r5, r5, #8, #8
 498 00cc 0EF80750 		strb	r5, [lr, r7]
 908:.\Generated_Source\PSoC5/USBFS_std.c ****                 
 499              		.loc 1 908 0
 500 00d0 0D89     		ldrh	r5, [r1, #8]
 501 00d2 EDB2     		uxtb	r5, r5
 502 00d4 7570     		strb	r5, [r6, #1]
 914:.\Generated_Source\PSoC5/USBFS_std.c ****                     USBFS_ARB_EP_BASE.arbEp[curEp].rwRaMsb = HI8(USBFS_EP[curEp].buffOffset);
 503              		.loc 1 914 0
 504 00d6 CE88     		ldrh	r6, [r1, #6]
 505 00d8 F6B2     		uxtb	r6, r6
 506 00da 0E4D     		ldr	r5, .L41+16
 507 00dc 3D44     		add	r5, r5, r7
 508 00de AE71     		strb	r6, [r5, #6]
 915:.\Generated_Source\PSoC5/USBFS_std.c ****                     USBFS_ARB_EP_BASE.arbEp[curEp].rwWa    = LO8(USBFS_EP[curEp].buffOffset);
 509              		.loc 1 915 0
 510 00e0 CE88     		ldrh	r6, [r1, #6]
 511 00e2 C6F30726 		ubfx	r6, r6, #8, #8
 512 00e6 EE71     		strb	r6, [r5, #7]
 916:.\Generated_Source\PSoC5/USBFS_std.c ****                     USBFS_ARB_EP_BASE.arbEp[curEp].rwWaMsb = HI8(USBFS_EP[curEp].buffOffset);
 513              		.loc 1 916 0
 514 00e8 CE88     		ldrh	r6, [r1, #6]
 515 00ea F6B2     		uxtb	r6, r6
 516 00ec 2E71     		strb	r6, [r5, #4]
 917:.\Generated_Source\PSoC5/USBFS_std.c ****                 #endif /* (CY_PSOC4) */                
 517              		.loc 1 917 0
 518 00ee C988     		ldrh	r1, [r1, #6]
 519 00f0 C1F30721 		ubfx	r1, r1, #8, #8
 520 00f4 6971     		strb	r1, [r5, #5]
 521              	.L32:
 922:.\Generated_Source\PSoC5/USBFS_std.c ****         }
 522              		.loc 1 922 0 discriminator 2
 523 00f6 0832     		adds	r2, r2, #8
 524              	.LVL38:
 832:.\Generated_Source\PSoC5/USBFS_std.c ****         {
 525              		.loc 1 832 0 discriminator 2
 526 00f8 0133     		adds	r3, r3, #1
 527              	.LVL39:
 528 00fa DBB2     		uxtb	r3, r3
 529              	.LVL40:
 530              	.L31:
 832:.\Generated_Source\PSoC5/USBFS_std.c ****         {
 531              		.loc 1 832 0 is_stmt 0 discriminator 1
ARM GAS  C:\Users\LAIR\AppData\Local\Temp\cc5n6lZj.s 			page 28


 532 00fc A342     		cmp	r3, r4
 533 00fe 92D3     		bcc	.L37
 534              	.LVL41:
 535              	.L29:
 536 0100 F8BD     		pop	{r3, r4, r5, r6, r7, pc}
 537              	.L42:
 538 0102 00BF     		.align	2
 539              	.L41:
 540 0104 00000000 		.word	USBFS_configuration
 541 0108 00000000 		.word	USBFS_interfaceNumber
 542 010c 00000000 		.word	USBFS_interfaceSetting
 543 0110 00000000 		.word	USBFS_EP
 544 0114 70600040 		.word	1073766512
 545 0118 FC5F0040 		.word	1073766396
 546              		.cfi_endproc
 547              	.LFE5:
 548              		.size	USBFS_ConfigAltChanged, .-USBFS_ConfigAltChanged
 549              		.section	.text.USBFS_GetDeviceTablePtr,"ax",%progbits
 550              		.align	2
 551              		.global	USBFS_GetDeviceTablePtr
 552              		.thumb
 553              		.thumb_func
 554              		.type	USBFS_GetDeviceTablePtr, %function
 555              	USBFS_GetDeviceTablePtr:
 556              	.LFB7:
 968:.\Generated_Source\PSoC5/USBFS_std.c **** 
 969:.\Generated_Source\PSoC5/USBFS_std.c **** 
 970:.\Generated_Source\PSoC5/USBFS_std.c **** #if (USBFS_BOS_ENABLE)
 971:.\Generated_Source\PSoC5/USBFS_std.c ****     /*******************************************************************************
 972:.\Generated_Source\PSoC5/USBFS_std.c ****     * Function Name: USBFS_GetBOSPtr
 973:.\Generated_Source\PSoC5/USBFS_std.c ****     ****************************************************************************//**
 974:.\Generated_Source\PSoC5/USBFS_std.c ****     *
 975:.\Generated_Source\PSoC5/USBFS_std.c ****     *  This routine returns a pointer a BOS table entry
 976:.\Generated_Source\PSoC5/USBFS_std.c ****     *
 977:.\Generated_Source\PSoC5/USBFS_std.c ****     *  
 978:.\Generated_Source\PSoC5/USBFS_std.c ****     *
 979:.\Generated_Source\PSoC5/USBFS_std.c ****     * \return
 980:.\Generated_Source\PSoC5/USBFS_std.c ****     *  BOS Descriptor pointer or NULL when descriptor does not exist.
 981:.\Generated_Source\PSoC5/USBFS_std.c ****     *
 982:.\Generated_Source\PSoC5/USBFS_std.c ****     *******************************************************************************/
 983:.\Generated_Source\PSoC5/USBFS_std.c ****     const T_USBFS_LUT CYCODE *USBFS_GetBOSPtr(void)
 984:.\Generated_Source\PSoC5/USBFS_std.c ****                                                             
 985:.\Generated_Source\PSoC5/USBFS_std.c ****     {
 986:.\Generated_Source\PSoC5/USBFS_std.c ****         /* Device Table */
 987:.\Generated_Source\PSoC5/USBFS_std.c ****         const T_USBFS_LUT CYCODE *pTmp;
 988:.\Generated_Source\PSoC5/USBFS_std.c **** 
 989:.\Generated_Source\PSoC5/USBFS_std.c ****         pTmp = (const T_USBFS_LUT CYCODE *) USBFS_TABLE[USBFS_device].p_list;
 990:.\Generated_Source\PSoC5/USBFS_std.c **** 
 991:.\Generated_Source\PSoC5/USBFS_std.c ****         /* The first entry points to the Device Descriptor,
 992:.\Generated_Source\PSoC5/USBFS_std.c ****         *  the second entry points to the BOS Descriptor
 993:.\Generated_Source\PSoC5/USBFS_std.c ****         */
 994:.\Generated_Source\PSoC5/USBFS_std.c ****         pTmp = &pTmp[1u];
 995:.\Generated_Source\PSoC5/USBFS_std.c ****         pTmp = (const T_USBFS_LUT CYCODE *) pTmp->p_list;
 996:.\Generated_Source\PSoC5/USBFS_std.c ****         return (pTmp);
 997:.\Generated_Source\PSoC5/USBFS_std.c ****     }
 998:.\Generated_Source\PSoC5/USBFS_std.c **** #endif /* (USBFS_BOS_ENABLE) */
 999:.\Generated_Source\PSoC5/USBFS_std.c **** 
ARM GAS  C:\Users\LAIR\AppData\Local\Temp\cc5n6lZj.s 			page 29


1000:.\Generated_Source\PSoC5/USBFS_std.c **** 
1001:.\Generated_Source\PSoC5/USBFS_std.c **** /*******************************************************************************
1002:.\Generated_Source\PSoC5/USBFS_std.c **** * Function Name: USBFS_GetDeviceTablePtr
1003:.\Generated_Source\PSoC5/USBFS_std.c **** ****************************************************************************//**
1004:.\Generated_Source\PSoC5/USBFS_std.c **** *
1005:.\Generated_Source\PSoC5/USBFS_std.c **** *  This routine returns a pointer to the Device table
1006:.\Generated_Source\PSoC5/USBFS_std.c **** *
1007:.\Generated_Source\PSoC5/USBFS_std.c **** * \return
1008:.\Generated_Source\PSoC5/USBFS_std.c **** *  Device Table pointer
1009:.\Generated_Source\PSoC5/USBFS_std.c **** *
1010:.\Generated_Source\PSoC5/USBFS_std.c **** *******************************************************************************/
1011:.\Generated_Source\PSoC5/USBFS_std.c **** const T_USBFS_LUT CYCODE *USBFS_GetDeviceTablePtr(void)
1012:.\Generated_Source\PSoC5/USBFS_std.c ****                                                             
1013:.\Generated_Source\PSoC5/USBFS_std.c **** {
 557              		.loc 1 1013 0 is_stmt 1
 558              		.cfi_startproc
 559              		@ args = 0, pretend = 0, frame = 0
 560              		@ frame_needed = 0, uses_anonymous_args = 0
 561              		@ link register save eliminated.
1014:.\Generated_Source\PSoC5/USBFS_std.c ****     /* Device Table */
1015:.\Generated_Source\PSoC5/USBFS_std.c ****     return( (const T_USBFS_LUT CYCODE *) USBFS_TABLE[USBFS_device].p_list );
 562              		.loc 1 1015 0
 563 0000 034B     		ldr	r3, .L44
 564 0002 1A78     		ldrb	r2, [r3]	@ zero_extendqisi2
 565 0004 034B     		ldr	r3, .L44+4
 566 0006 03EBC203 		add	r3, r3, r2, lsl #3
1016:.\Generated_Source\PSoC5/USBFS_std.c **** }
 567              		.loc 1 1016 0
 568 000a 5868     		ldr	r0, [r3, #4]
 569 000c 7047     		bx	lr
 570              	.L45:
 571 000e 00BF     		.align	2
 572              	.L44:
 573 0010 00000000 		.word	USBFS_device
 574 0014 00000000 		.word	USBFS_TABLE
 575              		.cfi_endproc
 576              	.LFE7:
 577              		.size	USBFS_GetDeviceTablePtr, .-USBFS_GetDeviceTablePtr
 578              		.section	.text.USBFS_GetInterfaceClassTablePtr,"ax",%progbits
 579              		.align	2
 580              		.global	USBFS_GetInterfaceClassTablePtr
 581              		.thumb
 582              		.thumb_func
 583              		.type	USBFS_GetInterfaceClassTablePtr, %function
 584              	USBFS_GetInterfaceClassTablePtr:
 585              	.LFB8:
1017:.\Generated_Source\PSoC5/USBFS_std.c **** 
1018:.\Generated_Source\PSoC5/USBFS_std.c **** 
1019:.\Generated_Source\PSoC5/USBFS_std.c **** /*******************************************************************************
1020:.\Generated_Source\PSoC5/USBFS_std.c **** * Function Name: USB_GetInterfaceClassTablePtr
1021:.\Generated_Source\PSoC5/USBFS_std.c **** ****************************************************************************//**
1022:.\Generated_Source\PSoC5/USBFS_std.c **** *
1023:.\Generated_Source\PSoC5/USBFS_std.c **** *  This routine returns Interface Class table pointer, which contains
1024:.\Generated_Source\PSoC5/USBFS_std.c **** *  the relation between interface number and interface class.
1025:.\Generated_Source\PSoC5/USBFS_std.c **** *
1026:.\Generated_Source\PSoC5/USBFS_std.c **** * \return
1027:.\Generated_Source\PSoC5/USBFS_std.c **** *  Interface Class table pointer.
ARM GAS  C:\Users\LAIR\AppData\Local\Temp\cc5n6lZj.s 			page 30


1028:.\Generated_Source\PSoC5/USBFS_std.c **** *
1029:.\Generated_Source\PSoC5/USBFS_std.c **** *******************************************************************************/
1030:.\Generated_Source\PSoC5/USBFS_std.c **** const uint8 CYCODE *USBFS_GetInterfaceClassTablePtr(void)
1031:.\Generated_Source\PSoC5/USBFS_std.c ****                                                         
1032:.\Generated_Source\PSoC5/USBFS_std.c **** {
 586              		.loc 1 1032 0
 587              		.cfi_startproc
 588              		@ args = 0, pretend = 0, frame = 0
 589              		@ frame_needed = 0, uses_anonymous_args = 0
 590 0000 08B5     		push	{r3, lr}
 591              		.cfi_def_cfa_offset 8
 592              		.cfi_offset 3, -8
 593              		.cfi_offset 14, -4
1033:.\Generated_Source\PSoC5/USBFS_std.c ****     const T_USBFS_LUT CYCODE *pTmp;
1034:.\Generated_Source\PSoC5/USBFS_std.c ****     const uint8 CYCODE *pInterfaceClass;
1035:.\Generated_Source\PSoC5/USBFS_std.c ****     uint8 currentInterfacesNum;
1036:.\Generated_Source\PSoC5/USBFS_std.c **** 
1037:.\Generated_Source\PSoC5/USBFS_std.c ****     pTmp = USBFS_GetConfigTablePtr(USBFS_configuration - 1u);
 594              		.loc 1 1037 0
 595 0002 074B     		ldr	r3, .L50
 596 0004 1878     		ldrb	r0, [r3]	@ zero_extendqisi2
 597 0006 0138     		subs	r0, r0, #1
 598 0008 C0B2     		uxtb	r0, r0
 599 000a FFF7FEFF 		bl	USBFS_GetConfigTablePtr
 600              	.LVL42:
1038:.\Generated_Source\PSoC5/USBFS_std.c ****     if (pTmp != NULL)
 601              		.loc 1 1038 0
 602 000e 28B1     		cbz	r0, .L48
1039:.\Generated_Source\PSoC5/USBFS_std.c ****     {
1040:.\Generated_Source\PSoC5/USBFS_std.c ****         currentInterfacesNum  = ((const uint8 *) pTmp->p_list)[USBFS_CONFIG_DESCR_NUM_INTERFACES];
 603              		.loc 1 1040 0
 604 0010 4268     		ldr	r2, [r0, #4]
 605 0012 1279     		ldrb	r2, [r2, #4]	@ zero_extendqisi2
 606              	.LVL43:
1041:.\Generated_Source\PSoC5/USBFS_std.c ****         /* Third entry in the LUT starts the Interface Table pointers */
1042:.\Generated_Source\PSoC5/USBFS_std.c ****         /* The INTERFACE_CLASS table is located after all interfaces */
1043:.\Generated_Source\PSoC5/USBFS_std.c ****         pTmp = &pTmp[currentInterfacesNum + 2u];
 607              		.loc 1 1043 0
 608 0014 00EBC203 		add	r3, r0, r2, lsl #3
 609              	.LVL44:
1044:.\Generated_Source\PSoC5/USBFS_std.c ****         pInterfaceClass = (const uint8 CYCODE *) pTmp->p_list;
 610              		.loc 1 1044 0
 611 0018 5869     		ldr	r0, [r3, #20]
 612              	.LVL45:
 613 001a 08BD     		pop	{r3, pc}
 614              	.LVL46:
 615              	.L48:
1045:.\Generated_Source\PSoC5/USBFS_std.c ****     }
1046:.\Generated_Source\PSoC5/USBFS_std.c ****     else
1047:.\Generated_Source\PSoC5/USBFS_std.c ****     {
1048:.\Generated_Source\PSoC5/USBFS_std.c ****         pInterfaceClass = (const uint8 CYCODE *) NULL;
 616              		.loc 1 1048 0
 617 001c 0020     		movs	r0, #0
 618              	.LVL47:
1049:.\Generated_Source\PSoC5/USBFS_std.c ****     }
1050:.\Generated_Source\PSoC5/USBFS_std.c **** 
1051:.\Generated_Source\PSoC5/USBFS_std.c ****     return (pInterfaceClass);
ARM GAS  C:\Users\LAIR\AppData\Local\Temp\cc5n6lZj.s 			page 31


1052:.\Generated_Source\PSoC5/USBFS_std.c **** }
 619              		.loc 1 1052 0
 620 001e 08BD     		pop	{r3, pc}
 621              	.L51:
 622              		.align	2
 623              	.L50:
 624 0020 00000000 		.word	USBFS_configuration
 625              		.cfi_endproc
 626              	.LFE8:
 627              		.size	USBFS_GetInterfaceClassTablePtr, .-USBFS_GetInterfaceClassTablePtr
 628              		.section	.text.USBFS_Config,"ax",%progbits
 629              		.align	2
 630              		.global	USBFS_Config
 631              		.thumb
 632              		.thumb_func
 633              		.type	USBFS_Config, %function
 634              	USBFS_Config:
 635              	.LFB4:
 571:.\Generated_Source\PSoC5/USBFS_std.c ****     uint8 ep;
 636              		.loc 1 571 0
 637              		.cfi_startproc
 638              		@ args = 0, pretend = 0, frame = 0
 639              		@ frame_needed = 0, uses_anonymous_args = 0
 640              	.LVL48:
 641 0000 F8B5     		push	{r3, r4, r5, r6, r7, lr}
 642              		.cfi_def_cfa_offset 24
 643              		.cfi_offset 3, -24
 644              		.cfi_offset 4, -20
 645              		.cfi_offset 5, -16
 646              		.cfi_offset 6, -12
 647              		.cfi_offset 7, -8
 648              		.cfi_offset 14, -4
 649              	.LVL49:
 586:.\Generated_Source\PSoC5/USBFS_std.c ****     {
 650              		.loc 1 586 0
 651 0002 0022     		movs	r2, #0
 652 0004 0EE0     		b	.L53
 653              	.LVL50:
 654              	.L54:
 588:.\Generated_Source\PSoC5/USBFS_std.c ****         USBFS_EP[ep].hwEpState  = 0u;
 655              		.loc 1 588 0 discriminator 3
 656 0006 674E     		ldr	r6, .L78
 657 0008 5300     		lsls	r3, r2, #1
 658 000a 9D18     		adds	r5, r3, r2
 659 000c AD00     		lsls	r5, r5, #2
 660 000e 7419     		adds	r4, r6, r5
 661 0010 0021     		movs	r1, #0
 662 0012 7155     		strb	r1, [r6, r5]
 589:.\Generated_Source\PSoC5/USBFS_std.c ****         USBFS_EP[ep].epToggle   = 0u;
 663              		.loc 1 589 0 discriminator 3
 664 0014 A170     		strb	r1, [r4, #2]
 590:.\Generated_Source\PSoC5/USBFS_std.c ****         USBFS_EP[ep].bufferSize = 0u;
 665              		.loc 1 590 0 discriminator 3
 666 0016 E170     		strb	r1, [r4, #3]
 591:.\Generated_Source\PSoC5/USBFS_std.c ****         USBFS_EP[ep].interface  = 0u;
 667              		.loc 1 591 0 discriminator 3
 668 0018 2181     		strh	r1, [r4, #8]	@ movhi
ARM GAS  C:\Users\LAIR\AppData\Local\Temp\cc5n6lZj.s 			page 32


 592:.\Generated_Source\PSoC5/USBFS_std.c ****         USBFS_EP[ep].apiEpState = USBFS_NO_EVENT_PENDING;
 669              		.loc 1 592 0 discriminator 3
 670 001a A172     		strb	r1, [r4, #10]
 593:.\Generated_Source\PSoC5/USBFS_std.c ****         USBFS_EP[ep].epMode     = USBFS_MODE_DISABLE;   
 671              		.loc 1 593 0 discriminator 3
 672 001c 6170     		strb	r1, [r4, #1]
 594:.\Generated_Source\PSoC5/USBFS_std.c ****     }
 673              		.loc 1 594 0 discriminator 3
 674 001e 6171     		strb	r1, [r4, #5]
 586:.\Generated_Source\PSoC5/USBFS_std.c ****     {
 675              		.loc 1 586 0 discriminator 3
 676 0020 0132     		adds	r2, r2, #1
 677              	.LVL51:
 678 0022 D2B2     		uxtb	r2, r2
 679              	.LVL52:
 680              	.L53:
 586:.\Generated_Source\PSoC5/USBFS_std.c ****     {
 681              		.loc 1 586 0 is_stmt 0 discriminator 1
 682 0024 082A     		cmp	r2, #8
 683 0026 EED9     		bls	.L54
 598:.\Generated_Source\PSoC5/USBFS_std.c ****     {
 684              		.loc 1 598 0 is_stmt 1
 685 0028 40B9     		cbnz	r0, .L74
 686 002a 0AE0     		b	.L56
 687              	.LVL53:
 688              	.L57:
 602:.\Generated_Source\PSoC5/USBFS_std.c ****             USBFS_interfaceSettingLast[i] = 0u;
 689              		.loc 1 602 0 discriminator 3
 690 002c 0022     		movs	r2, #0
 691 002e 5E49     		ldr	r1, .L78+4
 692 0030 CA54     		strb	r2, [r1, r3]
 603:.\Generated_Source\PSoC5/USBFS_std.c ****         }
 693              		.loc 1 603 0 discriminator 3
 694 0032 5E49     		ldr	r1, .L78+8
 695 0034 CA54     		strb	r2, [r1, r3]
 600:.\Generated_Source\PSoC5/USBFS_std.c ****         {
 696              		.loc 1 600 0 discriminator 3
 697 0036 0133     		adds	r3, r3, #1
 698              	.LVL54:
 699 0038 DBB2     		uxtb	r3, r3
 700              	.LVL55:
 701 003a 00E0     		b	.L55
 702              	.LVL56:
 703              	.L74:
 704 003c 0023     		movs	r3, #0
 705              	.LVL57:
 706              	.L55:
 600:.\Generated_Source\PSoC5/USBFS_std.c ****         {
 707              		.loc 1 600 0 is_stmt 0 discriminator 1
 708 003e 002B     		cmp	r3, #0
 709 0040 F4D0     		beq	.L57
 710              	.LVL58:
 711              	.L56:
 608:.\Generated_Source\PSoC5/USBFS_std.c ****     {
 712              		.loc 1 608 0 is_stmt 1
 713 0042 5B4B     		ldr	r3, .L78+12
 714 0044 1B78     		ldrb	r3, [r3]	@ zero_extendqisi2
ARM GAS  C:\Users\LAIR\AppData\Local\Temp\cc5n6lZj.s 			page 33


 715 0046 13F0FF0F 		tst	r3, #255
 716 004a 00F0A980 		beq	.L52
 614:.\Generated_Source\PSoC5/USBFS_std.c ****         
 717              		.loc 1 614 0
 718 004e 584B     		ldr	r3, .L78+12
 719 0050 1878     		ldrb	r0, [r3]	@ zero_extendqisi2
 720              	.LVL59:
 721 0052 0138     		subs	r0, r0, #1
 722 0054 C0B2     		uxtb	r0, r0
 723 0056 FFF7FEFF 		bl	USBFS_GetConfigTablePtr
 724              	.LVL60:
 617:.\Generated_Source\PSoC5/USBFS_std.c ****         if ((pDescr[USBFS_CONFIG_DESCR_ATTRIB] & USBFS_CONFIG_DESCR_ATTRIB_SELF_POWERED) != 0u)
 725              		.loc 1 617 0
 726 005a 4368     		ldr	r3, [r0, #4]
 727              	.LVL61:
 618:.\Generated_Source\PSoC5/USBFS_std.c ****         {
 728              		.loc 1 618 0
 729 005c DB79     		ldrb	r3, [r3, #7]	@ zero_extendqisi2
 730              	.LVL62:
 731 005e 13F0400F 		tst	r3, #64
 732 0062 05D0     		beq	.L59
 620:.\Generated_Source\PSoC5/USBFS_std.c ****         }
 733              		.loc 1 620 0
 734 0064 534A     		ldr	r2, .L78+16
 735 0066 1378     		ldrb	r3, [r2]	@ zero_extendqisi2
 736 0068 43F00103 		orr	r3, r3, #1
 737 006c 1370     		strb	r3, [r2]
 738 006e 04E0     		b	.L60
 739              	.L59:
 624:.\Generated_Source\PSoC5/USBFS_std.c ****         }
 740              		.loc 1 624 0
 741 0070 504A     		ldr	r2, .L78+16
 742 0072 1378     		ldrb	r3, [r2]	@ zero_extendqisi2
 743 0074 03F0FE03 		and	r3, r3, #254
 744 0078 1370     		strb	r3, [r2]
 745              	.L60:
 746              	.LVL63:
 629:.\Generated_Source\PSoC5/USBFS_std.c **** 
 747              		.loc 1 629 0
 748 007a 057A     		ldrb	r5, [r0, #8]	@ zero_extendqisi2
 749              	.LVL64:
 687:.\Generated_Source\PSoC5/USBFS_std.c ****             {
 750              		.loc 1 687 0
 751 007c 0124     		movs	r4, #1
 752 007e 61E0     		b	.L61
 753              	.LVL65:
 754              	.L69:
 690:.\Generated_Source\PSoC5/USBFS_std.c ****                 /* Find max length for each EP and select it (length could be different in differen
 755              		.loc 1 690 0
 756 0080 C168     		ldr	r1, [r0, #12]
 757              	.LVL66:
 694:.\Generated_Source\PSoC5/USBFS_std.c ****                 {
 758              		.loc 1 694 0
 759 0082 0023     		movs	r3, #0
 760 0084 5AE0     		b	.L62
 761              	.LVL67:
 762              	.L68:
ARM GAS  C:\Users\LAIR\AppData\Local\Temp\cc5n6lZj.s 			page 34


 696:.\Generated_Source\PSoC5/USBFS_std.c ****                     {
 763              		.loc 1 696 0
 764 0086 8A78     		ldrb	r2, [r1, #2]	@ zero_extendqisi2
 765 0088 02F07F02 		and	r2, r2, #127
 766 008c 9442     		cmp	r4, r2
 767 008e 52D1     		bne	.L63
 699:.\Generated_Source\PSoC5/USBFS_std.c ****                         {
 768              		.loc 1 699 0
 769 0090 2646     		mov	r6, r4
 770 0092 04EB4402 		add	r2, r4, r4, lsl #1
 771 0096 9200     		lsls	r2, r2, #2
 772 0098 424F     		ldr	r7, .L78
 773 009a 3A44     		add	r2, r2, r7
 774 009c 1289     		ldrh	r2, [r2, #8]
 775 009e 92B2     		uxth	r2, r2
 776 00a0 8F88     		ldrh	r7, [r1, #4]
 777 00a2 BA42     		cmp	r2, r7
 778 00a4 06D2     		bcs	.L64
 701:.\Generated_Source\PSoC5/USBFS_std.c ****                         }
 779              		.loc 1 701 0
 780 00a6 04EB4402 		add	r2, r4, r4, lsl #1
 781 00aa 9200     		lsls	r2, r2, #2
 782 00ac DFF8F4E0 		ldr	lr, .L78
 783 00b0 7244     		add	r2, r2, lr
 784 00b2 1781     		strh	r7, [r2, #8]	@ movhi
 785              	.L64:
 705:.\Generated_Source\PSoC5/USBFS_std.c ****                         {                            
 786              		.loc 1 705 0
 787 00b4 0A78     		ldrb	r2, [r1]	@ zero_extendqisi2
 788 00b6 3C4F     		ldr	r7, .L78+4
 789 00b8 BA5C     		ldrb	r2, [r7, r2]	@ zero_extendqisi2
 790 00ba D2B2     		uxtb	r2, r2
 791 00bc 4F78     		ldrb	r7, [r1, #1]	@ zero_extendqisi2
 792 00be BA42     		cmp	r2, r7
 793 00c0 39D1     		bne	.L63
 707:.\Generated_Source\PSoC5/USBFS_std.c ****                             USBFS_EP[i].attrib = pEP->attributes;
 794              		.loc 1 707 0
 795 00c2 91F802C0 		ldrb	ip, [r1, #2]	@ zero_extendqisi2
 796 00c6 374F     		ldr	r7, .L78
 797 00c8 7200     		lsls	r2, r6, #1
 798 00ca 3244     		add	r2, r2, r6
 799 00cc 9200     		lsls	r2, r2, #2
 800 00ce 07EB020E 		add	lr, r7, r2
 801 00d2 8EF804C0 		strb	ip, [lr, #4]
 708:.\Generated_Source\PSoC5/USBFS_std.c ****                             
 802              		.loc 1 708 0
 803 00d6 91F803E0 		ldrb	lr, [r1, #3]	@ zero_extendqisi2
 804 00da 07F802E0 		strb	lr, [r7, r2]
 710:.\Generated_Source\PSoC5/USBFS_std.c ****                             
 805              		.loc 1 710 0
 806 00de CA78     		ldrb	r2, [r1, #3]	@ zero_extendqisi2
 807 00e0 02F00302 		and	r2, r2, #3
 808              	.LVL68:
 712:.\Generated_Source\PSoC5/USBFS_std.c ****                             {
 809              		.loc 1 712 0
 810 00e4 91F90270 		ldrsb	r7, [r1, #2]
 811 00e8 002F     		cmp	r7, #0
ARM GAS  C:\Users\LAIR\AppData\Local\Temp\cc5n6lZj.s 			page 35


 812 00ea 11DA     		bge	.L65
 715:.\Generated_Source\PSoC5/USBFS_std.c ****                                 USBFS_EP[i].apiEpState = USBFS_EVENT_PENDING;
 813              		.loc 1 715 0
 814 00ec 012A     		cmp	r2, #1
 815 00ee 02D1     		bne	.L75
 816 00f0 4FF0070C 		mov	ip, #7
 817 00f4 01E0     		b	.L66
 818              	.L75:
 819 00f6 4FF00D0C 		mov	ip, #13
 820              	.L66:
 715:.\Generated_Source\PSoC5/USBFS_std.c ****                                 USBFS_EP[i].apiEpState = USBFS_EVENT_PENDING;
 821              		.loc 1 715 0 is_stmt 0 discriminator 4
 822 00fa DFF8A8E0 		ldr	lr, .L78
 823 00fe 7200     		lsls	r2, r6, #1
 824              	.LVL69:
 825 0100 9719     		adds	r7, r2, r6
 826 0102 BF00     		lsls	r7, r7, #2
 827 0104 7744     		add	r7, r7, lr
 828 0106 87F805C0 		strb	ip, [r7, #5]
 829              	.LVL70:
 716:.\Generated_Source\PSoC5/USBFS_std.c ****                                 
 830              		.loc 1 716 0 is_stmt 1 discriminator 4
 831 010a 0122     		movs	r2, #1
 832 010c 7A70     		strb	r2, [r7, #1]
 833 010e 12E0     		b	.L63
 834              	.LVL71:
 835              	.L65:
 728:.\Generated_Source\PSoC5/USBFS_std.c ****                                 USBFS_EP[i].apiEpState = USBFS_NO_EVENT_PENDING;
 836              		.loc 1 728 0
 837 0110 012A     		cmp	r2, #1
 838 0112 02D1     		bne	.L76
 839 0114 4FF0050C 		mov	ip, #5
 840 0118 01E0     		b	.L67
 841              	.L76:
 842 011a 4FF0090C 		mov	ip, #9
 843              	.L67:
 728:.\Generated_Source\PSoC5/USBFS_std.c ****                                 USBFS_EP[i].apiEpState = USBFS_NO_EVENT_PENDING;
 844              		.loc 1 728 0 is_stmt 0 discriminator 4
 845 011e 214F     		ldr	r7, .L78
 846 0120 4FEA460E 		lsl	lr, r6, #1
 847 0124 0EEB0602 		add	r2, lr, r6
 848              	.LVL72:
 849 0128 9200     		lsls	r2, r2, #2
 850 012a 3A44     		add	r2, r2, r7
 851 012c 82F805C0 		strb	ip, [r2, #5]
 852              	.LVL73:
 729:.\Generated_Source\PSoC5/USBFS_std.c ****                                 
 853              		.loc 1 729 0 is_stmt 1 discriminator 4
 854 0130 1646     		mov	r6, r2
 855 0132 0022     		movs	r2, #0
 856 0134 7270     		strb	r2, [r6, #1]
 857              	.L63:
 752:.\Generated_Source\PSoC5/USBFS_std.c ****                 }
 858              		.loc 1 752 0 discriminator 2
 859 0136 0831     		adds	r1, r1, #8
 860              	.LVL74:
 694:.\Generated_Source\PSoC5/USBFS_std.c ****                 {
ARM GAS  C:\Users\LAIR\AppData\Local\Temp\cc5n6lZj.s 			page 36


 861              		.loc 1 694 0 discriminator 2
 862 0138 0133     		adds	r3, r3, #1
 863              	.LVL75:
 864 013a DBB2     		uxtb	r3, r3
 865              	.LVL76:
 866              	.L62:
 694:.\Generated_Source\PSoC5/USBFS_std.c ****                 {
 867              		.loc 1 694 0 is_stmt 0 discriminator 1
 868 013c AB42     		cmp	r3, r5
 869 013e A2D3     		bcc	.L68
 687:.\Generated_Source\PSoC5/USBFS_std.c ****             {
 870              		.loc 1 687 0 is_stmt 1 discriminator 2
 871 0140 0134     		adds	r4, r4, #1
 872              	.LVL77:
 873 0142 E4B2     		uxtb	r4, r4
 874              	.LVL78:
 875              	.L61:
 687:.\Generated_Source\PSoC5/USBFS_std.c ****             {
 876              		.loc 1 687 0 is_stmt 0 discriminator 1
 877 0144 082C     		cmp	r4, #8
 878 0146 9BD9     		bls	.L69
 762:.\Generated_Source\PSoC5/USBFS_std.c ****         for (i = 0u; i < ep; i++)
 879              		.loc 1 762 0 is_stmt 1
 880 0148 C068     		ldr	r0, [r0, #12]
 881              	.LVL79:
 763:.\Generated_Source\PSoC5/USBFS_std.c ****         {
 882              		.loc 1 763 0
 883 014a 0022     		movs	r2, #0
 884 014c 0CE0     		b	.L70
 885              	.LVL80:
 886              	.L71:
 766:.\Generated_Source\PSoC5/USBFS_std.c ****             pEP = &pEP[1u];
 887              		.loc 1 766 0 discriminator 3
 888 014e 8378     		ldrb	r3, [r0, #2]	@ zero_extendqisi2
 889 0150 03F07F03 		and	r3, r3, #127
 890 0154 10F8084B 		ldrb	r4, [r0], #8	@ zero_extendqisi2
 891              	.LVL81:
 892 0158 03EB4303 		add	r3, r3, r3, lsl #1
 893 015c 9B00     		lsls	r3, r3, #2
 894 015e 1649     		ldr	r1, .L78+20
 895 0160 0B44     		add	r3, r3, r1
 896 0162 9C70     		strb	r4, [r3, #2]
 897              	.LVL82:
 763:.\Generated_Source\PSoC5/USBFS_std.c ****         {
 898              		.loc 1 763 0 discriminator 3
 899 0164 0132     		adds	r2, r2, #1
 900              	.LVL83:
 901 0166 D2B2     		uxtb	r2, r2
 902              	.LVL84:
 903              	.L70:
 763:.\Generated_Source\PSoC5/USBFS_std.c ****         {
 904              		.loc 1 763 0 is_stmt 0 discriminator 1
 905 0168 AA42     		cmp	r2, r5
 906 016a F0D3     		bcc	.L71
 771:.\Generated_Source\PSoC5/USBFS_std.c ****         
 907              		.loc 1 771 0 is_stmt 1
 908 016c FFF7FEFF 		bl	USBFS_GetInterfaceClassTablePtr
ARM GAS  C:\Users\LAIR\AppData\Local\Temp\cc5n6lZj.s 			page 37


 909              	.LVL85:
 910 0170 124B     		ldr	r3, .L78+24
 911 0172 1860     		str	r0, [r3]
 912              	.LVL86:
 775:.\Generated_Source\PSoC5/USBFS_std.c ****         for (ep = USBFS_EP1; ep < USBFS_MAX_EP; ++ep)
 913              		.loc 1 775 0
 914 0174 0023     		movs	r3, #0
 776:.\Generated_Source\PSoC5/USBFS_std.c ****         {
 915              		.loc 1 776 0
 916 0176 0121     		movs	r1, #1
 917 0178 0EE0     		b	.L72
 918              	.LVL87:
 919              	.L73:
 778:.\Generated_Source\PSoC5/USBFS_std.c ****             buffCount += USBFS_EP[ep].bufferSize;
 920              		.loc 1 778 0 discriminator 3
 921 017a 0A4C     		ldr	r4, .L78
 922 017c 4A00     		lsls	r2, r1, #1
 923 017e 5018     		adds	r0, r2, r1
 924 0180 8000     		lsls	r0, r0, #2
 925 0182 2044     		add	r0, r0, r4
 926 0184 C380     		strh	r3, [r0, #6]	@ movhi
 779:.\Generated_Source\PSoC5/USBFS_std.c ****             
 927              		.loc 1 779 0 discriminator 3
 928 0186 0289     		ldrh	r2, [r0, #8]
 929 0188 1344     		add	r3, r3, r2
 930              	.LVL88:
 931 018a 9BB2     		uxth	r3, r3
 932              	.LVL89:
 783:.\Generated_Source\PSoC5/USBFS_std.c ****         #endif /* (USBFS_GEN_16BITS_EP_ACCESS) */            
 933              		.loc 1 783 0 discriminator 3
 934 018c 03F00102 		and	r2, r3, #1
 935 0190 1344     		add	r3, r3, r2
 936              	.LVL90:
 937 0192 9BB2     		uxth	r3, r3
 938              	.LVL91:
 776:.\Generated_Source\PSoC5/USBFS_std.c ****         {
 939              		.loc 1 776 0 discriminator 3
 940 0194 0131     		adds	r1, r1, #1
 941              	.LVL92:
 942 0196 C9B2     		uxtb	r1, r1
 943              	.LVL93:
 944              	.L72:
 776:.\Generated_Source\PSoC5/USBFS_std.c ****         {
 945              		.loc 1 776 0 is_stmt 0 discriminator 1
 946 0198 0829     		cmp	r1, #8
 947 019a EED9     		bls	.L73
 789:.\Generated_Source\PSoC5/USBFS_std.c ****     }
 948              		.loc 1 789 0 is_stmt 1
 949 019c FFF7FEFF 		bl	USBFS_ConfigReg
 950              	.LVL94:
 951              	.L52:
 952 01a0 F8BD     		pop	{r3, r4, r5, r6, r7, pc}
 953              	.L79:
 954 01a2 00BF     		.align	2
 955              	.L78:
 956 01a4 00000000 		.word	USBFS_EP
 957 01a8 00000000 		.word	USBFS_interfaceSetting
ARM GAS  C:\Users\LAIR\AppData\Local\Temp\cc5n6lZj.s 			page 38


 958 01ac 00000000 		.word	USBFS_interfaceSettingLast
 959 01b0 00000000 		.word	USBFS_configuration
 960 01b4 00000000 		.word	USBFS_deviceStatus
 961 01b8 08000000 		.word	USBFS_EP+8
 962 01bc 00000000 		.word	USBFS_interfaceClass
 963              		.cfi_endproc
 964              	.LFE4:
 965              		.size	USBFS_Config, .-USBFS_Config
 966              		.section	.text.USBFS_TerminateEP,"ax",%progbits
 967              		.align	2
 968              		.global	USBFS_TerminateEP
 969              		.thumb
 970              		.thumb_func
 971              		.type	USBFS_TerminateEP, %function
 972              	USBFS_TerminateEP:
 973              	.LFB9:
1053:.\Generated_Source\PSoC5/USBFS_std.c **** 
1054:.\Generated_Source\PSoC5/USBFS_std.c **** 
1055:.\Generated_Source\PSoC5/USBFS_std.c **** /*******************************************************************************
1056:.\Generated_Source\PSoC5/USBFS_std.c **** * Function Name: USBFS_TerminateEP
1057:.\Generated_Source\PSoC5/USBFS_std.c **** ****************************************************************************//**
1058:.\Generated_Source\PSoC5/USBFS_std.c **** *
1059:.\Generated_Source\PSoC5/USBFS_std.c **** *  This function terminates the specified USBFS endpoint.
1060:.\Generated_Source\PSoC5/USBFS_std.c **** *  This function should be used before endpoint reconfiguration.
1061:.\Generated_Source\PSoC5/USBFS_std.c **** *
1062:.\Generated_Source\PSoC5/USBFS_std.c **** *  \param ep Contains the data endpoint number.
1063:.\Generated_Source\PSoC5/USBFS_std.c **** *
1064:.\Generated_Source\PSoC5/USBFS_std.c **** *  \reentrant
1065:.\Generated_Source\PSoC5/USBFS_std.c **** *  No.
1066:.\Generated_Source\PSoC5/USBFS_std.c **** *
1067:.\Generated_Source\PSoC5/USBFS_std.c **** * \sideeffect
1068:.\Generated_Source\PSoC5/USBFS_std.c **** * 
1069:.\Generated_Source\PSoC5/USBFS_std.c **** * The device responds with a NAK for any transactions on the selected endpoint.
1070:.\Generated_Source\PSoC5/USBFS_std.c **** *   
1071:.\Generated_Source\PSoC5/USBFS_std.c **** *******************************************************************************/
1072:.\Generated_Source\PSoC5/USBFS_std.c **** void USBFS_TerminateEP(uint8 epNumber) 
1073:.\Generated_Source\PSoC5/USBFS_std.c **** {
 974              		.loc 1 1073 0
 975              		.cfi_startproc
 976              		@ args = 0, pretend = 0, frame = 0
 977              		@ frame_needed = 0, uses_anonymous_args = 0
 978              		@ link register save eliminated.
 979              	.LVL95:
1074:.\Generated_Source\PSoC5/USBFS_std.c ****     /* Get endpoint number */
1075:.\Generated_Source\PSoC5/USBFS_std.c ****     epNumber &= USBFS_DIR_UNUSED;
 980              		.loc 1 1075 0
 981 0000 00F07F00 		and	r0, r0, #127
 982              	.LVL96:
1076:.\Generated_Source\PSoC5/USBFS_std.c **** 
1077:.\Generated_Source\PSoC5/USBFS_std.c ****     if ((epNumber > USBFS_EP0) && (epNumber < USBFS_MAX_EP))
 983              		.loc 1 1077 0
 984 0004 431E     		subs	r3, r0, #1
 985 0006 DBB2     		uxtb	r3, r3
 986 0008 072B     		cmp	r3, #7
 987 000a 19D8     		bhi	.L80
1078:.\Generated_Source\PSoC5/USBFS_std.c ****     {
1079:.\Generated_Source\PSoC5/USBFS_std.c ****         /* Set the endpoint Halt */
ARM GAS  C:\Users\LAIR\AppData\Local\Temp\cc5n6lZj.s 			page 39


1080:.\Generated_Source\PSoC5/USBFS_std.c ****         USBFS_EP[epNumber].hwEpState |= USBFS_ENDPOINT_STATUS_HALT;
 988              		.loc 1 1080 0
 989 000c 4300     		lsls	r3, r0, #1
 990 000e 0344     		add	r3, r3, r0
 991 0010 9B00     		lsls	r3, r3, #2
 992 0012 0C4A     		ldr	r2, .L83
 993 0014 1344     		add	r3, r3, r2
 994 0016 9A78     		ldrb	r2, [r3, #2]	@ zero_extendqisi2
 995 0018 42F00102 		orr	r2, r2, #1
 996 001c 9A70     		strb	r2, [r3, #2]
1081:.\Generated_Source\PSoC5/USBFS_std.c **** 
1082:.\Generated_Source\PSoC5/USBFS_std.c ****         /* Clear the data toggle */
1083:.\Generated_Source\PSoC5/USBFS_std.c ****         USBFS_EP[epNumber].epToggle = 0u;
 997              		.loc 1 1083 0
 998 001e 0022     		movs	r2, #0
 999 0020 DA70     		strb	r2, [r3, #3]
1084:.\Generated_Source\PSoC5/USBFS_std.c ****         USBFS_EP[epNumber].apiEpState = USBFS_NO_EVENT_ALLOWED;
 1000              		.loc 1 1084 0
 1001 0022 0222     		movs	r2, #2
 1002 0024 5A70     		strb	r2, [r3, #1]
1085:.\Generated_Source\PSoC5/USBFS_std.c **** 
1086:.\Generated_Source\PSoC5/USBFS_std.c ****         if ((USBFS_EP[epNumber].addr & USBFS_DIR_IN) != 0u)
 1003              		.loc 1 1086 0
 1004 0026 1B79     		ldrb	r3, [r3, #4]	@ zero_extendqisi2
 1005 0028 13F0800F 		tst	r3, #128
 1006 002c 04D0     		beq	.L82
1087:.\Generated_Source\PSoC5/USBFS_std.c ****         {   
1088:.\Generated_Source\PSoC5/USBFS_std.c ****             /* IN Endpoint */
1089:.\Generated_Source\PSoC5/USBFS_std.c ****             USBFS_SIE_EP_BASE.sieEp[epNumber].epCr0 = USBFS_MODE_NAK_IN;
 1007              		.loc 1 1089 0
 1008 002e 0001     		lsls	r0, r0, #4
 1009              	.LVL97:
 1010 0030 054B     		ldr	r3, .L83+4
 1011 0032 0C22     		movs	r2, #12
 1012 0034 1A54     		strb	r2, [r3, r0]
 1013 0036 7047     		bx	lr
 1014              	.LVL98:
 1015              	.L82:
1090:.\Generated_Source\PSoC5/USBFS_std.c ****         }
1091:.\Generated_Source\PSoC5/USBFS_std.c ****         else
1092:.\Generated_Source\PSoC5/USBFS_std.c ****         {
1093:.\Generated_Source\PSoC5/USBFS_std.c ****             /* OUT Endpoint */
1094:.\Generated_Source\PSoC5/USBFS_std.c ****             USBFS_SIE_EP_BASE.sieEp[epNumber].epCr0 = USBFS_MODE_NAK_OUT;
 1016              		.loc 1 1094 0
 1017 0038 0001     		lsls	r0, r0, #4
 1018              	.LVL99:
 1019 003a 034B     		ldr	r3, .L83+4
 1020 003c 0822     		movs	r2, #8
 1021 003e 1A54     		strb	r2, [r3, r0]
 1022              	.L80:
 1023 0040 7047     		bx	lr
 1024              	.L84:
 1025 0042 00BF     		.align	2
 1026              	.L83:
 1027 0044 00000000 		.word	USBFS_EP
 1028 0048 FE5F0040 		.word	1073766398
 1029              		.cfi_endproc
ARM GAS  C:\Users\LAIR\AppData\Local\Temp\cc5n6lZj.s 			page 40


 1030              	.LFE9:
 1031              		.size	USBFS_TerminateEP, .-USBFS_TerminateEP
 1032              		.section	.text.USBFS_SetEndpointHalt,"ax",%progbits
 1033              		.align	2
 1034              		.global	USBFS_SetEndpointHalt
 1035              		.thumb
 1036              		.thumb_func
 1037              		.type	USBFS_SetEndpointHalt, %function
 1038              	USBFS_SetEndpointHalt:
 1039              	.LFB10:
1095:.\Generated_Source\PSoC5/USBFS_std.c ****         }
1096:.\Generated_Source\PSoC5/USBFS_std.c ****     }
1097:.\Generated_Source\PSoC5/USBFS_std.c **** }
1098:.\Generated_Source\PSoC5/USBFS_std.c **** 
1099:.\Generated_Source\PSoC5/USBFS_std.c **** 
1100:.\Generated_Source\PSoC5/USBFS_std.c **** /*******************************************************************************
1101:.\Generated_Source\PSoC5/USBFS_std.c **** * Function Name: USBFS_SetEndpointHalt
1102:.\Generated_Source\PSoC5/USBFS_std.c **** ****************************************************************************//**
1103:.\Generated_Source\PSoC5/USBFS_std.c **** *
1104:.\Generated_Source\PSoC5/USBFS_std.c **** *  This routine handles set endpoint halt.
1105:.\Generated_Source\PSoC5/USBFS_std.c **** *
1106:.\Generated_Source\PSoC5/USBFS_std.c **** * \return
1107:.\Generated_Source\PSoC5/USBFS_std.c **** *  requestHandled.
1108:.\Generated_Source\PSoC5/USBFS_std.c **** *
1109:.\Generated_Source\PSoC5/USBFS_std.c **** * \reentrant
1110:.\Generated_Source\PSoC5/USBFS_std.c **** *  No.
1111:.\Generated_Source\PSoC5/USBFS_std.c **** *
1112:.\Generated_Source\PSoC5/USBFS_std.c **** *******************************************************************************/
1113:.\Generated_Source\PSoC5/USBFS_std.c **** uint8 USBFS_SetEndpointHalt(void) 
1114:.\Generated_Source\PSoC5/USBFS_std.c **** {
 1040              		.loc 1 1114 0
 1041              		.cfi_startproc
 1042              		@ args = 0, pretend = 0, frame = 0
 1043              		@ frame_needed = 0, uses_anonymous_args = 0
 1044 0000 08B5     		push	{r3, lr}
 1045              		.cfi_def_cfa_offset 8
 1046              		.cfi_offset 3, -8
 1047              		.cfi_offset 14, -4
 1048              	.LVL100:
1115:.\Generated_Source\PSoC5/USBFS_std.c ****     uint8 requestHandled = USBFS_FALSE;
1116:.\Generated_Source\PSoC5/USBFS_std.c ****     uint8 ep;
1117:.\Generated_Source\PSoC5/USBFS_std.c ****     
1118:.\Generated_Source\PSoC5/USBFS_std.c ****     /* Set endpoint halt */
1119:.\Generated_Source\PSoC5/USBFS_std.c ****     ep = USBFS_wIndexLoReg & USBFS_DIR_UNUSED;
 1049              		.loc 1 1119 0
 1050 0002 154B     		ldr	r3, .L91
 1051 0004 1A79     		ldrb	r2, [r3, #4]	@ zero_extendqisi2
 1052 0006 02F07F02 		and	r2, r2, #127
 1053              	.LVL101:
1120:.\Generated_Source\PSoC5/USBFS_std.c **** 
1121:.\Generated_Source\PSoC5/USBFS_std.c ****     if ((ep > USBFS_EP0) && (ep < USBFS_MAX_EP))
 1054              		.loc 1 1121 0
 1055 000a 531E     		subs	r3, r2, #1
 1056 000c DBB2     		uxtb	r3, r3
 1057 000e 072B     		cmp	r3, #7
 1058 0010 20D8     		bhi	.L89
1122:.\Generated_Source\PSoC5/USBFS_std.c ****     {
ARM GAS  C:\Users\LAIR\AppData\Local\Temp\cc5n6lZj.s 			page 41


1123:.\Generated_Source\PSoC5/USBFS_std.c ****         /* Set the endpoint Halt */
1124:.\Generated_Source\PSoC5/USBFS_std.c ****         USBFS_EP[ep].hwEpState |= (USBFS_ENDPOINT_STATUS_HALT);
 1059              		.loc 1 1124 0
 1060 0012 5300     		lsls	r3, r2, #1
 1061 0014 1344     		add	r3, r3, r2
 1062 0016 9B00     		lsls	r3, r3, #2
 1063 0018 1049     		ldr	r1, .L91+4
 1064 001a 0B44     		add	r3, r3, r1
 1065 001c 9978     		ldrb	r1, [r3, #2]	@ zero_extendqisi2
 1066 001e 41F00101 		orr	r1, r1, #1
 1067 0022 9970     		strb	r1, [r3, #2]
1125:.\Generated_Source\PSoC5/USBFS_std.c **** 
1126:.\Generated_Source\PSoC5/USBFS_std.c ****         /* Clear the data toggle */
1127:.\Generated_Source\PSoC5/USBFS_std.c ****         USBFS_EP[ep].epToggle = 0u;
 1068              		.loc 1 1127 0
 1069 0024 0021     		movs	r1, #0
 1070 0026 D970     		strb	r1, [r3, #3]
1128:.\Generated_Source\PSoC5/USBFS_std.c ****         USBFS_EP[ep].apiEpState |= USBFS_NO_EVENT_ALLOWED;
 1071              		.loc 1 1128 0
 1072 0028 5978     		ldrb	r1, [r3, #1]	@ zero_extendqisi2
 1073 002a 41F00201 		orr	r1, r1, #2
 1074 002e 5970     		strb	r1, [r3, #1]
1129:.\Generated_Source\PSoC5/USBFS_std.c **** 
1130:.\Generated_Source\PSoC5/USBFS_std.c ****         if ((USBFS_EP[ep].addr & USBFS_DIR_IN) != 0u)
 1075              		.loc 1 1130 0
 1076 0030 1B79     		ldrb	r3, [r3, #4]	@ zero_extendqisi2
 1077 0032 13F0800F 		tst	r3, #128
 1078 0036 05D0     		beq	.L87
1131:.\Generated_Source\PSoC5/USBFS_std.c ****         {
1132:.\Generated_Source\PSoC5/USBFS_std.c ****             /* IN Endpoint */
1133:.\Generated_Source\PSoC5/USBFS_std.c ****             USBFS_SIE_EP_BASE.sieEp[ep].epCr0 = (USBFS_MODE_STALL_DATA_EP | 
 1079              		.loc 1 1133 0
 1080 0038 1201     		lsls	r2, r2, #4
 1081              	.LVL102:
 1082 003a 094B     		ldr	r3, .L91+8
 1083 003c 1344     		add	r3, r3, r2
 1084 003e 8D22     		movs	r2, #141
 1085 0040 9A70     		strb	r2, [r3, #2]
 1086 0042 04E0     		b	.L88
 1087              	.LVL103:
 1088              	.L87:
1134:.\Generated_Source\PSoC5/USBFS_std.c ****                                                             USBFS_MODE_ACK_IN);
1135:.\Generated_Source\PSoC5/USBFS_std.c ****         }
1136:.\Generated_Source\PSoC5/USBFS_std.c ****         else
1137:.\Generated_Source\PSoC5/USBFS_std.c ****         {
1138:.\Generated_Source\PSoC5/USBFS_std.c ****             /* OUT Endpoint */
1139:.\Generated_Source\PSoC5/USBFS_std.c ****             USBFS_SIE_EP_BASE.sieEp[ep].epCr0 = (USBFS_MODE_STALL_DATA_EP | 
 1089              		.loc 1 1139 0
 1090 0044 1201     		lsls	r2, r2, #4
 1091              	.LVL104:
 1092 0046 064B     		ldr	r3, .L91+8
 1093 0048 1344     		add	r3, r3, r2
 1094 004a 8922     		movs	r2, #137
 1095 004c 9A70     		strb	r2, [r3, #2]
 1096              	.L88:
1140:.\Generated_Source\PSoC5/USBFS_std.c ****                                                             USBFS_MODE_ACK_OUT);
1141:.\Generated_Source\PSoC5/USBFS_std.c ****         }
ARM GAS  C:\Users\LAIR\AppData\Local\Temp\cc5n6lZj.s 			page 42


1142:.\Generated_Source\PSoC5/USBFS_std.c ****         requestHandled = USBFS_InitNoDataControlTransfer();
 1097              		.loc 1 1142 0
 1098 004e FFF7FEFF 		bl	USBFS_InitNoDataControlTransfer
 1099              	.LVL105:
 1100 0052 08BD     		pop	{r3, pc}
 1101              	.LVL106:
 1102              	.L89:
1115:.\Generated_Source\PSoC5/USBFS_std.c ****     uint8 ep;
 1103              		.loc 1 1115 0
 1104 0054 0020     		movs	r0, #0
 1105              	.LVL107:
1143:.\Generated_Source\PSoC5/USBFS_std.c ****     }
1144:.\Generated_Source\PSoC5/USBFS_std.c **** 
1145:.\Generated_Source\PSoC5/USBFS_std.c ****     return (requestHandled);
1146:.\Generated_Source\PSoC5/USBFS_std.c **** }
 1106              		.loc 1 1146 0
 1107 0056 08BD     		pop	{r3, pc}
 1108              	.L92:
 1109              		.align	2
 1110              	.L91:
 1111 0058 00600040 		.word	1073766400
 1112 005c 00000000 		.word	USBFS_EP
 1113 0060 FC5F0040 		.word	1073766396
 1114              		.cfi_endproc
 1115              	.LFE10:
 1116              		.size	USBFS_SetEndpointHalt, .-USBFS_SetEndpointHalt
 1117              		.section	.text.USBFS_ClearEndpointHalt,"ax",%progbits
 1118              		.align	2
 1119              		.global	USBFS_ClearEndpointHalt
 1120              		.thumb
 1121              		.thumb_func
 1122              		.type	USBFS_ClearEndpointHalt, %function
 1123              	USBFS_ClearEndpointHalt:
 1124              	.LFB11:
1147:.\Generated_Source\PSoC5/USBFS_std.c **** 
1148:.\Generated_Source\PSoC5/USBFS_std.c **** 
1149:.\Generated_Source\PSoC5/USBFS_std.c **** /*******************************************************************************
1150:.\Generated_Source\PSoC5/USBFS_std.c **** * Function Name: USBFS_ClearEndpointHalt
1151:.\Generated_Source\PSoC5/USBFS_std.c **** ****************************************************************************//**
1152:.\Generated_Source\PSoC5/USBFS_std.c **** *
1153:.\Generated_Source\PSoC5/USBFS_std.c **** *  This routine handles clear endpoint halt.
1154:.\Generated_Source\PSoC5/USBFS_std.c **** *
1155:.\Generated_Source\PSoC5/USBFS_std.c **** * \return
1156:.\Generated_Source\PSoC5/USBFS_std.c **** *  requestHandled.
1157:.\Generated_Source\PSoC5/USBFS_std.c **** *
1158:.\Generated_Source\PSoC5/USBFS_std.c **** * \reentrant
1159:.\Generated_Source\PSoC5/USBFS_std.c **** *  No.
1160:.\Generated_Source\PSoC5/USBFS_std.c **** *
1161:.\Generated_Source\PSoC5/USBFS_std.c **** *******************************************************************************/
1162:.\Generated_Source\PSoC5/USBFS_std.c **** uint8 USBFS_ClearEndpointHalt(void) 
1163:.\Generated_Source\PSoC5/USBFS_std.c **** {
 1125              		.loc 1 1163 0
 1126              		.cfi_startproc
 1127              		@ args = 0, pretend = 0, frame = 0
 1128              		@ frame_needed = 0, uses_anonymous_args = 0
 1129              	.LVL108:
1164:.\Generated_Source\PSoC5/USBFS_std.c ****     uint8 requestHandled = USBFS_FALSE;
ARM GAS  C:\Users\LAIR\AppData\Local\Temp\cc5n6lZj.s 			page 43


1165:.\Generated_Source\PSoC5/USBFS_std.c ****     uint8 ep;
1166:.\Generated_Source\PSoC5/USBFS_std.c **** 
1167:.\Generated_Source\PSoC5/USBFS_std.c ****     /* Clear endpoint halt */
1168:.\Generated_Source\PSoC5/USBFS_std.c ****     ep = USBFS_wIndexLoReg & USBFS_DIR_UNUSED;
 1130              		.loc 1 1168 0
 1131 0000 264B     		ldr	r3, .L102
 1132 0002 1B79     		ldrb	r3, [r3, #4]	@ zero_extendqisi2
 1133 0004 03F07F03 		and	r3, r3, #127
 1134              	.LVL109:
1169:.\Generated_Source\PSoC5/USBFS_std.c **** 
1170:.\Generated_Source\PSoC5/USBFS_std.c ****     if ((ep > USBFS_EP0) && (ep < USBFS_MAX_EP))
 1135              		.loc 1 1170 0
 1136 0008 5A1E     		subs	r2, r3, #1
 1137 000a D2B2     		uxtb	r2, r2
 1138 000c 072A     		cmp	r2, #7
 1139 000e 43D8     		bhi	.L99
1163:.\Generated_Source\PSoC5/USBFS_std.c ****     uint8 requestHandled = USBFS_FALSE;
 1140              		.loc 1 1163 0
 1141 0010 10B5     		push	{r4, lr}
 1142              		.cfi_def_cfa_offset 8
 1143              		.cfi_offset 4, -8
 1144              		.cfi_offset 14, -4
1171:.\Generated_Source\PSoC5/USBFS_std.c ****     {
1172:.\Generated_Source\PSoC5/USBFS_std.c ****         /* Clear the endpoint Halt */
1173:.\Generated_Source\PSoC5/USBFS_std.c ****         USBFS_EP[ep].hwEpState &= (uint8) ~USBFS_ENDPOINT_STATUS_HALT;
 1145              		.loc 1 1173 0
 1146 0012 5A00     		lsls	r2, r3, #1
 1147 0014 1A44     		add	r2, r2, r3
 1148 0016 9200     		lsls	r2, r2, #2
 1149 0018 2149     		ldr	r1, .L102+4
 1150 001a 0A44     		add	r2, r2, r1
 1151 001c 9178     		ldrb	r1, [r2, #2]	@ zero_extendqisi2
 1152 001e 01F0FE01 		and	r1, r1, #254
 1153 0022 9170     		strb	r1, [r2, #2]
1174:.\Generated_Source\PSoC5/USBFS_std.c **** 
1175:.\Generated_Source\PSoC5/USBFS_std.c ****         /* Clear the data toggle */
1176:.\Generated_Source\PSoC5/USBFS_std.c ****         USBFS_EP[ep].epToggle = 0u;
 1154              		.loc 1 1176 0
 1155 0024 0021     		movs	r1, #0
 1156 0026 D170     		strb	r1, [r2, #3]
1177:.\Generated_Source\PSoC5/USBFS_std.c ****         
1178:.\Generated_Source\PSoC5/USBFS_std.c ****         /* Clear toggle bit for already armed packet */
1179:.\Generated_Source\PSoC5/USBFS_std.c ****         USBFS_SIE_EP_BASE.sieEp[ep].epCnt0 = (uint8) ~(uint8)USBFS_EPX_CNT_DATA_TOGGLE;
 1157              		.loc 1 1179 0
 1158 0028 1901     		lsls	r1, r3, #4
 1159 002a 7F24     		movs	r4, #127
 1160 002c 1D48     		ldr	r0, .L102+8
 1161 002e 4454     		strb	r4, [r0, r1]
1180:.\Generated_Source\PSoC5/USBFS_std.c ****         
1181:.\Generated_Source\PSoC5/USBFS_std.c ****         /* Return API State as it was defined before */
1182:.\Generated_Source\PSoC5/USBFS_std.c ****         USBFS_EP[ep].apiEpState &= (uint8) ~USBFS_NO_EVENT_ALLOWED;
 1162              		.loc 1 1182 0
 1163 0030 5178     		ldrb	r1, [r2, #1]	@ zero_extendqisi2
 1164 0032 01F0FD01 		and	r1, r1, #253
 1165 0036 5170     		strb	r1, [r2, #1]
1183:.\Generated_Source\PSoC5/USBFS_std.c **** 
1184:.\Generated_Source\PSoC5/USBFS_std.c ****         if ((USBFS_EP[ep].addr & USBFS_DIR_IN) != 0u)
ARM GAS  C:\Users\LAIR\AppData\Local\Temp\cc5n6lZj.s 			page 44


 1166              		.loc 1 1184 0
 1167 0038 1279     		ldrb	r2, [r2, #4]	@ zero_extendqisi2
 1168 003a 12F0800F 		tst	r2, #128
 1169 003e 14D0     		beq	.L95
1185:.\Generated_Source\PSoC5/USBFS_std.c ****         {
1186:.\Generated_Source\PSoC5/USBFS_std.c ****             /* IN Endpoint */
1187:.\Generated_Source\PSoC5/USBFS_std.c ****             if(USBFS_EP[ep].apiEpState == USBFS_IN_BUFFER_EMPTY)
 1170              		.loc 1 1187 0
 1171 0040 03EB4302 		add	r2, r3, r3, lsl #1
 1172 0044 9200     		lsls	r2, r2, #2
 1173 0046 1649     		ldr	r1, .L102+4
 1174 0048 0A44     		add	r2, r2, r1
 1175 004a 5278     		ldrb	r2, [r2, #1]	@ zero_extendqisi2
 1176 004c D2B2     		uxtb	r2, r2
 1177 004e 012A     		cmp	r2, #1
 1178 0050 05D1     		bne	.L96
1188:.\Generated_Source\PSoC5/USBFS_std.c ****             {       
1189:.\Generated_Source\PSoC5/USBFS_std.c ****                 /* Wait for next packet from application */
1190:.\Generated_Source\PSoC5/USBFS_std.c ****                 USBFS_SIE_EP_BASE.sieEp[ep].epCr0 = USBFS_MODE_NAK_IN;
 1179              		.loc 1 1190 0
 1180 0052 1B01     		lsls	r3, r3, #4
 1181              	.LVL110:
 1182 0054 0246     		mov	r2, r0
 1183 0056 1A44     		add	r2, r2, r3
 1184 0058 0C23     		movs	r3, #12
 1185 005a 9370     		strb	r3, [r2, #2]
 1186 005c 19E0     		b	.L97
 1187              	.LVL111:
 1188              	.L96:
1191:.\Generated_Source\PSoC5/USBFS_std.c ****             }
1192:.\Generated_Source\PSoC5/USBFS_std.c ****             else    /* Continue armed transfer */
1193:.\Generated_Source\PSoC5/USBFS_std.c ****             {
1194:.\Generated_Source\PSoC5/USBFS_std.c ****                 USBFS_SIE_EP_BASE.sieEp[ep].epCr0 = USBFS_MODE_ACK_IN;
 1189              		.loc 1 1194 0
 1190 005e 1B01     		lsls	r3, r3, #4
 1191              	.LVL112:
 1192 0060 104A     		ldr	r2, .L102+8
 1193 0062 1A44     		add	r2, r2, r3
 1194 0064 0D23     		movs	r3, #13
 1195 0066 9370     		strb	r3, [r2, #2]
 1196 0068 13E0     		b	.L97
 1197              	.LVL113:
 1198              	.L95:
1195:.\Generated_Source\PSoC5/USBFS_std.c ****             }
1196:.\Generated_Source\PSoC5/USBFS_std.c ****         }
1197:.\Generated_Source\PSoC5/USBFS_std.c ****         else
1198:.\Generated_Source\PSoC5/USBFS_std.c ****         {
1199:.\Generated_Source\PSoC5/USBFS_std.c ****             /* OUT Endpoint */
1200:.\Generated_Source\PSoC5/USBFS_std.c ****             if (USBFS_EP[ep].apiEpState == USBFS_OUT_BUFFER_FULL)
 1199              		.loc 1 1200 0
 1200 006a 03EB4302 		add	r2, r3, r3, lsl #1
 1201 006e 9200     		lsls	r2, r2, #2
 1202 0070 0B49     		ldr	r1, .L102+4
 1203 0072 0A44     		add	r2, r2, r1
 1204 0074 5278     		ldrb	r2, [r2, #1]	@ zero_extendqisi2
 1205 0076 D2B2     		uxtb	r2, r2
 1206 0078 012A     		cmp	r2, #1
ARM GAS  C:\Users\LAIR\AppData\Local\Temp\cc5n6lZj.s 			page 45


 1207 007a 05D1     		bne	.L98
1201:.\Generated_Source\PSoC5/USBFS_std.c ****             {       
1202:.\Generated_Source\PSoC5/USBFS_std.c ****                 /* Allow application to read full buffer */
1203:.\Generated_Source\PSoC5/USBFS_std.c ****                 USBFS_SIE_EP_BASE.sieEp[ep].epCr0 = USBFS_MODE_NAK_OUT;
 1208              		.loc 1 1203 0
 1209 007c 1B01     		lsls	r3, r3, #4
 1210              	.LVL114:
 1211 007e 094A     		ldr	r2, .L102+8
 1212 0080 1A44     		add	r2, r2, r3
 1213 0082 0823     		movs	r3, #8
 1214 0084 9370     		strb	r3, [r2, #2]
 1215 0086 04E0     		b	.L97
 1216              	.LVL115:
 1217              	.L98:
1204:.\Generated_Source\PSoC5/USBFS_std.c ****             }
1205:.\Generated_Source\PSoC5/USBFS_std.c ****             else    /* Mark endpoint as empty, so it will be reloaded */
1206:.\Generated_Source\PSoC5/USBFS_std.c ****             {
1207:.\Generated_Source\PSoC5/USBFS_std.c ****                 USBFS_SIE_EP_BASE.sieEp[ep].epCr0 = USBFS_MODE_ACK_OUT;
 1218              		.loc 1 1207 0
 1219 0088 1B01     		lsls	r3, r3, #4
 1220              	.LVL116:
 1221 008a 064A     		ldr	r2, .L102+8
 1222 008c 1A44     		add	r2, r2, r3
 1223 008e 0923     		movs	r3, #9
 1224 0090 9370     		strb	r3, [r2, #2]
 1225              	.L97:
1208:.\Generated_Source\PSoC5/USBFS_std.c ****             }
1209:.\Generated_Source\PSoC5/USBFS_std.c ****         }
1210:.\Generated_Source\PSoC5/USBFS_std.c ****         
1211:.\Generated_Source\PSoC5/USBFS_std.c ****         requestHandled = USBFS_InitNoDataControlTransfer();
 1226              		.loc 1 1211 0
 1227 0092 FFF7FEFF 		bl	USBFS_InitNoDataControlTransfer
 1228              	.LVL117:
 1229 0096 10BD     		pop	{r4, pc}
 1230              	.LVL118:
 1231              	.L99:
 1232              		.cfi_def_cfa_offset 0
 1233              		.cfi_restore 4
 1234              		.cfi_restore 14
1164:.\Generated_Source\PSoC5/USBFS_std.c ****     uint8 ep;
 1235              		.loc 1 1164 0
 1236 0098 0020     		movs	r0, #0
 1237 009a 7047     		bx	lr
 1238              	.L103:
 1239              		.align	2
 1240              	.L102:
 1241 009c 00600040 		.word	1073766400
 1242 00a0 00000000 		.word	USBFS_EP
 1243 00a4 FC5F0040 		.word	1073766396
 1244              		.cfi_endproc
 1245              	.LFE11:
 1246              		.size	USBFS_ClearEndpointHalt, .-USBFS_ClearEndpointHalt
 1247              		.section	.text.USBFS_ValidateAlternateSetting,"ax",%progbits
 1248              		.align	2
 1249              		.global	USBFS_ValidateAlternateSetting
 1250              		.thumb
 1251              		.thumb_func
ARM GAS  C:\Users\LAIR\AppData\Local\Temp\cc5n6lZj.s 			page 46


 1252              		.type	USBFS_ValidateAlternateSetting, %function
 1253              	USBFS_ValidateAlternateSetting:
 1254              	.LFB12:
1212:.\Generated_Source\PSoC5/USBFS_std.c ****     }
1213:.\Generated_Source\PSoC5/USBFS_std.c **** 
1214:.\Generated_Source\PSoC5/USBFS_std.c ****     return(requestHandled);
1215:.\Generated_Source\PSoC5/USBFS_std.c **** }
1216:.\Generated_Source\PSoC5/USBFS_std.c **** 
1217:.\Generated_Source\PSoC5/USBFS_std.c **** 
1218:.\Generated_Source\PSoC5/USBFS_std.c **** /*******************************************************************************
1219:.\Generated_Source\PSoC5/USBFS_std.c **** * Function Name: USBFS_ValidateAlternateSetting
1220:.\Generated_Source\PSoC5/USBFS_std.c **** ****************************************************************************//**
1221:.\Generated_Source\PSoC5/USBFS_std.c **** *
1222:.\Generated_Source\PSoC5/USBFS_std.c **** *  Validates (and records) a SET INTERFACE request.
1223:.\Generated_Source\PSoC5/USBFS_std.c **** *
1224:.\Generated_Source\PSoC5/USBFS_std.c **** * \return
1225:.\Generated_Source\PSoC5/USBFS_std.c **** *  requestHandled.
1226:.\Generated_Source\PSoC5/USBFS_std.c **** *
1227:.\Generated_Source\PSoC5/USBFS_std.c **** * \reentrant
1228:.\Generated_Source\PSoC5/USBFS_std.c **** *  No.
1229:.\Generated_Source\PSoC5/USBFS_std.c **** *
1230:.\Generated_Source\PSoC5/USBFS_std.c **** *******************************************************************************/
1231:.\Generated_Source\PSoC5/USBFS_std.c **** uint8 USBFS_ValidateAlternateSetting(void) 
1232:.\Generated_Source\PSoC5/USBFS_std.c **** {
 1255              		.loc 1 1232 0
 1256              		.cfi_startproc
 1257              		@ args = 0, pretend = 0, frame = 0
 1258              		@ frame_needed = 0, uses_anonymous_args = 0
 1259 0000 10B5     		push	{r4, lr}
 1260              		.cfi_def_cfa_offset 8
 1261              		.cfi_offset 4, -8
 1262              		.cfi_offset 14, -4
 1263              	.LVL119:
1233:.\Generated_Source\PSoC5/USBFS_std.c ****     uint8 requestHandled = USBFS_FALSE;
1234:.\Generated_Source\PSoC5/USBFS_std.c ****     
1235:.\Generated_Source\PSoC5/USBFS_std.c ****     uint8 interfaceNum;
1236:.\Generated_Source\PSoC5/USBFS_std.c ****     uint8 curInterfacesNum;
1237:.\Generated_Source\PSoC5/USBFS_std.c ****     const T_USBFS_LUT CYCODE *pTmp;
1238:.\Generated_Source\PSoC5/USBFS_std.c ****     
1239:.\Generated_Source\PSoC5/USBFS_std.c ****     /* Get interface number from the request. */
1240:.\Generated_Source\PSoC5/USBFS_std.c ****     interfaceNum = (uint8) USBFS_wIndexLoReg;
 1264              		.loc 1 1240 0
 1265 0002 0E4B     		ldr	r3, .L109
 1266 0004 1C79     		ldrb	r4, [r3, #4]	@ zero_extendqisi2
 1267 0006 E4B2     		uxtb	r4, r4
 1268              	.LVL120:
1241:.\Generated_Source\PSoC5/USBFS_std.c ****     
1242:.\Generated_Source\PSoC5/USBFS_std.c ****     /* Get number of interfaces for current configuration. */
1243:.\Generated_Source\PSoC5/USBFS_std.c ****     pTmp = USBFS_GetConfigTablePtr(USBFS_configuration - 1u);
 1269              		.loc 1 1243 0
 1270 0008 0D4B     		ldr	r3, .L109+4
 1271 000a 1878     		ldrb	r0, [r3]	@ zero_extendqisi2
 1272 000c 0138     		subs	r0, r0, #1
 1273 000e C0B2     		uxtb	r0, r0
 1274 0010 FFF7FEFF 		bl	USBFS_GetConfigTablePtr
 1275              	.LVL121:
1244:.\Generated_Source\PSoC5/USBFS_std.c ****     curInterfacesNum  = ((const uint8 *) pTmp->p_list)[USBFS_CONFIG_DESCR_NUM_INTERFACES];
ARM GAS  C:\Users\LAIR\AppData\Local\Temp\cc5n6lZj.s 			page 47


 1276              		.loc 1 1244 0
 1277 0014 4368     		ldr	r3, [r0, #4]
 1278 0016 1B79     		ldrb	r3, [r3, #4]	@ zero_extendqisi2
 1279              	.LVL122:
1245:.\Generated_Source\PSoC5/USBFS_std.c **** 
1246:.\Generated_Source\PSoC5/USBFS_std.c ****     /* Validate that interface number is within range. */
1247:.\Generated_Source\PSoC5/USBFS_std.c ****     if ((interfaceNum <= curInterfacesNum) || (interfaceNum <= USBFS_MAX_INTERFACES_NUMBER))
 1280              		.loc 1 1247 0
 1281 0018 9C42     		cmp	r4, r3
 1282 001a 01D9     		bls	.L105
 1283              		.loc 1 1247 0 is_stmt 0 discriminator 1
 1284 001c 012C     		cmp	r4, #1
 1285 001e 0AD8     		bhi	.L107
 1286              	.L105:
1248:.\Generated_Source\PSoC5/USBFS_std.c ****     {
1249:.\Generated_Source\PSoC5/USBFS_std.c ****         /* Save current and new alternate settings (come with request) to make 
1250:.\Generated_Source\PSoC5/USBFS_std.c ****         * desicion about following endpoint re-configuration.
1251:.\Generated_Source\PSoC5/USBFS_std.c ****         */
1252:.\Generated_Source\PSoC5/USBFS_std.c ****         USBFS_interfaceSettingLast[interfaceNum] = USBFS_interfaceSetting[interfaceNum];
 1287              		.loc 1 1252 0 is_stmt 1
 1288 0020 084A     		ldr	r2, .L109+8
 1289 0022 135D     		ldrb	r3, [r2, r4]	@ zero_extendqisi2
 1290              	.LVL123:
 1291 0024 DBB2     		uxtb	r3, r3
 1292 0026 0849     		ldr	r1, .L109+12
 1293 0028 0B55     		strb	r3, [r1, r4]
1253:.\Generated_Source\PSoC5/USBFS_std.c ****         USBFS_interfaceSetting[interfaceNum]     = (uint8) USBFS_wValueLoReg;
 1294              		.loc 1 1253 0
 1295 002a 044B     		ldr	r3, .L109
 1296 002c 9B78     		ldrb	r3, [r3, #2]	@ zero_extendqisi2
 1297 002e DBB2     		uxtb	r3, r3
 1298 0030 1355     		strb	r3, [r2, r4]
 1299              	.LVL124:
1254:.\Generated_Source\PSoC5/USBFS_std.c ****         
1255:.\Generated_Source\PSoC5/USBFS_std.c ****         requestHandled = USBFS_TRUE;
 1300              		.loc 1 1255 0
 1301 0032 0120     		movs	r0, #1
 1302              	.LVL125:
 1303 0034 10BD     		pop	{r4, pc}
 1304              	.LVL126:
 1305              	.L107:
1233:.\Generated_Source\PSoC5/USBFS_std.c ****     
 1306              		.loc 1 1233 0
 1307 0036 0020     		movs	r0, #0
 1308              	.LVL127:
1256:.\Generated_Source\PSoC5/USBFS_std.c ****     }
1257:.\Generated_Source\PSoC5/USBFS_std.c **** 
1258:.\Generated_Source\PSoC5/USBFS_std.c ****     return (requestHandled);
1259:.\Generated_Source\PSoC5/USBFS_std.c **** }
 1309              		.loc 1 1259 0
 1310 0038 10BD     		pop	{r4, pc}
 1311              	.LVL128:
 1312              	.L110:
 1313 003a 00BF     		.align	2
 1314              	.L109:
 1315 003c 00600040 		.word	1073766400
 1316 0040 00000000 		.word	USBFS_configuration
ARM GAS  C:\Users\LAIR\AppData\Local\Temp\cc5n6lZj.s 			page 48


 1317 0044 00000000 		.word	USBFS_interfaceSetting
 1318 0048 00000000 		.word	USBFS_interfaceSettingLast
 1319              		.cfi_endproc
 1320              	.LFE12:
 1321              		.size	USBFS_ValidateAlternateSetting, .-USBFS_ValidateAlternateSetting
 1322              		.section	.text.USBFS_HandleStandardRqst,"ax",%progbits
 1323              		.align	2
 1324              		.global	USBFS_HandleStandardRqst
 1325              		.thumb
 1326              		.thumb_func
 1327              		.type	USBFS_HandleStandardRqst, %function
 1328              	USBFS_HandleStandardRqst:
 1329              	.LFB0:
  85:.\Generated_Source\PSoC5/USBFS_std.c ****     uint8 requestHandled = USBFS_FALSE;
 1330              		.loc 1 85 0
 1331              		.cfi_startproc
 1332              		@ args = 0, pretend = 0, frame = 0
 1333              		@ frame_needed = 0, uses_anonymous_args = 0
 1334 0000 10B5     		push	{r4, lr}
 1335              		.cfi_def_cfa_offset 8
 1336              		.cfi_offset 4, -8
 1337              		.cfi_offset 14, -4
 1338              	.LVL129:
  89:.\Generated_Source\PSoC5/USBFS_std.c **** 
 1339              		.loc 1 89 0
 1340 0002 964B     		ldr	r3, .L168
 1341 0004 1B78     		ldrb	r3, [r3]	@ zero_extendqisi2
 1342 0006 DBB2     		uxtb	r3, r3
 1343              	.LVL130:
 102:.\Generated_Source\PSoC5/USBFS_std.c **** 
 1344              		.loc 1 102 0
 1345 0008 0021     		movs	r1, #0
 1346 000a 954A     		ldr	r2, .L168+4
 1347 000c 1180     		strh	r1, [r2]	@ movhi
 104:.\Generated_Source\PSoC5/USBFS_std.c ****     {
 1348              		.loc 1 104 0
 1349 000e 13F0800F 		tst	r3, #128
 1350 0012 00F0B380 		beq	.L112
 107:.\Generated_Source\PSoC5/USBFS_std.c ****         {
 1351              		.loc 1 107 0
 1352 0016 914A     		ldr	r2, .L168
 1353 0018 5278     		ldrb	r2, [r2, #1]	@ zero_extendqisi2
 1354 001a D2B2     		uxtb	r2, r2
 1355 001c 0A2A     		cmp	r2, #10
 1356 001e 00F27981 		bhi	.L146
 1357 0022 DFE812F0 		tbh	[pc, r2, lsl #1]
 1358              	.L115:
 1359 0026 6F00     		.2byte	(.L114-.L115)/2
 1360 0028 7701     		.2byte	(.L146-.L115)/2
 1361 002a 7701     		.2byte	(.L146-.L115)/2
 1362 002c 7701     		.2byte	(.L146-.L115)/2
 1363 002e 7701     		.2byte	(.L146-.L115)/2
 1364 0030 7701     		.2byte	(.L146-.L115)/2
 1365 0032 0B00     		.2byte	(.L116-.L115)/2
 1366 0034 7701     		.2byte	(.L146-.L115)/2
 1367 0036 9800     		.2byte	(.L117-.L115)/2
 1368 0038 7701     		.2byte	(.L146-.L115)/2
ARM GAS  C:\Users\LAIR\AppData\Local\Temp\cc5n6lZj.s 			page 49


 1369 003a A000     		.2byte	(.L118-.L115)/2
 1370              		.p2align 1
 1371              	.L116:
 110:.\Generated_Source\PSoC5/USBFS_std.c ****                 {
 1372              		.loc 1 110 0
 1373 003c 874B     		ldr	r3, .L168
 1374              	.LVL131:
 1375 003e DB78     		ldrb	r3, [r3, #3]	@ zero_extendqisi2
 1376 0040 DBB2     		uxtb	r3, r3
 1377 0042 012B     		cmp	r3, #1
 1378 0044 09D1     		bne	.L119
 112:.\Generated_Source\PSoC5/USBFS_std.c ****                     USBFS_currentTD.pData = (volatile uint8 *)pTmp->p_list;
 1379              		.loc 1 112 0
 1380 0046 FFF7FEFF 		bl	USBFS_GetDeviceTablePtr
 1381              	.LVL132:
 113:.\Generated_Source\PSoC5/USBFS_std.c ****                     USBFS_currentTD.count = USBFS_DEVICE_DESCR_LENGTH;
 1382              		.loc 1 113 0
 1383 004a 4268     		ldr	r2, [r0, #4]
 1384 004c 844B     		ldr	r3, .L168+4
 1385 004e 5A60     		str	r2, [r3, #4]
 114:.\Generated_Source\PSoC5/USBFS_std.c ****                     
 1386              		.loc 1 114 0
 1387 0050 1222     		movs	r2, #18
 1388 0052 1A80     		strh	r2, [r3]	@ movhi
 116:.\Generated_Source\PSoC5/USBFS_std.c ****                 }
 1389              		.loc 1 116 0
 1390 0054 FFF7FEFF 		bl	USBFS_InitControlRead
 1391              	.LVL133:
 1392 0058 10BD     		pop	{r4, pc}
 1393              	.LVL134:
 1394              	.L119:
 118:.\Generated_Source\PSoC5/USBFS_std.c ****                 {
 1395              		.loc 1 118 0
 1396 005a 804B     		ldr	r3, .L168
 1397 005c DB78     		ldrb	r3, [r3, #3]	@ zero_extendqisi2
 1398 005e DBB2     		uxtb	r3, r3
 1399 0060 022B     		cmp	r3, #2
 1400 0062 13D1     		bne	.L120
 120:.\Generated_Source\PSoC5/USBFS_std.c ****                     
 1401              		.loc 1 120 0
 1402 0064 7D4B     		ldr	r3, .L168
 1403 0066 9878     		ldrb	r0, [r3, #2]	@ zero_extendqisi2
 1404 0068 FFF7FEFF 		bl	USBFS_GetConfigTablePtr
 1405              	.LVL135:
 123:.\Generated_Source\PSoC5/USBFS_std.c ****                     {
 1406              		.loc 1 123 0
 1407 006c 0028     		cmp	r0, #0
 1408 006e 00F05381 		beq	.L147
 125:.\Generated_Source\PSoC5/USBFS_std.c ****                         USBFS_currentTD.count = (uint16)((uint16)(USBFS_currentTD.pData)[USBFS_CONF
 1409              		.loc 1 125 0
 1410 0072 4268     		ldr	r2, [r0, #4]
 1411 0074 7A4B     		ldr	r3, .L168+4
 1412 0076 5A60     		str	r2, [r3, #4]
 126:.\Generated_Source\PSoC5/USBFS_std.c ****                                                                             (USBFS_currentTD.pData)
 1413              		.loc 1 126 0
 1414 0078 5A68     		ldr	r2, [r3, #4]
 1415 007a D178     		ldrb	r1, [r2, #3]	@ zero_extendqisi2
ARM GAS  C:\Users\LAIR\AppData\Local\Temp\cc5n6lZj.s 			page 50


 127:.\Generated_Source\PSoC5/USBFS_std.c ****                         requestHandled  = USBFS_InitControlRead();
 1416              		.loc 1 127 0
 1417 007c 5A68     		ldr	r2, [r3, #4]
 1418 007e 9278     		ldrb	r2, [r2, #2]	@ zero_extendqisi2
 126:.\Generated_Source\PSoC5/USBFS_std.c ****                                                                             (USBFS_currentTD.pData)
 1419              		.loc 1 126 0
 1420 0080 42EA0122 		orr	r2, r2, r1, lsl #8
 1421 0084 1A80     		strh	r2, [r3]	@ movhi
 128:.\Generated_Source\PSoC5/USBFS_std.c ****                     }
 1422              		.loc 1 128 0
 1423 0086 FFF7FEFF 		bl	USBFS_InitControlRead
 1424              	.LVL136:
 1425 008a 10BD     		pop	{r4, pc}
 1426              	.LVL137:
 1427              	.L120:
 149:.\Generated_Source\PSoC5/USBFS_std.c ****                 {
 1428              		.loc 1 149 0
 1429 008c 734B     		ldr	r3, .L168
 1430 008e DB78     		ldrb	r3, [r3, #3]	@ zero_extendqisi2
 1431 0090 DBB2     		uxtb	r3, r3
 1432 0092 032B     		cmp	r3, #3
 1433 0094 05D0     		beq	.L148
 1434 0096 32E0     		b	.L163
 1435              	.LVL138:
 1436              	.L124:
 159:.\Generated_Source\PSoC5/USBFS_std.c ****                         /* Move to next string descriptor */
 1437              		.loc 1 159 0
 1438 0098 0A78     		ldrb	r2, [r1]	@ zero_extendqisi2
 1439              	.LVL139:
 161:.\Generated_Source\PSoC5/USBFS_std.c ****                         nStr++;
 1440              		.loc 1 161 0
 1441 009a 1144     		add	r1, r1, r2
 1442              	.LVL140:
 162:.\Generated_Source\PSoC5/USBFS_std.c ****                     }
 1443              		.loc 1 162 0
 1444 009c 0133     		adds	r3, r3, #1
 1445              	.LVL141:
 1446 009e DBB2     		uxtb	r3, r3
 1447              	.LVL142:
 1448 00a0 01E0     		b	.L121
 1449              	.LVL143:
 1450              	.L148:
 1451 00a2 0023     		movs	r3, #0
 1452 00a4 6F49     		ldr	r1, .L168+8
 1453              	.LVL144:
 1454              	.L121:
 156:.\Generated_Source\PSoC5/USBFS_std.c ****                     {
 1455              		.loc 1 156 0
 1456 00a6 6D4A     		ldr	r2, .L168
 1457 00a8 9278     		ldrb	r2, [r2, #2]	@ zero_extendqisi2
 1458 00aa D2B2     		uxtb	r2, r2
 1459 00ac 9A42     		cmp	r2, r3
 1460 00ae 03D9     		bls	.L123
 156:.\Generated_Source\PSoC5/USBFS_std.c ****                     {
 1461              		.loc 1 156 0 is_stmt 0 discriminator 1
 1462 00b0 0A78     		ldrb	r2, [r1]	@ zero_extendqisi2
 1463 00b2 12F0FF0F 		tst	r2, #255
ARM GAS  C:\Users\LAIR\AppData\Local\Temp\cc5n6lZj.s 			page 51


 1464 00b6 EFD1     		bne	.L124
 1465              	.L123:
 168:.\Generated_Source\PSoC5/USBFS_std.c ****                     {
 1466              		.loc 1 168 0 is_stmt 1
 1467 00b8 684B     		ldr	r3, .L168
 1468              	.LVL145:
 1469 00ba 9B78     		ldrb	r3, [r3, #2]	@ zero_extendqisi2
 1470 00bc DBB2     		uxtb	r3, r3
 1471 00be EE2B     		cmp	r3, #238
 1472 00c0 00D1     		bne	.L125
 170:.\Generated_Source\PSoC5/USBFS_std.c ****                     }
 1473              		.loc 1 170 0
 1474 00c2 6949     		ldr	r1, .L168+12
 1475              	.LVL146:
 1476              	.L125:
 176:.\Generated_Source\PSoC5/USBFS_std.c ****                         (USBFS_wValueLoReg == USBFS_DEVICE0_DESCR[USBFS_DEVICE_DESCR_SN_SHIFT]))
 1477              		.loc 1 176 0
 1478 00c4 654B     		ldr	r3, .L168
 1479 00c6 9B78     		ldrb	r3, [r3, #2]	@ zero_extendqisi2
 1480 00c8 13F0FF0F 		tst	r3, #255
 1481 00cc 0BD0     		beq	.L126
 177:.\Generated_Source\PSoC5/USBFS_std.c ****                     {
 1482              		.loc 1 177 0 discriminator 1
 1483 00ce 634B     		ldr	r3, .L168
 1484 00d0 9B78     		ldrb	r3, [r3, #2]	@ zero_extendqisi2
 1485 00d2 DBB2     		uxtb	r3, r3
 1486 00d4 654A     		ldr	r2, .L168+16
 1487 00d6 127C     		ldrb	r2, [r2, #16]	@ zero_extendqisi2
 176:.\Generated_Source\PSoC5/USBFS_std.c ****                         (USBFS_wValueLoReg == USBFS_DEVICE0_DESCR[USBFS_DEVICE_DESCR_SN_SHIFT]))
 1488              		.loc 1 176 0 discriminator 1
 1489 00d8 9342     		cmp	r3, r2
 1490 00da 04D1     		bne	.L126
 181:.\Generated_Source\PSoC5/USBFS_std.c ****                         pStr = USBFS_idSerialNumberStringDescriptor;
 1491              		.loc 1 181 0
 1492 00dc 644C     		ldr	r4, .L168+20
 1493 00de 2046     		mov	r0, r4
 1494 00e0 FFF7FEFF 		bl	USBFS_ReadDieID
 1495              	.LVL147:
 182:.\Generated_Source\PSoC5/USBFS_std.c ****                     #elif defined(USBFS_ENABLE_FWSN_STRING)
 1496              		.loc 1 182 0
 1497 00e4 2146     		mov	r1, r4
 1498              	.LVL148:
 1499              	.L126:
 199:.\Generated_Source\PSoC5/USBFS_std.c ****                     {
 1500              		.loc 1 199 0
 1501 00e6 0B78     		ldrb	r3, [r1]	@ zero_extendqisi2
 1502 00e8 13F0FF0F 		tst	r3, #255
 1503 00ec 00F01681 		beq	.L150
 201:.\Generated_Source\PSoC5/USBFS_std.c ****                         USBFS_currentTD.pData = pStr;
 1504              		.loc 1 201 0
 1505 00f0 0B78     		ldrb	r3, [r1]	@ zero_extendqisi2
 1506 00f2 5B4A     		ldr	r2, .L168+4
 1507 00f4 1380     		strh	r3, [r2]	@ movhi
 202:.\Generated_Source\PSoC5/USBFS_std.c ****                         requestHandled  = USBFS_InitControlRead();
 1508              		.loc 1 202 0
 1509 00f6 5160     		str	r1, [r2, #4]
 203:.\Generated_Source\PSoC5/USBFS_std.c ****                     }
ARM GAS  C:\Users\LAIR\AppData\Local\Temp\cc5n6lZj.s 			page 52


 1510              		.loc 1 203 0
 1511 00f8 FFF7FEFF 		bl	USBFS_InitControlRead
 1512              	.LVL149:
 1513 00fc 10BD     		pop	{r4, pc}
 1514              	.LVL150:
 1515              	.L163:
 209:.\Generated_Source\PSoC5/USBFS_std.c ****                 }
 1516              		.loc 1 209 0
 1517 00fe FFF7FEFF 		bl	USBFS_DispatchClassRqst
 1518              	.LVL151:
 1519 0102 10BD     		pop	{r4, pc}
 1520              	.LVL152:
 1521              	.L114:
 214:.\Generated_Source\PSoC5/USBFS_std.c ****                 {
 1522              		.loc 1 214 0
 1523 0104 13F00303 		ands	r3, r3, #3
 1524              	.LVL153:
 1525 0108 17D0     		beq	.L127
 1526 010a 022B     		cmp	r3, #2
 1527 010c 40F00881 		bne	.L164
 217:.\Generated_Source\PSoC5/USBFS_std.c ****                         USBFS_tBuffer[0u]     = USBFS_EP[USBFS_wIndexLoReg & USBFS_DIR_UNUSED].hwEp
 1528              		.loc 1 217 0
 1529 0110 5349     		ldr	r1, .L168+4
 1530 0112 0B80     		strh	r3, [r1]	@ movhi
 218:.\Generated_Source\PSoC5/USBFS_std.c ****                         USBFS_tBuffer[1u]     = 0u;
 1531              		.loc 1 218 0
 1532 0114 514B     		ldr	r3, .L168
 1533 0116 1B79     		ldrb	r3, [r3, #4]	@ zero_extendqisi2
 1534 0118 03F07F03 		and	r3, r3, #127
 1535 011c 03EB4303 		add	r3, r3, r3, lsl #1
 1536 0120 9B00     		lsls	r3, r3, #2
 1537 0122 544A     		ldr	r2, .L168+24
 1538 0124 1344     		add	r3, r3, r2
 1539 0126 9A78     		ldrb	r2, [r3, #2]	@ zero_extendqisi2
 1540 0128 D2B2     		uxtb	r2, r2
 1541 012a 534B     		ldr	r3, .L168+28
 1542 012c 1A70     		strb	r2, [r3]
 219:.\Generated_Source\PSoC5/USBFS_std.c ****                         USBFS_currentTD.pData = &USBFS_tBuffer[0u];
 1543              		.loc 1 219 0
 1544 012e 0022     		movs	r2, #0
 1545 0130 5A70     		strb	r2, [r3, #1]
 220:.\Generated_Source\PSoC5/USBFS_std.c ****                         
 1546              		.loc 1 220 0
 1547 0132 4B60     		str	r3, [r1, #4]
 222:.\Generated_Source\PSoC5/USBFS_std.c ****                         break;
 1548              		.loc 1 222 0
 1549 0134 FFF7FEFF 		bl	USBFS_InitControlRead
 1550              	.LVL154:
 223:.\Generated_Source\PSoC5/USBFS_std.c ****                     case USBFS_RQST_RCPT_DEV:
 1551              		.loc 1 223 0
 1552 0138 10BD     		pop	{r4, pc}
 1553              	.LVL155:
 1554              	.L127:
 225:.\Generated_Source\PSoC5/USBFS_std.c ****                         USBFS_tBuffer[0u]     = USBFS_deviceStatus;
 1555              		.loc 1 225 0
 1556 013a 4949     		ldr	r1, .L168+4
 1557 013c 0223     		movs	r3, #2
ARM GAS  C:\Users\LAIR\AppData\Local\Temp\cc5n6lZj.s 			page 53


 1558 013e 0B80     		strh	r3, [r1]	@ movhi
 226:.\Generated_Source\PSoC5/USBFS_std.c ****                         USBFS_tBuffer[1u]     = 0u;
 1559              		.loc 1 226 0
 1560 0140 4E4B     		ldr	r3, .L168+32
 1561 0142 1A78     		ldrb	r2, [r3]	@ zero_extendqisi2
 1562 0144 D2B2     		uxtb	r2, r2
 1563 0146 4C4B     		ldr	r3, .L168+28
 1564 0148 1A70     		strb	r2, [r3]
 227:.\Generated_Source\PSoC5/USBFS_std.c ****                         USBFS_currentTD.pData = &USBFS_tBuffer[0u];
 1565              		.loc 1 227 0
 1566 014a 0022     		movs	r2, #0
 1567 014c 5A70     		strb	r2, [r3, #1]
 228:.\Generated_Source\PSoC5/USBFS_std.c ****                         
 1568              		.loc 1 228 0
 1569 014e 4B60     		str	r3, [r1, #4]
 230:.\Generated_Source\PSoC5/USBFS_std.c ****                         break;
 1570              		.loc 1 230 0
 1571 0150 FFF7FEFF 		bl	USBFS_InitControlRead
 1572              	.LVL156:
 231:.\Generated_Source\PSoC5/USBFS_std.c ****                     default:    /* requestHandled is initialized as FALSE by default */
 1573              		.loc 1 231 0
 1574 0154 10BD     		pop	{r4, pc}
 1575              	.LVL157:
 1576              	.L117:
 238:.\Generated_Source\PSoC5/USBFS_std.c ****                 USBFS_currentTD.pData = (volatile uint8 *) &USBFS_configuration;
 1577              		.loc 1 238 0
 1578 0156 424B     		ldr	r3, .L168+4
 1579              	.LVL158:
 1580 0158 0122     		movs	r2, #1
 1581 015a 1A80     		strh	r2, [r3]	@ movhi
 239:.\Generated_Source\PSoC5/USBFS_std.c ****                 requestHandled  = USBFS_InitControlRead();
 1582              		.loc 1 239 0
 1583 015c 484A     		ldr	r2, .L168+36
 1584 015e 5A60     		str	r2, [r3, #4]
 240:.\Generated_Source\PSoC5/USBFS_std.c ****                 break;
 1585              		.loc 1 240 0
 1586 0160 FFF7FEFF 		bl	USBFS_InitControlRead
 1587              	.LVL159:
 241:.\Generated_Source\PSoC5/USBFS_std.c ****                 
 1588              		.loc 1 241 0
 1589 0164 10BD     		pop	{r4, pc}
 1590              	.LVL160:
 1591              	.L118:
 244:.\Generated_Source\PSoC5/USBFS_std.c ****                 USBFS_currentTD.pData = (volatile uint8 *) &USBFS_interfaceSetting[USBFS_wIndexLoRe
 1592              		.loc 1 244 0
 1593 0166 3E4A     		ldr	r2, .L168+4
 1594 0168 0123     		movs	r3, #1
 1595              	.LVL161:
 1596 016a 1380     		strh	r3, [r2]	@ movhi
 245:.\Generated_Source\PSoC5/USBFS_std.c ****                 requestHandled  = USBFS_InitControlRead();
 1597              		.loc 1 245 0
 1598 016c 3B4B     		ldr	r3, .L168
 1599 016e 1B79     		ldrb	r3, [r3, #4]	@ zero_extendqisi2
 1600 0170 4449     		ldr	r1, .L168+40
 1601 0172 0B44     		add	r3, r3, r1
 1602 0174 5360     		str	r3, [r2, #4]
 246:.\Generated_Source\PSoC5/USBFS_std.c ****                 break;
ARM GAS  C:\Users\LAIR\AppData\Local\Temp\cc5n6lZj.s 			page 54


 1603              		.loc 1 246 0
 1604 0176 FFF7FEFF 		bl	USBFS_InitControlRead
 1605              	.LVL162:
 247:.\Generated_Source\PSoC5/USBFS_std.c ****                 
 1606              		.loc 1 247 0
 1607 017a 10BD     		pop	{r4, pc}
 1608              	.LVL163:
 1609              	.L112:
 256:.\Generated_Source\PSoC5/USBFS_std.c ****         {
 1610              		.loc 1 256 0
 1611 017c 374A     		ldr	r2, .L168
 1612 017e 5278     		ldrb	r2, [r2, #1]	@ zero_extendqisi2
 1613 0180 013A     		subs	r2, r2, #1
 1614 0182 0A2A     		cmp	r2, #10
 1615 0184 00F2CE80 		bhi	.L152
 1616 0188 DFE812F0 		tbh	[pc, r2, lsl #1]
 1617              	.L130:
 1618 018c 4B00     		.2byte	(.L129-.L130)/2
 1619 018e CC00     		.2byte	(.L152-.L130)/2
 1620 0190 9700     		.2byte	(.L131-.L130)/2
 1621 0192 CC00     		.2byte	(.L152-.L130)/2
 1622 0194 0B00     		.2byte	(.L132-.L130)/2
 1623 0196 CC00     		.2byte	(.L152-.L130)/2
 1624 0198 CC00     		.2byte	(.L152-.L130)/2
 1625 019a CC00     		.2byte	(.L152-.L130)/2
 1626 019c 1300     		.2byte	(.L133-.L130)/2
 1627 019e CC00     		.2byte	(.L152-.L130)/2
 1628 01a0 3000     		.2byte	(.L134-.L130)/2
 1629              		.p2align 1
 1630              	.L132:
 260:.\Generated_Source\PSoC5/USBFS_std.c ****                 requestHandled = USBFS_InitNoDataControlTransfer();
 1631              		.loc 1 260 0
 1632 01a2 2E4B     		ldr	r3, .L168
 1633              	.LVL164:
 1634 01a4 9B78     		ldrb	r3, [r3, #2]	@ zero_extendqisi2
 1635 01a6 DBB2     		uxtb	r3, r3
 1636 01a8 374A     		ldr	r2, .L168+44
 1637 01aa 1370     		strb	r3, [r2]
 261:.\Generated_Source\PSoC5/USBFS_std.c ****                 break;
 1638              		.loc 1 261 0
 1639 01ac FFF7FEFF 		bl	USBFS_InitNoDataControlTransfer
 1640              	.LVL165:
 262:.\Generated_Source\PSoC5/USBFS_std.c ****                 
 1641              		.loc 1 262 0
 1642 01b0 10BD     		pop	{r4, pc}
 1643              	.LVL166:
 1644              	.L133:
 265:.\Generated_Source\PSoC5/USBFS_std.c ****                 
 1645              		.loc 1 265 0
 1646 01b2 2A4B     		ldr	r3, .L168
 1647              	.LVL167:
 1648 01b4 9B78     		ldrb	r3, [r3, #2]	@ zero_extendqisi2
 1649              	.LVL168:
 268:.\Generated_Source\PSoC5/USBFS_std.c ****                 {
 1650              		.loc 1 268 0
 1651 01b6 03F0FF04 		and	r4, r3, #255
 1652 01ba 1BB1     		cbz	r3, .L135
ARM GAS  C:\Users\LAIR\AppData\Local\Temp\cc5n6lZj.s 			page 55


 270:.\Generated_Source\PSoC5/USBFS_std.c ****                 }
 1653              		.loc 1 270 0
 1654 01bc 601E     		subs	r0, r4, #1
 1655 01be C0B2     		uxtb	r0, r0
 1656 01c0 FFF7FEFF 		bl	USBFS_GetConfigTablePtr
 1657              	.LVL169:
 1658              	.L135:
 274:.\Generated_Source\PSoC5/USBFS_std.c ****                 {
 1659              		.loc 1 274 0
 1660 01c4 04B1     		cbz	r4, .L136
 274:.\Generated_Source\PSoC5/USBFS_std.c ****                 {
 1661              		.loc 1 274 0 is_stmt 0 discriminator 1
 1662 01c6 10B9     		cbnz	r0, .L137
 1663              	.L136:
 274:.\Generated_Source\PSoC5/USBFS_std.c ****                 {
 1664              		.loc 1 274 0 discriminator 3
 1665 01c8 002C     		cmp	r4, #0
 1666 01ca 40F0AD80 		bne	.L153
 1667              	.L137:
 277:.\Generated_Source\PSoC5/USBFS_std.c ****                     {
 1668              		.loc 1 277 0 is_stmt 1
 1669 01ce 2C4B     		ldr	r3, .L168+36
 1670 01d0 1B78     		ldrb	r3, [r3]	@ zero_extendqisi2
 1671 01d2 DBB2     		uxtb	r3, r3
 1672 01d4 9C42     		cmp	r4, r3
 1673 01d6 06D0     		beq	.L138
 279:.\Generated_Source\PSoC5/USBFS_std.c ****                         USBFS_configurationChanged = USBFS_TRUE;
 1674              		.loc 1 279 0
 1675 01d8 294B     		ldr	r3, .L168+36
 1676 01da 1C70     		strb	r4, [r3]
 280:.\Generated_Source\PSoC5/USBFS_std.c ****                         USBFS_Config(USBFS_TRUE);
 1677              		.loc 1 280 0
 1678 01dc 0120     		movs	r0, #1
 1679              	.LVL170:
 1680 01de 2B4B     		ldr	r3, .L168+48
 1681 01e0 1870     		strb	r0, [r3]
 281:.\Generated_Source\PSoC5/USBFS_std.c ****                     }
 1682              		.loc 1 281 0
 1683 01e2 FFF7FEFF 		bl	USBFS_Config
 1684              	.LVL171:
 1685              	.L138:
 283:.\Generated_Source\PSoC5/USBFS_std.c ****                 }
 1686              		.loc 1 283 0
 1687 01e6 FFF7FEFF 		bl	USBFS_InitNoDataControlTransfer
 1688              	.LVL172:
 1689 01ea 10BD     		pop	{r4, pc}
 1690              	.LVL173:
 1691              	.L134:
 288:.\Generated_Source\PSoC5/USBFS_std.c ****                 {
 1692              		.loc 1 288 0
 1693 01ec FFF7FEFF 		bl	USBFS_ValidateAlternateSetting
 1694              	.LVL174:
 1695 01f0 0028     		cmp	r0, #0
 1696 01f2 00F09B80 		beq	.L154
 291:.\Generated_Source\PSoC5/USBFS_std.c ****                     USBFS_interfaceNumber = (uint8) USBFS_wIndexLoReg;
 1697              		.loc 1 291 0
 1698 01f6 194A     		ldr	r2, .L168
ARM GAS  C:\Users\LAIR\AppData\Local\Temp\cc5n6lZj.s 			page 56


 1699 01f8 1379     		ldrb	r3, [r2, #4]	@ zero_extendqisi2
 1700 01fa DBB2     		uxtb	r3, r3
 1701              	.LVL175:
 292:.\Generated_Source\PSoC5/USBFS_std.c ****                      
 1702              		.loc 1 292 0
 1703 01fc 1279     		ldrb	r2, [r2, #4]	@ zero_extendqisi2
 1704 01fe D2B2     		uxtb	r2, r2
 1705 0200 2349     		ldr	r1, .L168+52
 1706 0202 0A70     		strb	r2, [r1]
 295:.\Generated_Source\PSoC5/USBFS_std.c ****                     {
 1707              		.loc 1 295 0
 1708 0204 234A     		ldr	r2, .L168+56
 1709 0206 D25C     		ldrb	r2, [r2, r3]	@ zero_extendqisi2
 1710 0208 1E49     		ldr	r1, .L168+40
 1711 020a C95C     		ldrb	r1, [r1, r3]	@ zero_extendqisi2
 1712 020c D3B2     		uxtb	r3, r2
 1713              	.LVL176:
 1714 020e 8B42     		cmp	r3, r1
 1715 0210 04D0     		beq	.L139
 297:.\Generated_Source\PSoC5/USBFS_std.c ****                     
 1716              		.loc 1 297 0
 1717 0212 0122     		movs	r2, #1
 1718 0214 1D4B     		ldr	r3, .L168+48
 1719 0216 1A70     		strb	r2, [r3]
 303:.\Generated_Source\PSoC5/USBFS_std.c ****                     #endif /* (USBFS_EP_MANAGEMENT_MANUAL && USBFS_EP_ALLOC_DYNAMIC) */
 1720              		.loc 1 303 0
 1721 0218 FFF7FEFF 		bl	USBFS_ConfigAltChanged
 1722              	.LVL177:
 1723              	.L139:
 307:.\Generated_Source\PSoC5/USBFS_std.c ****                 }
 1724              		.loc 1 307 0
 1725 021c FFF7FEFF 		bl	USBFS_InitNoDataControlTransfer
 1726              	.LVL178:
 1727 0220 10BD     		pop	{r4, pc}
 1728              	.LVL179:
 1729              	.L129:
 312:.\Generated_Source\PSoC5/USBFS_std.c ****                 {
 1730              		.loc 1 312 0
 1731 0222 03F00303 		and	r3, r3, #3
 1732              	.LVL180:
 1733 0226 012B     		cmp	r3, #1
 1734 0228 36D0     		beq	.L140
 1735 022a 4BB1     		cbz	r3, .L141
 1736 022c 022B     		cmp	r3, #2
 1737 022e 7FD1     		bne	.L165
 315:.\Generated_Source\PSoC5/USBFS_std.c ****                         {
 1738              		.loc 1 315 0
 1739 0230 0A4B     		ldr	r3, .L168
 1740 0232 9B78     		ldrb	r3, [r3, #2]	@ zero_extendqisi2
 1741 0234 13F0FF0F 		tst	r3, #255
 1742 0238 7CD1     		bne	.L156
 317:.\Generated_Source\PSoC5/USBFS_std.c ****                         }
 1743              		.loc 1 317 0
 1744 023a FFF7FEFF 		bl	USBFS_ClearEndpointHalt
 1745              	.LVL181:
 1746 023e 10BD     		pop	{r4, pc}
 1747              	.LVL182:
ARM GAS  C:\Users\LAIR\AppData\Local\Temp\cc5n6lZj.s 			page 57


 1748              	.L141:
 322:.\Generated_Source\PSoC5/USBFS_std.c ****                         {
 1749              		.loc 1 322 0
 1750 0240 064B     		ldr	r3, .L168
 1751 0242 9B78     		ldrb	r3, [r3, #2]	@ zero_extendqisi2
 1752 0244 DBB2     		uxtb	r3, r3
 1753 0246 012B     		cmp	r3, #1
 1754 0248 76D1     		bne	.L157
 324:.\Generated_Source\PSoC5/USBFS_std.c ****                             requestHandled = USBFS_InitNoDataControlTransfer();
 1755              		.loc 1 324 0
 1756 024a 0C4A     		ldr	r2, .L168+32
 1757 024c 1378     		ldrb	r3, [r2]	@ zero_extendqisi2
 1758 024e 03F0FD03 		and	r3, r3, #253
 1759 0252 1370     		strb	r3, [r2]
 325:.\Generated_Source\PSoC5/USBFS_std.c ****                         }
 1760              		.loc 1 325 0
 1761 0254 FFF7FEFF 		bl	USBFS_InitNoDataControlTransfer
 1762              	.LVL183:
 1763 0258 10BD     		pop	{r4, pc}
 1764              	.L169:
 1765 025a 00BF     		.align	2
 1766              	.L168:
 1767 025c 00600040 		.word	1073766400
 1768 0260 00000000 		.word	USBFS_currentTD
 1769 0264 00000000 		.word	USBFS_STRING_DESCRIPTORS
 1770 0268 00000000 		.word	USBFS_MSOS_DESCRIPTOR
 1771 026c 00000000 		.word	USBFS_DEVICE0_DESCR
 1772 0270 00000000 		.word	USBFS_idSerialNumberStringDescriptor
 1773 0274 00000000 		.word	USBFS_EP
 1774 0278 00000000 		.word	.LANCHOR0
 1775 027c 00000000 		.word	USBFS_deviceStatus
 1776 0280 00000000 		.word	USBFS_configuration
 1777 0284 00000000 		.word	USBFS_interfaceSetting
 1778 0288 00000000 		.word	USBFS_deviceAddress
 1779 028c 00000000 		.word	USBFS_configurationChanged
 1780 0290 00000000 		.word	USBFS_interfaceNumber
 1781 0294 00000000 		.word	USBFS_interfaceSettingLast
 1782              	.LVL184:
 1783              	.L140:
 330:.\Generated_Source\PSoC5/USBFS_std.c ****                         {
 1784              		.loc 1 330 0
 1785 0298 2D4B     		ldr	r3, .L170
 1786 029a 1B79     		ldrb	r3, [r3, #4]	@ zero_extendqisi2
 1787 029c 13F0FF0F 		tst	r3, #255
 1788 02a0 4CD1     		bne	.L158
 332:.\Generated_Source\PSoC5/USBFS_std.c ****                             requestHandled = USBFS_InitNoDataControlTransfer();
 1789              		.loc 1 332 0
 1790 02a2 2B4B     		ldr	r3, .L170
 1791 02a4 9878     		ldrb	r0, [r3, #2]	@ zero_extendqisi2
 1792 02a6 1B79     		ldrb	r3, [r3, #4]	@ zero_extendqisi2
 1793 02a8 DBB2     		uxtb	r3, r3
 1794 02aa 2A49     		ldr	r1, .L170+4
 1795 02ac CA5C     		ldrb	r2, [r1, r3]	@ zero_extendqisi2
 1796 02ae 22EA0002 		bic	r2, r2, r0
 1797 02b2 CA54     		strb	r2, [r1, r3]
 333:.\Generated_Source\PSoC5/USBFS_std.c ****                         }
 1798              		.loc 1 333 0
ARM GAS  C:\Users\LAIR\AppData\Local\Temp\cc5n6lZj.s 			page 58


 1799 02b4 FFF7FEFF 		bl	USBFS_InitNoDataControlTransfer
 1800              	.LVL185:
 1801 02b8 10BD     		pop	{r4, pc}
 1802              	.LVL186:
 1803              	.L131:
 342:.\Generated_Source\PSoC5/USBFS_std.c ****                 {
 1804              		.loc 1 342 0
 1805 02ba 03F00303 		and	r3, r3, #3
 1806              	.LVL187:
 1807 02be 012B     		cmp	r3, #1
 1808 02c0 17D0     		beq	.L143
 1809 02c2 4BB1     		cbz	r3, .L144
 1810 02c4 022B     		cmp	r3, #2
 1811 02c6 3BD1     		bne	.L166
 345:.\Generated_Source\PSoC5/USBFS_std.c ****                         {
 1812              		.loc 1 345 0
 1813 02c8 214B     		ldr	r3, .L170
 1814 02ca 9B78     		ldrb	r3, [r3, #2]	@ zero_extendqisi2
 1815 02cc 13F0FF0F 		tst	r3, #255
 1816 02d0 38D1     		bne	.L160
 347:.\Generated_Source\PSoC5/USBFS_std.c ****                         }
 1817              		.loc 1 347 0
 1818 02d2 FFF7FEFF 		bl	USBFS_SetEndpointHalt
 1819              	.LVL188:
 1820 02d6 10BD     		pop	{r4, pc}
 1821              	.LVL189:
 1822              	.L144:
 353:.\Generated_Source\PSoC5/USBFS_std.c ****                         {
 1823              		.loc 1 353 0
 1824 02d8 1D4B     		ldr	r3, .L170
 1825 02da 9B78     		ldrb	r3, [r3, #2]	@ zero_extendqisi2
 1826 02dc DBB2     		uxtb	r3, r3
 1827 02de 012B     		cmp	r3, #1
 1828 02e0 32D1     		bne	.L161
 355:.\Generated_Source\PSoC5/USBFS_std.c ****                             requestHandled = USBFS_InitNoDataControlTransfer();
 1829              		.loc 1 355 0
 1830 02e2 1D4A     		ldr	r2, .L170+8
 1831 02e4 1378     		ldrb	r3, [r2]	@ zero_extendqisi2
 1832 02e6 43F00203 		orr	r3, r3, #2
 1833 02ea 1370     		strb	r3, [r2]
 356:.\Generated_Source\PSoC5/USBFS_std.c ****                         }
 1834              		.loc 1 356 0
 1835 02ec FFF7FEFF 		bl	USBFS_InitNoDataControlTransfer
 1836              	.LVL190:
 1837 02f0 10BD     		pop	{r4, pc}
 1838              	.LVL191:
 1839              	.L143:
 362:.\Generated_Source\PSoC5/USBFS_std.c ****                         {
 1840              		.loc 1 362 0
 1841 02f2 174B     		ldr	r3, .L170
 1842 02f4 1B79     		ldrb	r3, [r3, #4]	@ zero_extendqisi2
 1843 02f6 13F0FF0F 		tst	r3, #255
 1844 02fa 27D1     		bne	.L162
 364:.\Generated_Source\PSoC5/USBFS_std.c ****                             requestHandled = USBFS_InitNoDataControlTransfer();
 1845              		.loc 1 364 0
 1846 02fc 144B     		ldr	r3, .L170
 1847 02fe 9878     		ldrb	r0, [r3, #2]	@ zero_extendqisi2
ARM GAS  C:\Users\LAIR\AppData\Local\Temp\cc5n6lZj.s 			page 59


 1848 0300 1B79     		ldrb	r3, [r3, #4]	@ zero_extendqisi2
 1849 0302 DBB2     		uxtb	r3, r3
 1850 0304 1349     		ldr	r1, .L170+4
 1851 0306 CA5C     		ldrb	r2, [r1, r3]	@ zero_extendqisi2
 1852 0308 22EA0002 		bic	r2, r2, r0
 1853 030c CA54     		strb	r2, [r1, r3]
 365:.\Generated_Source\PSoC5/USBFS_std.c ****                         }
 1854              		.loc 1 365 0
 1855 030e FFF7FEFF 		bl	USBFS_InitNoDataControlTransfer
 1856              	.LVL192:
 1857 0312 10BD     		pop	{r4, pc}
 1858              	.LVL193:
 1859              	.L146:
  86:.\Generated_Source\PSoC5/USBFS_std.c ****     uint8 interfaceNumber;
 1860              		.loc 1 86 0
 1861 0314 0020     		movs	r0, #0
 1862 0316 10BD     		pop	{r4, pc}
 1863              	.LVL194:
 1864              	.L147:
 1865 0318 0020     		movs	r0, #0
 1866              	.LVL195:
 1867 031a 10BD     		pop	{r4, pc}
 1868              	.LVL196:
 1869              	.L150:
 1870 031c 0020     		movs	r0, #0
 1871 031e 10BD     		pop	{r4, pc}
 1872              	.LVL197:
 1873              	.L164:
 1874 0320 0020     		movs	r0, #0
 1875 0322 10BD     		pop	{r4, pc}
 1876              	.LVL198:
 1877              	.L152:
 1878 0324 0020     		movs	r0, #0
 1879 0326 10BD     		pop	{r4, pc}
 1880              	.LVL199:
 1881              	.L153:
 1882 0328 0020     		movs	r0, #0
 1883              	.LVL200:
 1884 032a 10BD     		pop	{r4, pc}
 1885              	.L154:
 1886 032c 0020     		movs	r0, #0
 1887 032e 10BD     		pop	{r4, pc}
 1888              	.L165:
 1889 0330 0020     		movs	r0, #0
 1890 0332 10BD     		pop	{r4, pc}
 1891              	.L156:
 1892 0334 0020     		movs	r0, #0
 1893 0336 10BD     		pop	{r4, pc}
 1894              	.L157:
 1895 0338 0020     		movs	r0, #0
 1896 033a 10BD     		pop	{r4, pc}
 1897              	.L158:
 1898 033c 0020     		movs	r0, #0
 1899 033e 10BD     		pop	{r4, pc}
 1900              	.L166:
 1901 0340 0020     		movs	r0, #0
 1902 0342 10BD     		pop	{r4, pc}
ARM GAS  C:\Users\LAIR\AppData\Local\Temp\cc5n6lZj.s 			page 60


 1903              	.L160:
 1904 0344 0020     		movs	r0, #0
 1905 0346 10BD     		pop	{r4, pc}
 1906              	.L161:
 1907 0348 0020     		movs	r0, #0
 1908 034a 10BD     		pop	{r4, pc}
 1909              	.L162:
 1910 034c 0020     		movs	r0, #0
 1911              	.LVL201:
 380:.\Generated_Source\PSoC5/USBFS_std.c **** 
 1912              		.loc 1 380 0
 1913 034e 10BD     		pop	{r4, pc}
 1914              	.L171:
 1915              		.align	2
 1916              	.L170:
 1917 0350 00600040 		.word	1073766400
 1918 0354 00000000 		.word	USBFS_interfaceStatus
 1919 0358 00000000 		.word	USBFS_deviceStatus
 1920              		.cfi_endproc
 1921              	.LFE0:
 1922              		.size	USBFS_HandleStandardRqst, .-USBFS_HandleStandardRqst
 1923              		.section	.rodata.str1.4,"aMS",%progbits,1
 1924              		.align	2
 1925              	.LC0:
 1926 0000 30313233 		.ascii	"0123456789ABCDEF\000"
 1926      34353637 
 1926      38394142 
 1926      43444546 
 1926      00
 1927 0011 000000   		.bss
 1928              		.align	2
 1929              		.set	.LANCHOR0,. + 0
 1930              		.type	USBFS_tBuffer.5155, %object
 1931              		.size	USBFS_tBuffer.5155, 2
 1932              	USBFS_tBuffer.5155:
 1933 0000 0000     		.space	2
 1934 0002 0000     		.text
 1935              	.Letext0:
 1936              		.file 2 ".\\Generated_Source\\PSoC5\\cytypes.h"
 1937              		.file 3 ".\\Generated_Source\\PSoC5\\USBFS.h"
 1938              		.file 4 ".\\Generated_Source\\PSoC5\\USBFS_pvt.h"
 1939              		.file 5 ".\\Generated_Source\\PSoC5\\CyLib.h"